LX51 LINKER/LOCATER V4.66.1.0                                                           09/07/2023  18:22:32  PAGE 1


LX51 LINKER/LOCATER V4.66.1.0, INVOKED BY:
C:\KEIL\C51\BIN\LX51.EXE .\Objects\main.obj, .\Objects\isr.obj, .\Objects\uart.obj, .\Objects\acmp.obj, .\Objects\adc.ob
>> j, .\Objects\buzzer.obj, .\Objects\epwm.obj, .\Objects\extint.obj, .\Objects\flash.obj, .\Objects\gpio.obj, .\Objects
>> \i2c.obj, .\Objects\lse.obj, .\Objects\opa.obj, .\Objects\pga.obj, .\Objects\spi.obj, .\Objects\system.obj, .\Objects
>> \timer.obj, .\Objects\wdt.obj, .\Objects\startup_cms8s6990.obj, .\Objects\Test_Uart.obj, .\Objects\Test_LED.obj, .\Ob
>> jects\Test_timer.obj, .\Objects\delay.obj, .\Objects\Breathing_lamp.obj TO .\Objects\project PRINT (.\Listings\projec
>> t.map)


CPU MODE:     8051 MODE
MEMORY MODEL: SMALL


INPUT MODULES INCLUDED:
  .\Objects\main.obj (MAIN)
         COMMENT TYPE 0: C51 V9.52.0.0
  .\Objects\isr.obj (ISR)
         COMMENT TYPE 0: C51 V9.52.0.0
  .\Objects\uart.obj (UART)
         COMMENT TYPE 0: C51 V9.52.0.0
  .\Objects\acmp.obj (ACMP)
         COMMENT TYPE 0: C51 V9.52.0.0
  .\Objects\adc.obj (ADC)
         COMMENT TYPE 0: C51 V9.52.0.0
  .\Objects\buzzer.obj (BUZZER)
         COMMENT TYPE 0: C51 V9.52.0.0
  .\Objects\epwm.obj (EPWM)
         COMMENT TYPE 0: C51 V9.52.0.0
  .\Objects\extint.obj (EXTINT)
         COMMENT TYPE 0: C51 V9.52.0.0
  .\Objects\flash.obj (FLASH)
         COMMENT TYPE 0: C51 V9.52.0.0
  .\Objects\gpio.obj (GPIO)
         COMMENT TYPE 0: C51 V9.52.0.0
  .\Objects\i2c.obj (I2C)
         COMMENT TYPE 0: C51 V9.52.0.0
  .\Objects\lse.obj (LSE)
         COMMENT TYPE 0: C51 V9.52.0.0
  .\Objects\opa.obj (OPA)
         COMMENT TYPE 0: C51 V9.52.0.0
  .\Objects\pga.obj (PGA)
         COMMENT TYPE 0: C51 V9.52.0.0
  .\Objects\spi.obj (SPI)
         COMMENT TYPE 0: C51 V9.52.0.0
  .\Objects\system.obj (SYSTEM)
         COMMENT TYPE 0: C51 V9.52.0.0
  .\Objects\timer.obj (TIMER)
         COMMENT TYPE 0: C51 V9.52.0.0
  .\Objects\wdt.obj (WDT)
         COMMENT TYPE 0: C51 V9.52.0.0
  .\Objects\startup_cms8s6990.obj (?C_STARTUP)
         COMMENT TYPE 1: A51 / ASM51 Assembler
  .\Objects\Test_Uart.obj (TEST_UART)
         COMMENT TYPE 0: C51 V9.52.0.0
  .\Objects\Test_LED.obj (TEST_LED)
         COMMENT TYPE 0: C51 V9.52.0.0
  .\Objects\Test_timer.obj (TEST_TIMER)
         COMMENT TYPE 0: C51 V9.52.0.0
  .\Objects\delay.obj (DELAY)
         COMMENT TYPE 0: C51 V9.52.0.0
  .\Objects\Breathing_lamp.obj (BREATHING_LAMP)
         COMMENT TYPE 0: C51 V9.52.0.0
  C:\KEIL\C51\LIB\C51S.LIB (?C_INIT)
         COMMENT TYPE 1: A51 / ASM51 Assembler
  C:\KEIL\C51\LIB\C51S.LIB (?C?CLDPTR)
         COMMENT TYPE 1: A51 / ASM51 Assembler
LX51 LINKER/LOCATER V4.66.1.0                                                         09/07/2023  18:22:32  PAGE 2


  C:\KEIL\C51\LIB\C51S.LIB (PRINTF)
         COMMENT TYPE 1: A51 / ASM51 Assembler
  C:\KEIL\C51\LIB\C51S.LIB (?C?CLDOPTR)
         COMMENT TYPE 1: A51 / ASM51 Assembler
  C:\KEIL\C51\LIB\C51S.LIB (?C?CSTPTR)
         COMMENT TYPE 1: A51 / ASM51 Assembler
  C:\KEIL\C51\LIB\C51S.LIB (?C?PLDIIDATA)
         COMMENT TYPE 1: A51 / ASM51 Assembler
  C:\KEIL\C51\LIB\C51S.LIB (?C?CCASE)
         COMMENT TYPE 1: A51 / ASM51 Assembler


ACTIVE MEMORY CLASSES OF MODULE:  .\Objects\project (MAIN)

BASE        START       END         USED      MEMORY CLASS
==========================================================
C:000000H   C:000000H   C:00FFFFH   001F95H   CODE
I:000000H   I:000000H   I:00007FH   000035H   DATA
I:000000H   I:000000H   I:0000FFH   000001H   IDATA
I:000020H.0 I:000020H.0 I:00002FH.7 000001H.1 BIT


MEMORY MAP OF MODULE:  .\Objects\project (MAIN)


START     STOP      LENGTH    ALIGN  RELOC    MEMORY CLASS   SEGMENT NAME
=========================================================================

* * * * * * * * * * *   D A T A   M E M O R Y   * * * * * * * * * * * * *
000000H   000007H   000008H   ---    AT..     DATA           "REG BANK 0"
000008H   00001BH   000014H   BYTE   UNIT     DATA           ?DT?PRINTF?PRINTF
00001CH   00001FH   000004H   BYTE   UNIT     DATA           ?DT?MAIN
000020H.0 000021H.0 000001H.1 BIT    UNIT     BIT            ?BI?PRINTF?PRINTF
000021H.1 000021H   000000H.7 ---    ---      **GAP**
000022H   000027H   000006H   BYTE   UNIT     DATA           ?DT?_ACMP_GETOFFSETADJVALUE?ACMP
000028H   00002CH   000005H   BYTE   UNIT     DATA           ?DT?_UART_CONFIGBAUDRATE?UART
00002DH   000031H   000005H   BYTE   UNIT     DATA           _DATA_GROUP_
000032H   000032H   000001H   BYTE   UNIT     DATA           ?DT?ACMP_DELAY?ACMP
000033H   000033H   000001H   BYTE   UNIT     DATA           ?DT?OPA_DELAY?OPA
000034H   000034H   000001H   BYTE   UNIT     DATA           ?DT?_OPA_GETOFFSETADJVALUE?OPA
000035H   000035H   000001H   BYTE   UNIT     DATA           ?DT?PGA_DELAY?PGA
000036H   000036H   000001H   BYTE   UNIT     DATA           ?DT?_UART_ISR_CONFIG?TEST_UART
000037H   000037H   000001H   BYTE   UNIT     IDATA          ?STACK

* * * * * * * * * * *   C O D E   M E M O R Y   * * * * * * * * * * * * *
000000H   000002H   000003H   ---    OFFS..   CODE           ?CO??C_STARTUP?0
000003H   000005H   000003H   BYTE   OFFS..   CODE           ?ISR?00003
000006H   00000AH   000005H   BYTE   UNIT     CODE           ?PR?SPI_CLEARTRANSFERINTFLAG?SPI
00000BH   00000DH   000003H   BYTE   OFFS..   CODE           ?ISR?0000B
00000EH   000012H   000005H   BYTE   UNIT     CODE           ?PR?SPI_CLEARWRITEERRORINTFLAG?SPI
000013H   000015H   000003H   BYTE   OFFS..   CODE           ?ISR?00013
000016H   000019H   000004H   BYTE   UNIT     CODE           ?PR?ADC_START?ADC
00001AH   00001AH   000001H   BYTE   UNIT     CODE           ?PR?TIMER0_IRQHANDLER?ISR
00001BH   00001DH   000003H   BYTE   OFFS..   CODE           ?ISR?0001B
00001EH   000021H   000004H   BYTE   UNIT     CODE           ?PR?ADC_STOP?ADC
000022H   000022H   000001H   BYTE   UNIT     CODE           ?PR?INT1_IRQHANDLER?ISR
000023H   000025H   000003H   BYTE   OFFS..   CODE           ?ISR?00023
000026H   000029H   000004H   BYTE   UNIT     CODE           ?PR?ADC_ENABLEHARDWARETRIG?ADC
00002AH   00002AH   000001H   BYTE   UNIT     CODE           ?PR?TIMER1_IRQHANDLER?ISR
00002BH   00002DH   000003H   BYTE   OFFS..   CODE           ?ISR?0002B
00002EH   000031H   000004H   BYTE   UNIT     CODE           ?PR?ADC_DISABLEHARDWARETRIG?ADC
000032H   000032H   000001H   BYTE   UNIT     CODE           ?PR?TIMER2_IRQHANDLER?ISR
000033H   000035H   000003H   BYTE   OFFS..   CODE           ?ISR?00033
000036H   000039H   000004H   BYTE   UNIT     CODE           ?PR?ADC_ENABLEINT?ADC
00003AH   00003AH   000001H   BYTE   UNIT     CODE           ?PR?UART1_IRQHANDLER?ISR
LX51 LINKER/LOCATER V4.66.1.0                                                         09/07/2023  18:22:32  PAGE 3


00003BH   00003DH   000003H   BYTE   OFFS..   CODE           ?ISR?0003B
00003EH   000041H   000004H   BYTE   UNIT     CODE           ?PR?ADC_DISABLEINT?ADC
000042H   000042H   000001H   BYTE   UNIT     CODE           ?PR?P0EI_IRQHANDLER?ISR
000043H   000045H   000003H   BYTE   OFFS..   CODE           ?ISR?00043
000046H   000049H   000004H   BYTE   UNIT     CODE           ?PR?ADC_CLEARINTFLAG?ADC
00004AH   00004AH   000001H   BYTE   UNIT     CODE           ?PR?P1EI_IRQHANDLER?ISR
00004BH   00004DH   000003H   BYTE   OFFS..   CODE           ?ISR?0004B
00004EH   000051H   000004H   BYTE   UNIT     CODE           ?PR?BUZ_ENABLEBUZZER?BUZZER
000052H   000052H   000001H   BYTE   UNIT     CODE           ?PR?P2EI_IRQHANDLER?ISR
000053H   000055H   000003H   BYTE   OFFS..   CODE           ?ISR?00053
000056H   000062H   00000DH   BYTE   UNIT     CODE           ?PR?_UART_ENABLEDOUBLEFREQUENCY?UART
000063H   000065H   000003H   BYTE   OFFS..   CODE           ?ISR?00063
000066H   000069H   000004H   BYTE   UNIT     CODE           ?PR?BUZ_DISABLEBUZZER?BUZZER
00006AH   00006AH   000001H   BYTE   UNIT     CODE           ?PR?P3EI_IRQHANDLER?ISR
00006BH   00006DH   000003H   BYTE   OFFS..   CODE           ?ISR?0006B
00006EH   000071H   000004H   BYTE   UNIT     CODE           ?PR?EPWM_ALLINTENABLE?EPWM
000072H   000072H   000001H   BYTE   UNIT     CODE           ?PR?LVD_IRQHANDLER?ISR
000073H   000075H   000003H   BYTE   OFFS..   CODE           ?ISR?00073
000076H   000079H   000004H   BYTE   UNIT     CODE           ?PR?EPWM_ALLINTDISABLE?EPWM
00007AH   00007AH   000001H   BYTE   UNIT     CODE           ?PR?LSE_IRQHANDLER?ISR
00007BH   00007DH   000003H   BYTE   OFFS..   CODE           ?ISR?0007B
00007EH   000081H   000004H   BYTE   UNIT     CODE           ?PR?FLASH_UNLOCK?FLASH
000082H   000082H   000001H   BYTE   UNIT     CODE           ?PR?ACMP_IRQHANDLER?ISR
000083H   000085H   000003H   BYTE   OFFS..   CODE           ?ISR?00083
000086H   000092H   00000DH   BYTE   UNIT     CODE           ?PR?_UART_DISABLEDOUBLEFREQUENCY?UART
000093H   000095H   000003H   BYTE   OFFS..   CODE           ?ISR?00093
000096H   000099H   000004H   BYTE   UNIT     CODE           ?PR?FLASH_LOCK?FLASH
00009AH   00009AH   000001H   BYTE   UNIT     CODE           ?PR?TIMER3_IRQHANDLER?ISR
00009BH   00009DH   000003H   BYTE   OFFS..   CODE           ?ISR?0009B
00009EH   0000A1H   000004H   BYTE   UNIT     CODE           ?PR?I2C_ENABLEINT?I2C
0000A2H   0000A2H   000001H   BYTE   UNIT     CODE           ?PR?TIMER4_IRQHANDLER?ISR
0000A3H   0000A5H   000003H   BYTE   OFFS..   CODE           ?ISR?000A3
0000A6H   0000A9H   000004H   BYTE   UNIT     CODE           ?PR?I2C_DISABLEINT?I2C
0000AAH   0000AAH   000001H   BYTE   UNIT     CODE           ?PR?EPWM_IRQHANDLER?ISR
0000ABH   0000ADH   000003H   BYTE   OFFS..   CODE           ?ISR?000AB
0000AEH   0000B1H   000004H   BYTE   UNIT     CODE           ?PR?I2C_CLEARMASTERINTFLAG?I2C
0000B2H   0000B2H   000001H   BYTE   UNIT     CODE           ?PR?ADC_IRQHANDLER?ISR
0000B3H   0000B5H   000003H   BYTE   OFFS..   CODE           ?ISR?000B3
0000B6H   000411H   00035CH   BYTE   UNIT     CODE           ?PR?PRINTF?PRINTF
000412H   000608H   0001F7H   BYTE   UNIT     CODE           ?PR?_ACMP_GETOFFSETADJVALUE?ACMP
000609H   0006E6H   0000DEH   BYTE   UNIT     CODE           ?PR?_GPIO_CONFIGGPIOMODE?GPIO
0006E7H   0007AAH   0000C4H   BYTE   UNIT     CODE           ?PR?_OPA_GETOFFSETADJVALUE?OPA
0007ABH   00086CH   0000C2H   BYTE   UNIT     CODE           ?PR?_EPWM_CONFIGCHANNELASYMDUTY?EPWM
00086DH   000906H   00009AH   BYTE   UNIT     CODE           ?C_C51STARTUP
000907H   000994H   00008EH   BYTE   UNIT     CODE           ?C?LIB_CODE
000995H   000A18H   000084H   BYTE   UNIT     CODE           ?PR?EPWM_CONFIG?BREATHING_LAMP
000A19H   000A98H   000080H   BYTE   UNIT     CODE           ?PR?_EPWM_CONFIGCHANNELPERIOD?EPWM
000A99H   000B18H   000080H   BYTE   UNIT     CODE           ?PR?_EPWM_CONFIGCHANNELSYMDUTY?EPWM
000B19H   000B96H   00007EH   BYTE   UNIT     CODE           ?PR?_UART_ISR_CONFIG?TEST_UART
000B97H   000C11H   00007BH   BYTE   UNIT     CODE           ?PR?_TMR2_ENABLECAPTURE?TIMER
000C12H   000C80H   00006FH   BYTE   UNIT     CODE           ?PR?_ACMP_CONFIGNEGATIVE?ACMP
000C81H   000CEFH   00006FH   BYTE   UNIT     CODE           ?PR?_PGA_GETOFFSETADJVALUE?PGA
000CF0H   000D4DH   00005EH   BYTE   UNIT     CODE           ?PR?UART0_IRQHANDLER?ISR
000D4EH   000DAAH   00005DH   BYTE   UNIT     CODE           ?PR?_UART_CONFIGRUNMODE?UART
000DABH   000E06H   00005CH   BYTE   UNIT     CODE           ?PR?_EPWM_CONFIGCHANNELCLK?EPWM
000E07H   000E5EH   000058H   BYTE   UNIT     CODE           ?PR?_GPIO_GETINTFLAG?GPIO
000E5FH   000EAAH   00004CH   BYTE   UNIT     CODE           ?PR?_GPIO_CLEARINTFLAG?GPIO
000EABH   000EF2H   000048H   BYTE   UNIT     CODE           ?PR?_TMR_CONFIGRUNMODE?TIMER
000EF3H   000F38H   000046H   BYTE   UNIT     CODE           ?PR?_TMR_CONFIGTIMERCLK?TIMER
000F39H   000F7CH   000044H   BYTE   UNIT     CODE           ?PR?_TMR_GETCOUNTVALUE?TIMER
000F7DH   000FB8H   00003CH   BYTE   UNIT     CODE           ?PR?_TMR2_GETCAPTUREVALUE?TIMER
000FB9H   000FF4H   00003CH   BYTE   UNIT     CODE           ?PR?_UART_CONFIG?TEST_UART
000FF5H   00102DH   000039H   BYTE   UNIT     CODE           ?PR?_EPWM_ENABLEDEADZONE?EPWM
00102EH   001065H   000038H   BYTE   UNIT     CODE           ?PR?_EPWM_ENABLEFAULTBRAKE?EPWM
001066H   001098H   000033H   BYTE   UNIT     CODE           ?PR?_ACMP_CONFIGOFFSETADJ?ACMP
LX51 LINKER/LOCATER V4.66.1.0                                                         09/07/2023  18:22:32  PAGE 4


001099H   0010CBH   000033H   BYTE   UNIT     CODE           ?PR?_TMR_GETOVERFLOWINTFLAG?TIMER
0010CCH   0010FEH   000033H   BYTE   UNIT     CODE           ?PR?_TMR2_ENABLECOMPARE?TIMER
0010FFH   001130H   000032H   BYTE   UNIT     CODE           ?PR?_FLASH_READ?FLASH
001131H   001161H   000031H   BYTE   UNIT     CODE           ?PR?_FLASH_WRITE?FLASH
001162H   001190H   00002FH   BYTE   UNIT     CODE           ?PR?_FLASH_ERASE?FLASH
001191H   0011BFH   00002FH   BYTE   UNIT     CODE           ?PR?_OPA_CONFIGOFFSETADJ?OPA
0011C0H   0011EEH   00002FH   BYTE   UNIT     CODE           ?PR?_DELAY_MS?DELAY
0011EFH   00121AH   00002CH   BYTE   UNIT     CODE           ?PR?_EPWM_DISABLEDEADZONE?EPWM
00121BH   001245H   00002BH   BYTE   UNIT     CODE           ?PR?_ACMP_ENABLEHYS?ACMP
001246H   001270H   00002BH   BYTE   UNIT     CODE           ?PR?_EPWM_DISABLEFAULTBRAKE?EPWM
001271H   001299H   000029H   BYTE   UNIT     CODE           ?PR?_OPA_SETRUNMODE?OPA
00129AH   0012C2H   000029H   BYTE   UNIT     CODE           ?PR?_OPA_CONFIGNEGATIVE?OPA
0012C3H   0012EBH   000029H   BYTE   UNIT     CODE           ?PR?TIMER_CONFIG?TEST_TIMER
0012ECH   001310H   000025H   BYTE   UNIT     CODE           ?PR?_ACMP_ENABLEFILTER?ACMP
001311H   001335H   000025H   BYTE   UNIT     CODE           ?PR?ADC_GETADCRESULT?ADC
001336H   001359H   000024H   BYTE   UNIT     CODE           ?PR?LED_RUN?TEST_LED
00135AH   00137CH   000023H   BYTE   UNIT     CODE           ?PR?_ACMP_ENABLEACMPBRAKE?ACMP
00137DH   00139FH   000023H   BYTE   UNIT     CODE           ?PR?_ACMP_GETRESULT?ACMP
0013A0H   0013C2H   000023H   BYTE   UNIT     CODE           ?PR?_OPA_GETRESULT?OPA
0013C3H   0013E5H   000023H   BYTE   UNIT     CODE           ?PR?_TMR_CONFIGTIMERPERIOD?TIMER
0013E6H   001407H   000022H   BYTE   UNIT     CODE           ?PR?_GPIO_DISABLEINT?GPIO
001408H   001428H   000021H   BYTE   UNIT     CODE           ?PR?_ACMP_CONFIGPOSITIVE?ACMP
001429H   001449H   000021H   BYTE   UNIT     CODE           ?PR?_OPA_CONFIGPOSITIVE?OPA
00144AH   001468H   00001FH   BYTE   UNIT     CODE           ?PR?_UART_GETRECEIVEINTFLAG?UART
001469H   001487H   00001FH   BYTE   UNIT     CODE           ?PR?_UART_GETSENDINTFLAG?UART
001488H   0014A6H   00001FH   BYTE   UNIT     CODE           ?PR?_EPWM_GETUPCMPINTFLAG?EPWM
0014A7H   0014C5H   00001FH   BYTE   UNIT     CODE           ?PR?_EPWM_GETDOWNCMPINTFLAG?EPWM
0014C6H   0014E4H   00001FH   BYTE   UNIT     CODE           ?PR?_EPWM_GETPERIODINTFLAG?EPWM
0014E5H   001503H   00001FH   BYTE   UNIT     CODE           ?PR?_EPWM_GETZEROINTFLAG?EPWM
001504H   001522H   00001FH   BYTE   UNIT     CODE           ?PR?_EXTINT_GETINTFLAG?EXTINT
001523H   001541H   00001FH   BYTE   UNIT     CODE           ?PR?_TMR_START?TIMER
001542H   001560H   00001FH   BYTE   UNIT     CODE           ?PR?_TMR_STOP?TIMER
001561H   00157FH   00001FH   BYTE   UNIT     CODE           ?PR?_TMR2_CONFIGTIMERPERIOD?TIMER
001580H   00159EH   00001FH   BYTE   UNIT     CODE           ?PR?_TMR2_CONFIGCOMPAREVALUE?TIMER
00159FH   0015BCH   00001EH   BYTE   UNIT     CODE           ?PR?_ADC_ENABLECHANNEL?ADC
0015BDH   0015DAH   00001EH   BYTE   UNIT     CODE           ?PR?_GPIO_ENABLEINT?GPIO
0015DBH   0015F7H   00001DH   BYTE   UNIT     CODE           ?PR?_TMR_ENABLEOVERFLOWINT?TIMER
0015F8H   001614H   00001DH   BYTE   UNIT     CODE           ?PR?_TMR_DISABLEOVERFLOWINT?TIMER
001615H   001631H   00001DH   BYTE   UNIT     CODE           ?PR?_TMR_CLEAROVERFLOWINTFLAG?TIMER
001632H   00164EH   00001DH   BYTE   UNIT     CODE           ?PR?IO_CONFIG?BREATHING_LAMP
00164FH   00166AH   00001CH   BYTE   UNIT     CODE           ?PR?_UART_SENDNINTHBIT?UART
00166BH   001686H   00001CH   BYTE   UNIT     CODE           ?PR?_TMR2_GETCOMPAREINTFLAG?TIMER
001687H   0016A2H   00001CH   BYTE   UNIT     CODE           ?PR?_TMR2_GETCAPTUREINTFLAG?TIMER
0016A3H   0016BDH   00001BH   BYTE   UNIT     CODE           ?PR?_UART_CLEARRECEIVEINTFLAG?UART
0016BEH   0016D8H   00001BH   BYTE   UNIT     CODE           ?PR?_UART_CLEARSENDINTFLAG?UART
0016D9H   0016F3H   00001BH   BYTE   UNIT     CODE           ?PR?_EXTINT_CONFIGINT?EXTINT
0016F4H   00170EH   00001BH   BYTE   UNIT     CODE           ?PR?SYS_ENABLEWDTRESET?SYSTEM
00170FH   001729H   00001BH   BYTE   UNIT     CODE           ?PR?SYS_DISABLEWDTRESET?SYSTEM
00172AH   001744H   00001BH   BYTE   UNIT     CODE           ?PR?SYS_CLEARWDTRESETFLAG?SYSTEM
001745H   00175FH   00001BH   BYTE   UNIT     CODE           ?PR?SYS_ENABLESOFTWARERESET?SYSTEM
001760H   00177AH   00001BH   BYTE   UNIT     CODE           ?PR?SYS_DISABLESOFTWARERESET?SYSTEM
00177BH   001795H   00001BH   BYTE   UNIT     CODE           ?PR?WDT_CLEARWDT?WDT
001796H   0017B0H   00001BH   BYTE   UNIT     CODE           ?PR?WDT_CLEAROVERFLOWINTFLAG?WDT
0017B1H   0017C9H   000019H   BYTE   UNIT     CODE           ?PR?_EPWM_ENABLEMASKCONTROL?EPWM
0017CAH   0017E2H   000019H   BYTE   UNIT     CODE           ?PR?_PGA_ENABLENORMALMODE?PGA
0017E3H   0017FBH   000019H   BYTE   UNIT     CODE           ?PR?_TMR2_DISABLECOMPARE?TIMER
0017FCH   001814H   000019H   BYTE   UNIT     CODE           ?PR?_TMR2_DISABLECAPTURE?TIMER
001815H   00182CH   000018H   BYTE   UNIT     CODE           ?PR?_ADC_CONFIGRUNMODE?ADC
00182DH   001843H   000017H   BYTE   UNIT     CODE           ?PR?_UART_GETNINTHBIT?UART
001844H   001859H   000016H   BYTE   UNIT     CODE           ?PR?_SPI_CONFIGRUNMODE?SPI
00185AH   00186FH   000016H   BYTE   UNIT     CODE           ?PR?_PUTS?TEST_UART
001870H   001884H   000015H   BYTE   UNIT     CODE           ?PR?_ACMP_ENABLEREVERSEOUTPUT?ACMP
001885H   001899H   000015H   BYTE   UNIT     CODE           ?PR?_ACMP_DISABLEREVERSEOUTPUT?ACMP
00189AH   0018AEH   000015H   BYTE   UNIT     CODE           ?PR?_ACMP_DISABLEFILTER?ACMP
0018AFH   0018C3H   000015H   BYTE   UNIT     CODE           ?PR?_ACMP_START?ACMP
LX51 LINKER/LOCATER V4.66.1.0                                                         09/07/2023  18:22:32  PAGE 5


0018C4H   0018D8H   000015H   BYTE   UNIT     CODE           ?PR?_ACMP_STOP?ACMP
0018D9H   0018EDH   000015H   BYTE   UNIT     CODE           ?PR?_ACMP_DISABLEHYS?ACMP
0018EEH   001902H   000015H   BYTE   UNIT     CODE           ?PR?_ADC_CONFIGHARDWARETRIG?ADC
001903H   001917H   000015H   BYTE   UNIT     CODE           ?PR?_OPA_ENABLEOUTPUT?OPA
001918H   00192CH   000015H   BYTE   UNIT     CODE           ?PR?_OPA_DISABLEOUTPUT?OPA
00192DH   001941H   000015H   BYTE   UNIT     CODE           ?PR?_OPA_START?OPA
001942H   001956H   000015H   BYTE   UNIT     CODE           ?PR?_OPA_STOP?OPA
001957H   00196AH   000014H   BYTE   UNIT     CODE           ?PR?_ACMP_DISABLEINT?ACMP
00196BH   00197EH   000014H   BYTE   UNIT     CODE           ?PR?ACMP_DELAY?ACMP
00197FH   001991H   000013H   BYTE   UNIT     CODE           ?PR?_ACMP_ENABLEINT?ACMP
001992H   0019A4H   000013H   BYTE   UNIT     CODE           ?PR?_ACMP_GETINTFLAG?ACMP
0019A5H   0019B7H   000013H   BYTE   UNIT     CODE           ?PR?_ADC_CONFIGCOMPAREVALUE?ADC
0019B8H   0019C9H   000012H   BYTE   UNIT     CODE           ?PR?_EPWM_CONFIGCHANNELBRAKELEVEL?EPWM
0019CAH   0019DAH   000011H   BYTE   UNIT     CODE           ?PR?_ACMP_CLEARINTFLAG?ACMP
0019DBH   0019EBH   000011H   BYTE   UNIT     CODE           ?PR?_EPWM_CLEARUPCMPINTFLAG?EPWM
0019ECH   0019FCH   000011H   BYTE   UNIT     CODE           ?PR?_EPWM_CLEARDOWNCMPINTFLAG?EPWM
0019FDH   001A0DH   000011H   BYTE   UNIT     CODE           ?PR?_EPWM_CLEARPERIODINTFLAG?EPWM
001A0EH   001A1EH   000011H   BYTE   UNIT     CODE           ?PR?_EPWM_CLEARZEROINTFLAG?EPWM
001A1FH   001A2FH   000011H   BYTE   UNIT     CODE           ?PR?_PGA_CONFIGGAIN?PGA
001A30H   001A40H   000011H   BYTE   UNIT     CODE           ?PR?_PGA_CONFIGOFFSETADJ?PGA
001A41H   001A51H   000011H   BYTE   UNIT     CODE           ?PR?_SYS_CONFIGWUTTIME?SYSTEM
001A52H   001A60H   00000FH   BYTE   UNIT     CODE           ?PR?_UART_GETBUFF?UART
001A61H   001A6FH   00000FH   BYTE   UNIT     CODE           ?PR?_ADC_CONFIGAN31?ADC
001A70H   001A7EH   00000FH   BYTE   UNIT     CODE           ?PR?_ADC_SETTRIGDELAYTIME?ADC
001A7FH   001A8DH   00000FH   BYTE   UNIT     CODE           ?PR?_TMR2_DISABLECOMPAREINT?TIMER
001A8EH   001A9CH   00000FH   BYTE   UNIT     CODE           ?PR?_TMR2_CLEARCOMPAREINTFLAG?TIMER
001A9DH   001AABH   00000FH   BYTE   UNIT     CODE           ?PR?_TMR2_DISABLECAPTUREINT?TIMER
001AACH   001ABAH   00000FH   BYTE   UNIT     CODE           ?PR?_TMR2_CLEARCAPTUREINTFLAG?TIMER
001ABBH   001AC9H   00000FH   BYTE   UNIT     CODE           ?PR?_WDT_CONFIGOVERFLOWTIME?WDT
001ACAH   001AD7H   00000EH   BYTE   UNIT     CODE           ?PR?_UART_CONFIGBRTCLK?UART
001AD8H   001AE5H   00000EH   BYTE   UNIT     CODE           ?PR?_ADC_CONFIGADCVREF?ADC
001AE6H   001AF3H   00000EH   BYTE   UNIT     CODE           ?PR?_EPWM_CONFIGFBBRAKE?EPWM
001AF4H   001B01H   00000EH   BYTE   UNIT     CODE           ?PR?_PGA_CONFIGINPUT?PGA
001B02H   001B0FH   00000EH   BYTE   UNIT     CODE           ?PR?_PGA_CONFIGSAMPLETIME?PGA
001B10H   001B1DH   00000EH   BYTE   UNIT     CODE           ?PR?_SYS_CONFIGLVD?SYSTEM
001B1EH   001B2BH   00000EH   BYTE   UNIT     CODE           ?PR?_SYS_CONFIGWUTCLK?SYSTEM
001B2CH   001B39H   00000EH   BYTE   UNIT     CODE           ?PR?_TMR2_ENABLECOMPAREINT?TIMER
001B3AH   001B47H   00000EH   BYTE   UNIT     CODE           ?PR?_TMR2_ENABLECAPTUREINT?TIMER
001B48H   001B55H   00000EH   BYTE   UNIT     CODE           ?PR?GPIO_CONFIG?TEST_LED
001B56H   001B62H   00000DH   BYTE   UNIT     CODE           ?PR?_UART_ENABLERECEIVE?UART
001B63H   001B6FH   00000DH   BYTE   UNIT     CODE           ?PR?_UART_DISABLERECEIVE?UART
001B70H   001B7CH   00000DH   BYTE   UNIT     CODE           ?PR?_BUZ_CONFIGBUZZER?BUZZER
001B7DH   001B89H   00000DH   BYTE   UNIT     CODE           ?PR?_LSE_CONFIGLSE?LSE
001B8AH   001B96H   00000DH   BYTE   UNIT     CODE           ?PR?_TMR_ENABLEGATE?TIMER
001B97H   001BA3H   00000DH   BYTE   UNIT     CODE           ?PR?_TMR_DISABLEGATE?TIMER
001BA4H   001BB0H   00000DH   BYTE   UNIT     CODE           ?PR?_PUTCHAR?TEST_UART
001BB1H   001BBCH   00000CH   BYTE   UNIT     CODE           ?PR?_UART_CONFIGBAUDRATE?UART
001BBDH   001BC8H   00000CH   BYTE   UNIT     CODE           ?PR?_EPWM_ENABLEONESHOTMODE?EPWM
001BC9H   001BD4H   00000CH   BYTE   UNIT     CODE           ?PR?_EPWM_STOP?EPWM
001BD5H   001BE0H   00000CH   BYTE   UNIT     CODE           ?PR?_EPWM_DISABLEOUTPUT?EPWM
001BE1H   001BECH   00000CH   BYTE   UNIT     CODE           ?PR?_EPWM_DISABLEMASKCONTROL?EPWM
001BEDH   001BF8H   00000CH   BYTE   UNIT     CODE           ?PR?_EPWM_DISABLEUPCMPINT?EPWM
001BF9H   001C04H   00000CH   BYTE   UNIT     CODE           ?PR?_EPWM_DISABLEDOWNCMPINT?EPWM
001C05H   001C10H   00000CH   BYTE   UNIT     CODE           ?PR?_EPWM_DISABLEPERIODINT?EPWM
001C11H   001C1CH   00000CH   BYTE   UNIT     CODE           ?PR?_EPWM_DISABLEZEROINT?EPWM
001C1DH   001C28H   00000CH   BYTE   UNIT     CODE           ?PR?EPWM_ENABLEFAULTBRAKEINT?EPWM
001C29H   001C34H   00000CH   BYTE   UNIT     CODE           ?PR?EPWM_GETFAULTBRAKEINTFLAG?EPWM
001C35H   001C40H   00000CH   BYTE   UNIT     CODE           ?PR?_EPWM_DISABLEREVERSEOUTPUT?EPWM
001C41H   001C4CH   00000CH   BYTE   UNIT     CODE           ?PR?LSE_GETLSEINTFLAG?LSE
001C4DH   001C58H   00000CH   BYTE   UNIT     CODE           ?PR?LSE_GETLSESTATE?LSE
001C59H   001C64H   00000CH   BYTE   UNIT     CODE           ?PR?OPA_DELAY?OPA
001C65H   001C70H   00000CH   BYTE   UNIT     CODE           ?PR?PGA_GETOUTVALUE?PGA
001C71H   001C7CH   00000CH   BYTE   UNIT     CODE           ?PR?PGA_DELAY?PGA
001C7DH   001C88H   00000CH   BYTE   UNIT     CODE           ?PR?SYS_GETLVDINTFLAG?SYSTEM
001C89H   001C94H   00000CH   BYTE   UNIT     CODE           ?PR?SYS_ENTERSTOP?SYSTEM
LX51 LINKER/LOCATER V4.66.1.0                                                         09/07/2023  18:22:32  PAGE 6


001C95H   001CA0H   00000CH   BYTE   UNIT     CODE           ?PR?SYS_ENTERIDLE?SYSTEM
001CA1H   001CACH   00000CH   BYTE   UNIT     CODE           ?PR?_TMR2_CONFIGRUNMODE?TIMER
001CADH   001CB7H   00000BH   BYTE   UNIT     CODE           ?PR?_UART_ENABLEINT?UART
001CB8H   001CC2H   00000BH   BYTE   UNIT     CODE           ?PR?_UART_DISABLEINT?UART
001CC3H   001CCDH   00000BH   BYTE   UNIT     CODE           ?PR?_UART_SENDBUFF?UART
001CCEH   001CD8H   00000BH   BYTE   UNIT     CODE           ?PR?_ADC_CONFIGADCBRAKE?ADC
001CD9H   001CE3H   00000BH   BYTE   UNIT     CODE           ?PR?_EXTINT_ENABLEINT?EXTINT
001CE4H   001CEEH   00000BH   BYTE   UNIT     CODE           ?PR?_EXTINT_DISABLEINT?EXTINT
001CEFH   001CF9H   00000BH   BYTE   UNIT     CODE           ?PR?_EXTINT_CLEARINTFLAG?EXTINT
001CFAH   001D04H   00000BH   BYTE   UNIT     CODE           ?PR?_SPI_CONFIGCLK?SPI
001D05H   001D0FH   00000BH   BYTE   UNIT     CODE           ?PR?_TMR2_CONFIGTIMERCLK?TIMER
001D10H   001D1AH   00000BH   BYTE   UNIT     CODE           ?PR?TMR2_DISABLEGATE?TIMER
001D1BH   001D25H   00000BH   BYTE   UNIT     CODE           ?PR?_TMR2_CONFIGCOMPAREINTMODE?TIMER
001D26H   001D30H   00000BH   BYTE   UNIT     CODE           ?PR?GETCHAR?TEST_UART
001D31H   001D3AH   00000AH   BYTE   UNIT     CODE           ?PR?MAIN?MAIN
001D3BH   001D44H   00000AH   BYTE   UNIT     CODE           ?PR?ADC_GETCMPRESULT?ADC
001D45H   001D4EH   00000AH   BYTE   UNIT     CODE           ?PR?ADC_GETINTFLAG?ADC
001D4FH   001D58H   00000AH   BYTE   UNIT     CODE           ?PR?I2C_GETMASTERSENDADDRFLAG?I2C
001D59H   001D62H   00000AH   BYTE   UNIT     CODE           ?PR?I2C_GETBUSARBITRATIONFLAG?I2C
001D63H   001D6CH   00000AH   BYTE   UNIT     CODE           ?PR?I2C_GETMASTERERRORFLAG?I2C
001D6DH   001D76H   00000AH   BYTE   UNIT     CODE           ?PR?I2C_GETMASTERBUSYFLAG?I2C
001D77H   001D80H   00000AH   BYTE   UNIT     CODE           ?PR?I2C_GETI2CBUSBUSYFLAG?I2C
001D81H   001D8AH   00000AH   BYTE   UNIT     CODE           ?PR?I2C_GETMASTERIDLEFLAG?I2C
001D8BH   001D94H   00000AH   BYTE   UNIT     CODE           ?PR?I2C_GETMASTERINTFLAG?I2C
001D95H   001D9EH   00000AH   BYTE   UNIT     CODE           ?PR?SPI_GETTRANSFERINTFLAG?SPI
001D9FH   001DA8H   00000AH   BYTE   UNIT     CODE           ?PR?SPI_GETWRITEERRORINTFLAG?SPI
001DA9H   001DB2H   00000AH   BYTE   UNIT     CODE           ?PR?SYS_GETWDTRESETFLAG?SYSTEM
001DB3H   001DBCH   00000AH   BYTE   UNIT     CODE           ?PR?SYS_GETPOWERONRESETFLAG?SYSTEM
001DBDH   001DC6H   00000AH   BYTE   UNIT     CODE           ?PR?TMR2_GETOVERFLOWINTFLAG?TIMER
001DC7H   001DD0H   00000AH   BYTE   UNIT     CODE           ?PR?TMR2_GETT2EXINTFLAG?TIMER
001DD1H   001DDAH   00000AH   BYTE   UNIT     CODE           ?PR?TMR2_START?TIMER
001DDBH   001DE4H   00000AH   BYTE   UNIT     CODE           ?PR?WDT_GETOVERFLOWINTFLAG?WDT
001DE5H   001DEEH   00000AH   BYTE   UNIT     CODE           ?CO?TEST_LED
001DEFH   001DF7H   000009H   BYTE   UNIT     CODE           ?PR?_UART_CONFIGBRTPERIOD?UART
001DF8H   001DFFH   000008H   BYTE   UNIT     CODE           ?PR?UART_ENABLEBRT?UART
001E00H   001E07H   000008H   BYTE   UNIT     CODE           ?PR?UART_DISABLEBRT?UART
001E08H   001E0FH   000008H   BYTE   UNIT     CODE           ?PR?ADC_ENABLELDO?ADC
001E10H   001E17H   000008H   BYTE   UNIT     CODE           ?PR?ADC_DISABLELDO?ADC
001E18H   001E1FH   000008H   BYTE   UNIT     CODE           ?PR?EPWM_DISABLEFAULTBRAKEINT?EPWM
001E20H   001E27H   000008H   BYTE   UNIT     CODE           ?PR?EPWM_CLEARFAULTBRAKEINTFLAG?EPWM
001E28H   001E2FH   000008H   BYTE   UNIT     CODE           ?PR?EPWM_TRIGSOFTWAREBRAKE?EPWM
001E30H   001E37H   000008H   BYTE   UNIT     CODE           ?PR?EPWM_DISABLESOFTWAREBRAKE?EPWM
001E38H   001E3FH   000008H   BYTE   UNIT     CODE           ?PR?LSE_ENABLELSE?LSE
001E40H   001E47H   000008H   BYTE   UNIT     CODE           ?PR?LSE_DISABLELSE?LSE
001E48H   001E4FH   000008H   BYTE   UNIT     CODE           ?PR?LSE_START?LSE
001E50H   001E57H   000008H   BYTE   UNIT     CODE           ?PR?LSE_STOP?LSE
001E58H   001E5FH   000008H   BYTE   UNIT     CODE           ?PR?LSE_ENABLELSEWAKEUP?LSE
001E60H   001E67H   000008H   BYTE   UNIT     CODE           ?PR?LSE_DISABLELSEWAKEUP?LSE
001E68H   001E6FH   000008H   BYTE   UNIT     CODE           ?PR?LSE_ENABLELSEINT?LSE
001E70H   001E77H   000008H   BYTE   UNIT     CODE           ?PR?LSE_DISABLELSEINT?LSE
001E78H   001E7FH   000008H   BYTE   UNIT     CODE           ?PR?LSE_CLEARLSEINTFLAG?LSE
001E80H   001E87H   000008H   BYTE   UNIT     CODE           ?PR?PGA_ENABLEOUTPUT?PGA
001E88H   001E8FH   000008H   BYTE   UNIT     CODE           ?PR?PGA_DISABLEOUTPUT?PGA
001E90H   001E97H   000008H   BYTE   UNIT     CODE           ?PR?PGA_ENABLESHA?PGA
001E98H   001E9FH   000008H   BYTE   UNIT     CODE           ?PR?PGA_DISABLESHA?PGA
001EA0H   001EA7H   000008H   BYTE   UNIT     CODE           ?PR?PGA_START?PGA
001EA8H   001EAFH   000008H   BYTE   UNIT     CODE           ?PR?PGA_STOP?PGA
001EB0H   001EB7H   000008H   BYTE   UNIT     CODE           ?PR?SYS_ENABLELVD?SYSTEM
001EB8H   001EBFH   000008H   BYTE   UNIT     CODE           ?PR?SYS_DISABLELVD?SYSTEM
001EC0H   001EC7H   000008H   BYTE   UNIT     CODE           ?PR?SYS_ENABLELVDINT?SYSTEM
001EC8H   001ECFH   000008H   BYTE   UNIT     CODE           ?PR?SYS_DISABLELVDINT?SYSTEM
001ED0H   001ED7H   000008H   BYTE   UNIT     CODE           ?PR?SYS_CLEARLVDINTFLAG?SYSTEM
001ED8H   001EDEH   000007H   BYTE   UNIT     CODE           ?C_INITSEG
001EDFH   001EE5H   000007H   BYTE   UNIT     CODE           ?PR?_EPWM_ENABLEAUTOLOADMODE?EPWM
001EE6H   001EECH   000007H   BYTE   UNIT     CODE           ?PR?_EPWM_START?EPWM
LX51 LINKER/LOCATER V4.66.1.0                                                         09/07/2023  18:22:32  PAGE 7


001EEDH   001EF3H   000007H   BYTE   UNIT     CODE           ?PR?_EPWM_ENABLEOUTPUT?EPWM
001EF4H   001EFAH   000007H   BYTE   UNIT     CODE           ?PR?_EPWM_ENABLEUPCMPINT?EPWM
001EFBH   001F01H   000007H   BYTE   UNIT     CODE           ?PR?_EPWM_ENABLEDOWNCMPINT?EPWM
001F02H   001F08H   000007H   BYTE   UNIT     CODE           ?PR?_EPWM_ENABLEPERIODINT?EPWM
001F09H   001F0FH   000007H   BYTE   UNIT     CODE           ?PR?_EPWM_ENABLEZEROINT?EPWM
001F10H   001F16H   000007H   BYTE   UNIT     CODE           ?PR?_EPWM_ENABLEREVERSEOUTPUT?EPWM
001F17H   001F1CH   000006H   BYTE   UNIT     CODE           ?PR?_EPWM_CONFIGRUNMODE?EPWM
001F1DH   001F22H   000006H   BYTE   UNIT     CODE           ?PR?I2C_ENABLEMASTERMODE?I2C
001F23H   001F28H   000006H   BYTE   UNIT     CODE           ?PR?LAMP_RUN?BREATHING_LAMP
001F29H   001F2CH   000004H   BYTE   UNIT     CODE           ?PR?SPI_START?SPI
001F2DH   001F30H   000004H   BYTE   UNIT     CODE           ?PR?SPI_STOP?SPI
001F31H   001F34H   000004H   BYTE   UNIT     CODE           ?PR?SPI_ENABLEMASTERMODE?SPI
001F35H   001F38H   000004H   BYTE   UNIT     CODE           ?PR?SPI_DISABLEMASTERMODE?SPI
001F39H   001F3CH   000004H   BYTE   UNIT     CODE           ?PR?SPI_ENABLESLAVEMODE?SPI
001F3DH   001F40H   000004H   BYTE   UNIT     CODE           ?PR?SPI_DISABLESLAVEMODE?SPI
001F41H   001F44H   000004H   BYTE   UNIT     CODE           ?PR?SPI_ENABLEINTFLAG?SPI
001F45H   001F48H   000004H   BYTE   UNIT     CODE           ?PR?SPI_DISABLEINTFLAG?SPI
001F49H   001F4CH   000004H   BYTE   UNIT     CODE           ?PR?SYS_CLEARPOWERONRESETFLAG?SYSTEM
001F4DH   001F50H   000004H   BYTE   UNIT     CODE           ?PR?SYS_ENABLEWAKEUP?SYSTEM
001F51H   001F54H   000004H   BYTE   UNIT     CODE           ?PR?SYS_DISABLEWAKEUP?SYSTEM
001F55H   001F58H   000004H   BYTE   UNIT     CODE           ?PR?SYS_ENABLEWAKEUPTRIG?SYSTEM
001F59H   001F5CH   000004H   BYTE   UNIT     CODE           ?PR?SYS_DISABLEWAKEUPTRIG?SYSTEM
001F5DH   001F60H   000004H   BYTE   UNIT     CODE           ?PR?TMR2_ENABLEGATE?TIMER
001F61H   001F64H   000004H   BYTE   UNIT     CODE           ?PR?TMR2_ENABLEOVERFLOWINT?TIMER
001F65H   001F68H   000004H   BYTE   UNIT     CODE           ?PR?TMR2_DISABLEOVERFLOWINT?TIMER
001F69H   001F6CH   000004H   BYTE   UNIT     CODE           ?PR?TMR2_CLEAROVERFLOWINTFLAG?TIMER
001F6DH   001F70H   000004H   BYTE   UNIT     CODE           ?PR?TMR2_ENABLET2EXINT?TIMER
001F71H   001F74H   000004H   BYTE   UNIT     CODE           ?PR?TMR2_DISABLET2EXINT?TIMER
001F75H   001F78H   000004H   BYTE   UNIT     CODE           ?PR?TMR2_CLEART2EXINTFLAG?TIMER
001F79H   001F7CH   000004H   BYTE   UNIT     CODE           ?PR?TMR2_STOP?TIMER
001F7DH   001F80H   000004H   BYTE   UNIT     CODE           ?PR?WDT_ENABLEOVERFLOWINT?WDT
001F81H   001F84H   000004H   BYTE   UNIT     CODE           ?PR?WDT_DISABLEOVERFLOWINT?WDT
001F85H   001F87H   000003H   BYTE   UNIT     CODE           ?PR?INT0_IRQHANDLER?ISR
001F88H   001F8AH   000003H   BYTE   UNIT     CODE           ?PR?_I2C_CONFIGCLK?I2C
001F8BH   001F8DH   000003H   BYTE   UNIT     CODE           ?PR?TMR2_ALLINTENABLE?TIMER
001F8EH   001F90H   000003H   BYTE   UNIT     CODE           ?PR?TMR2_ALLINTDISABLE?TIMER
001F91H   001F91H   000001H   BYTE   UNIT     CODE           ?PR?WDT_IRQHANDLER?ISR
001F92H   001F92H   000001H   BYTE   UNIT     CODE           ?PR?I2C_IRQHANDLER?ISR
001F93H   001F93H   000001H   BYTE   UNIT     CODE           ?PR?SPI_IRQHANDLER?ISR
001F94H   001F94H   000001H   BYTE   UNIT     CODE           ?PR?I2C_DISABLEMASTERMODE?I2C



OVERLAY MAP OF MODULE:   .\Objects\project (MAIN)


FUNCTION/MODULE                          BIT_GROUP   DATA_GROUP 
--> CALLED FUNCTION/MODULE              START  STOP  START  STOP
================================================================
INT0_IRQHANDLER/ISR                     ----- -----  ----- -----

*** NEW ROOT **************************

TIMER0_IRQHANDLER/ISR                   ----- -----  ----- -----

*** NEW ROOT **************************

INT1_IRQHANDLER/ISR                     ----- -----  ----- -----

*** NEW ROOT **************************

TIMER1_IRQHANDLER/ISR                   ----- -----  ----- -----

*** NEW ROOT **************************

LX51 LINKER/LOCATER V4.66.1.0                                                         09/07/2023  18:22:32  PAGE 8


UART0_IRQHANDLER/ISR                    ----- -----  ----- -----
  +--> _UART_GETSENDINTFLAG/UART
  +--> _UART_CLEARSENDINTFLAG/UART
  +--> _UART_GETRECEIVEINTFLAG/UART
  +--> _UART_GETBUFF/UART
  +--> _UART_SENDBUFF/UART
  +--> _UART_CLEARRECEIVEINTFLAG/UART

_UART_GETSENDINTFLAG/UART               ----- -----  ----- -----

_UART_CLEARSENDINTFLAG/UART             ----- -----  ----- -----

_UART_GETRECEIVEINTFLAG/UART            ----- -----  ----- -----

_UART_GETBUFF/UART                      ----- -----  ----- -----

_UART_SENDBUFF/UART                     ----- -----  ----- -----

_UART_CLEARRECEIVEINTFLAG/UART          ----- -----  ----- -----

*** NEW ROOT **************************

TIMER2_IRQHANDLER/ISR                   ----- -----  ----- -----

*** NEW ROOT **************************

UART1_IRQHANDLER/ISR                    ----- -----  ----- -----

*** NEW ROOT **************************

P0EI_IRQHANDLER/ISR                     ----- -----  ----- -----

*** NEW ROOT **************************

P1EI_IRQHANDLER/ISR                     ----- -----  ----- -----

*** NEW ROOT **************************

P2EI_IRQHANDLER/ISR                     ----- -----  ----- -----

*** NEW ROOT **************************

P3EI_IRQHANDLER/ISR                     ----- -----  ----- -----

*** NEW ROOT **************************

LVD_IRQHANDLER/ISR                      ----- -----  ----- -----

*** NEW ROOT **************************

LSE_IRQHANDLER/ISR                      ----- -----  ----- -----

*** NEW ROOT **************************

ACMP_IRQHANDLER/ISR                     ----- -----  ----- -----

*** NEW ROOT **************************

TIMER3_IRQHANDLER/ISR                   ----- -----  ----- -----

*** NEW ROOT **************************

TIMER4_IRQHANDLER/ISR                   ----- -----  ----- -----

*** NEW ROOT **************************
LX51 LINKER/LOCATER V4.66.1.0                                                         09/07/2023  18:22:32  PAGE 9



EPWM_IRQHANDLER/ISR                     ----- -----  ----- -----

*** NEW ROOT **************************

ADC_IRQHANDLER/ISR                      ----- -----  ----- -----

*** NEW ROOT **************************

WDT_IRQHANDLER/ISR                      ----- -----  ----- -----

*** NEW ROOT **************************

I2C_IRQHANDLER/ISR                      ----- -----  ----- -----

*** NEW ROOT **************************

SPI_IRQHANDLER/ISR                      ----- -----  ----- -----

*** NEW ROOT **************************

?C_C51STARTUP                           ----- -----  ----- -----
  +--> MAIN/MAIN
  +--> ?C_INITSEG

MAIN/MAIN                               ----- -----  ----- -----
  +--> _UART_CONFIG/TEST_UART
  +--> LAMP_RUN/BREATHING_LAMP

_UART_CONFIG/TEST_UART                  ----- -----  002DH 0031H
  +--> _UART_CONFIGRUNMODE/UART
  +--> _UART_ENABLERECEIVE/UART
  +--> _UART_CONFIGBRTCLK/UART
  +--> _UART_ENABLEDOUBLEFREQUENCY/UART
  +--> _UART_CONFIGBRTPERIOD/UART
  +--> UART_ENABLEBRT/UART

_UART_CONFIGRUNMODE/UART                ----- -----  ----- -----

_UART_ENABLERECEIVE/UART                ----- -----  ----- -----

_UART_CONFIGBRTCLK/UART                 ----- -----  ----- -----

_UART_ENABLEDOUBLEFREQUENCY/UART        ----- -----  ----- -----

_UART_CONFIGBRTPERIOD/UART              ----- -----  ----- -----

UART_ENABLEBRT/UART                     ----- -----  ----- -----

LAMP_RUN/BREATHING_LAMP                 ----- -----  ----- -----
  +--> EPWM_CONFIG/BREATHING_LAMP
  +--> IO_CONFIG/BREATHING_LAMP

EPWM_CONFIG/BREATHING_LAMP              ----- -----  ----- -----
  +--> _EPWM_CONFIGRUNMODE/EPWM
  +--> _EPWM_CONFIGCHANNELCLK/EPWM
  +--> _EPWM_CONFIGCHANNELPERIOD/EPWM
  +--> _EPWM_CONFIGCHANNELSYMDUTY/EPWM
  +--> _EPWM_ENABLEAUTOLOADMODE/EPWM
  +--> _EPWM_DISABLEREVERSEOUTPUT/EPWM
  +--> _EPWM_ENABLEOUTPUT/EPWM
  +--> _EPWM_DISABLEDEADZONE/EPWM
  +--> _EPWM_ENABLEZEROINT/EPWM
  +--> EPWM_ALLINTENABLE/EPWM
  +--> _EPWM_START/EPWM
LX51 LINKER/LOCATER V4.66.1.0                                                         09/07/2023  18:22:32  PAGE 10



_EPWM_CONFIGRUNMODE/EPWM                ----- -----  ----- -----

_EPWM_CONFIGCHANNELCLK/EPWM             ----- -----  ----- -----

_EPWM_CONFIGCHANNELPERIOD/EPWM          ----- -----  ----- -----

_EPWM_CONFIGCHANNELSYMDUTY/EPWM         ----- -----  ----- -----

_EPWM_ENABLEAUTOLOADMODE/EPWM           ----- -----  ----- -----

_EPWM_DISABLEREVERSEOUTPUT/EPWM         ----- -----  ----- -----

_EPWM_ENABLEOUTPUT/EPWM                 ----- -----  ----- -----

_EPWM_DISABLEDEADZONE/EPWM              ----- -----  ----- -----

_EPWM_ENABLEZEROINT/EPWM                ----- -----  ----- -----

EPWM_ALLINTENABLE/EPWM                  ----- -----  ----- -----

_EPWM_START/EPWM                        ----- -----  ----- -----

IO_CONFIG/BREATHING_LAMP                ----- -----  ----- -----

?C_INITSEG                              ----- -----  ----- -----



PUBLIC SYMBOLS OF MODULE:  .\Objects\project (MAIN)


      VALUE       CLASS    TYPE      PUBLIC SYMBOL NAME
      =================================================
      00000022H   DATA     BYTE      ?_ACMP_GetOffsetAdjValue?BYTE
      00000008H   DATA     ---       ?_PRINTF517?BYTE
      00000008H   DATA     ---       ?_PRINTF?BYTE
      00000008H   DATA     ---       ?_SPRINTF517?BYTE
      00000008H   DATA     ---       ?_SPRINTF?BYTE
      00000028H   DATA     BYTE      ?_UART_ConfigBaudRate?BYTE
      0100096FH   CODE     ---       ?C?CCASE
      01000920H   CODE     ---       ?C?CLDOPTR
      01000907H   CODE     ---       ?C?CLDPTR
      00000000H   NUMBER   ---       ?C?CODESEG
      0100094DH   CODE     ---       ?C?CSTPTR
      0100095FH   CODE     ---       ?C?PLDIIDATA
      00000000H   NUMBER   ---       ?C?XDATASEG
      010008C2H   CODE     ---       ?C_START
      01000000H   CODE     ---       ?C_STARTUP
      010019CAH   CODE     ---       _ACMP_ClearIntFlag
      01000C12H   CODE     ---       _ACMP_ConfigNegative
      01001066H   CODE     ---       _ACMP_ConfigOffsetAdj
      01001408H   CODE     ---       _ACMP_ConfigPositive
      0100189AH   CODE     ---       _ACMP_DisableFilter
      010018D9H   CODE     ---       _ACMP_DisableHYS
      01001957H   CODE     ---       _ACMP_DisableInt
      01001885H   CODE     ---       _ACMP_DisableReverseOutput
      0100135AH   CODE     ---       _ACMP_EnableACMPBrake
      010012ECH   CODE     ---       _ACMP_EnableFilter
      0100121BH   CODE     ---       _ACMP_EnableHYS
      0100197FH   CODE     ---       _ACMP_EnableInt
      01001870H   CODE     ---       _ACMP_EnableReverseOutput
      01001992H   CODE     ---       _ACMP_GetIntFlag
      01000412H   CODE     ---       _ACMP_GetOffsetAdjValue
      0100137DH   CODE     ---       _ACMP_GetResult
LX51 LINKER/LOCATER V4.66.1.0                                                         09/07/2023  18:22:32  PAGE 11


      010018AFH   CODE     ---       _ACMP_Start
      010018C4H   CODE     ---       _ACMP_Stop
      01001CCEH   CODE     ---       _ADC_ConfigADCBrake
      01001AD8H   CODE     ---       _ADC_ConfigADCVref
      01001A61H   CODE     ---       _ADC_ConfigAN31
      010019A5H   CODE     ---       _ADC_ConfigCompareValue
      010018EEH   CODE     ---       _ADC_ConfigHardwareTrig
      01001815H   CODE     ---       _ADC_ConfigRunMode
      0100159FH   CODE     ---       _ADC_EnableChannel
      01001A70H   CODE     ---       _ADC_SetTrigDelayTime
      01001B70H   CODE     ---       _BUZ_ConfigBuzzer
      010011C0H   CODE     ---       _delay_ms
      010019ECH   CODE     ---       _EPWM_ClearDownCmpIntFlag
      010019FDH   CODE     ---       _EPWM_ClearPeriodIntFlag
      010019DBH   CODE     ---       _EPWM_ClearUpCmpIntFlag
      01001A0EH   CODE     ---       _EPWM_ClearZeroIntFlag
      010007ABH   CODE     ---       _EPWM_ConfigChannelAsymDuty
      010019B8H   CODE     ---       _EPWM_ConfigChannelBrakeLevel
      01000DABH   CODE     ---       _EPWM_ConfigChannelClk
      01000A19H   CODE     ---       _EPWM_ConfigChannelPeriod
      01000A99H   CODE     ---       _EPWM_ConfigChannelSymDuty
      01001AE6H   CODE     ---       _EPWM_ConfigFBBrake
      01001F17H   CODE     ---       _EPWM_ConfigRunMode
      010011EFH   CODE     ---       _EPWM_DisableDeadZone
      01001BF9H   CODE     ---       _EPWM_DisableDownCmpInt
      01001246H   CODE     ---       _EPWM_DisableFaultBrake
      01001BE1H   CODE     ---       _EPWM_DisableMaskControl
      01001BD5H   CODE     ---       _EPWM_DisableOutput
      01001C05H   CODE     ---       _EPWM_DisablePeriodInt
      01001C35H   CODE     ---       _EPWM_DisableReverseOutput
      01001BEDH   CODE     ---       _EPWM_DisableUpCmpInt
      01001C11H   CODE     ---       _EPWM_DisableZeroInt
      01001EDFH   CODE     ---       _EPWM_EnableAutoLoadMode
      01000FF5H   CODE     ---       _EPWM_EnableDeadZone
      01001EFBH   CODE     ---       _EPWM_EnableDownCmpInt
      0100102EH   CODE     ---       _EPWM_EnableFaultBrake
      010017B1H   CODE     ---       _EPWM_EnableMaskControl
      01001BBDH   CODE     ---       _EPWM_EnableOneShotMode
      01001EEDH   CODE     ---       _EPWM_EnableOutput
      01001F02H   CODE     ---       _EPWM_EnablePeriodInt
      01001F10H   CODE     ---       _EPWM_EnableReverseOutput
      01001EF4H   CODE     ---       _EPWM_EnableUpCmpInt
      01001F09H   CODE     ---       _EPWM_EnableZeroInt
      010014A7H   CODE     ---       _EPWM_GetDownCmpIntFlag
      010014C6H   CODE     ---       _EPWM_GetPeriodIntFlag
      01001488H   CODE     ---       _EPWM_GetUpCmpIntFlag
      010014E5H   CODE     ---       _EPWM_GetZeroIntFlag
      01001EE6H   CODE     ---       _EPWM_Start
      01001BC9H   CODE     ---       _EPWM_Stop
      01001CEFH   CODE     ---       _EXTINT_ClearIntFlag
      010016D9H   CODE     ---       _EXTINT_ConfigInt
      01001CE4H   CODE     ---       _EXTINT_DisableInt
      01001CD9H   CODE     ---       _EXTINT_EnableInt
      01001504H   CODE     ---       _EXTINT_GetIntFlag
      01001162H   CODE     ---       _FLASH_Erase
      010010FFH   CODE     ---       _FLASH_Read
      01001131H   CODE     ---       _FLASH_Write
      01000E5FH   CODE     ---       _GPIO_ClearIntFlag
      01000609H   CODE     ---       _GPIO_ConfigGPIOMode
      010013E6H   CODE     ---       _GPIO_DisableInt
      010015BDH   CODE     ---       _GPIO_EnableInt
      01000E07H   CODE     ---       _GPIO_GetIntFlag
      01001F88H   CODE     ---       _I2C_ConfigCLK
      01001B7DH   CODE     ---       _LSE_ConfigLSE
      0100129AH   CODE     ---       _OPA_ConfigNegative
LX51 LINKER/LOCATER V4.66.1.0                                                         09/07/2023  18:22:32  PAGE 12


      01001191H   CODE     ---       _OPA_ConfigOffsetAdj
      01001429H   CODE     ---       _OPA_ConfigPositive
      01001918H   CODE     ---       _OPA_DisableOutput
      01001903H   CODE     ---       _OPA_EnableOutput
      010006E7H   CODE     ---       _OPA_GetOffsetAdjValue
      010013A0H   CODE     ---       _OPA_GetResult
      01001271H   CODE     ---       _OPA_SetRunMode
      0100192DH   CODE     ---       _OPA_Start
      01001942H   CODE     ---       _OPA_Stop
      01001A1FH   CODE     ---       _PGA_ConfigGain
      01001AF4H   CODE     ---       _PGA_ConfigInput
      01001A30H   CODE     ---       _PGA_ConfigOffsetAdj
      01001B02H   CODE     ---       _PGA_ConfigSampleTime
      010017CAH   CODE     ---       _PGA_EnableNormalMode
      01000C81H   CODE     ---       _PGA_GetOffsetAdjValue
      01000118H   CODE     ---       _PRINTF
      01000118H   CODE     ---       _PRINTF517
      01001BA4H   CODE     ---       _putchar
      0100185AH   CODE     ---       _puts
      01001CFAH   CODE     ---       _SPI_ConfigClk
      01001844H   CODE     ---       _SPI_ConfigRunMode
      01000112H   CODE     ---       _SPRINTF
      01000112H   CODE     ---       _SPRINTF517
      01001B10H   CODE     ---       _SYS_ConfigLVD
      01001B1EH   CODE     ---       _SYS_ConfigWUTCLK
      01001A41H   CODE     ---       _SYS_ConfigWUTTime
      01001AACH   CODE     ---       _TMR2_ClearCaptureIntFlag
      01001A8EH   CODE     ---       _TMR2_ClearCompareIntFlag
      01001D1BH   CODE     ---       _TMR2_ConfigCompareIntMode
      01001580H   CODE     ---       _TMR2_ConfigCompareValue
      01001CA1H   CODE     ---       _TMR2_ConfigRunMode
      01001D05H   CODE     ---       _TMR2_ConfigTimerClk
      01001561H   CODE     ---       _TMR2_ConfigTimerPeriod
      010017FCH   CODE     ---       _TMR2_DisableCapture
      01001A9DH   CODE     ---       _TMR2_DisableCaptureInt
      010017E3H   CODE     ---       _TMR2_DisableCompare
      01001A7FH   CODE     ---       _TMR2_DisableCompareInt
      01000B97H   CODE     ---       _TMR2_EnableCapture
      01001B3AH   CODE     ---       _TMR2_EnableCaptureInt
      010010CCH   CODE     ---       _TMR2_EnableCompare
      01001B2CH   CODE     ---       _TMR2_EnableCompareInt
      01001687H   CODE     ---       _TMR2_GetCaptureIntFlag
      01000F7DH   CODE     ---       _TMR2_GetCaptureValue
      0100166BH   CODE     ---       _TMR2_GetCompareIntFlag
      01001615H   CODE     ---       _TMR_ClearOverflowIntFlag
      01000EABH   CODE     ---       _TMR_ConfigRunMode
      01000EF3H   CODE     ---       _TMR_ConfigTimerClk
      010013C3H   CODE     ---       _TMR_ConfigTimerPeriod
      01001B97H   CODE     ---       _TMR_DisableGATE
      010015F8H   CODE     ---       _TMR_DisableOverflowInt
      01001B8AH   CODE     ---       _TMR_EnableGATE
      010015DBH   CODE     ---       _TMR_EnableOverflowInt
      01000F39H   CODE     ---       _TMR_GetCountValue
      01001099H   CODE     ---       _TMR_GetOverflowIntFlag
      01001523H   CODE     ---       _TMR_Start
      01001542H   CODE     ---       _TMR_Stop
      010016A3H   CODE     ---       _UART_ClearReceiveIntFlag
      010016BEH   CODE     ---       _UART_ClearSendIntFlag
      01000FB9H   CODE     ---       _UART_Config
      01001BB1H   CODE     ---       _UART_ConfigBaudRate
      01001ACAH   CODE     ---       _UART_ConfigBRTClk
      01001DEFH   CODE     ---       _UART_ConfigBRTPeriod
      01000D4EH   CODE     ---       _UART_ConfigRunMode
      01000086H   CODE     ---       _UART_DisableDoubleFrequency
      01001CB8H   CODE     ---       _UART_DisableInt
LX51 LINKER/LOCATER V4.66.1.0                                                         09/07/2023  18:22:32  PAGE 13


      01001B63H   CODE     ---       _UART_DisableReceive
      01000056H   CODE     ---       _UART_EnableDoubleFrequency
      01001CADH   CODE     ---       _UART_EnableInt
      01001B56H   CODE     ---       _UART_EnableReceive
      01001A52H   CODE     ---       _UART_GetBuff
      0100182DH   CODE     ---       _UART_GetNinthBit
      0100144AH   CODE     ---       _UART_GetReceiveIntFlag
      01001469H   CODE     ---       _UART_GetSendIntFlag
      01000B19H   CODE     ---       _UART_ISR_Config
      01001CC3H   CODE     ---       _UART_SendBuff
      0100164FH   CODE     ---       _UART_SendNinthBit
      01001ABBH   CODE     ---       _WDT_ConfigOverflowTime
*SFR* 000000D0H.6 DATA     BIT       AC
*SFR* 000000E0H   DATA     BYTE      ACC
      01000082H   CODE     ---       ACMP_IRQHandler
      01000046H   CODE     ---       ADC_ClearIntFlag
      0100002EH   CODE     ---       ADC_DisableHardwareTrig
      0100003EH   CODE     ---       ADC_DisableInt
      01001E10H   CODE     ---       ADC_DisableLDO
      01000026H   CODE     ---       ADC_EnableHardwareTrig
      01000036H   CODE     ---       ADC_EnableInt
      01001E08H   CODE     ---       ADC_EnableLDO
      01001311H   CODE     ---       ADC_GetADCResult
      01001D3BH   CODE     ---       ADC_GetCmpResult
      01001D45H   CODE     ---       ADC_GetIntFlag
      010000B2H   CODE     ---       ADC_IRQHandler
      01000016H   CODE     ---       ADC_Start
      0100001EH   CODE     ---       ADC_Stop
*SFR* 000000D1H   DATA     BYTE      ADCMPC
*SFR* 000000D5H   DATA     BYTE      ADCMPH
*SFR* 000000D4H   DATA     BYTE      ADCMPL
*SFR* 000000DFH   DATA     BYTE      ADCON0
*SFR* 000000DEH   DATA     BYTE      ADCON1
*SFR* 000000E9H   DATA     BYTE      ADCON2
*SFR* 000000D3H   DATA     BYTE      ADDLYL
*SFR* 000000DDH   DATA     BYTE      ADRESH
*SFR* 000000DCH   DATA     BYTE      ADRESL
*SFR* 000000F0H   DATA     BYTE      B
      01000066H   CODE     ---       BUZ_DisableBuzzer
      0100004EH   CODE     ---       BUZ_EnableBuzzer
*SFR* 000000BFH   DATA     BYTE      BUZCON
*SFR* 000000BEH   DATA     BYTE      BUZDIV
*SFR* 000000C8H.5 DATA     BIT       CAPES
*SFR* 000000CEH   DATA     BYTE      CCEN
*SFR* 000000C3H   DATA     BYTE      CCH1
*SFR* 000000C5H   DATA     BYTE      CCH2
*SFR* 000000C7H   DATA     BYTE      CCH3
*SFR* 000000C2H   DATA     BYTE      CCL1
*SFR* 000000C4H   DATA     BYTE      CCL2
*SFR* 000000C6H   DATA     BYTE      CCL3
*SFR* 0000008EH   DATA     BYTE      CKCON
*SFR* 0000008FH   DATA     BYTE      CLKDIV
*SFR* 000000D0H.7 DATA     BIT       CY
*SFR* 00000083H   DATA     BYTE      DPH0
*SFR* 00000085H   DATA     BYTE      DPH1
*SFR* 00000082H   DATA     BYTE      DPL0
*SFR* 00000084H   DATA     BYTE      DPL1
*SFR* 00000086H   DATA     BYTE      DPS
*SFR* 00000093H   DATA     BYTE      DPX0
*SFR* 00000095H   DATA     BYTE      DPX1
*SFR* 000000A8H.7 DATA     BIT       EA
*SFR* 000000AAH   DATA     BYTE      EIE2
*SFR* 000000B2H   DATA     BYTE      EIF2
*SFR* 000000B9H   DATA     BYTE      EIP1
*SFR* 000000BAH   DATA     BYTE      EIP2
LX51 LINKER/LOCATER V4.66.1.0                                                         09/07/2023  18:22:32  PAGE 14


      01000076H   CODE     ---       EPWM_AllIntDisable
      0100006EH   CODE     ---       EPWM_AllIntEnable
      01001E20H   CODE     ---       EPWM_ClearFaultBrakeIntFlag
      01000995H   CODE     ---       EPWM_Config
      01001E18H   CODE     ---       EPWM_DisableFaultBrakeInt
      01001E30H   CODE     ---       EPWM_DisableSoftwareBrake
      01001C1DH   CODE     ---       EPWM_EnableFaultBrakeInt
      01001C29H   CODE     ---       EPWM_GetFaultBrakeIntFlag
      010000AAH   CODE     ---       EPWM_IRQHandler
      01001E28H   CODE     ---       EPWM_TrigSoftwareBrake
*SFR* 000000A8H.4 DATA     BIT       ES0
*SFR* 000000A8H.6 DATA     BIT       ES1
*SFR* 000000A8H.1 DATA     BIT       ET0
*SFR* 000000A8H.3 DATA     BIT       ET1
*SFR* 000000A8H.5 DATA     BIT       ET2
*SFR* 000000A8H   DATA     BIT       EX0
*SFR* 000000A8H.2 DATA     BIT       EX1
*SFR* 000000D0H.5 DATA     BIT       F0
      01000096H   CODE     ---       FLASH_Lock
      0100007EH   CODE     ---       FLASH_UnLock
*SFR* 00000091H   DATA     BYTE      FUNCCR
      01001D26H   CODE     ---       getchar
      01001B48H   CODE     ---       GPIO_Config
      010000AEH   CODE     ---       I2C_ClearMasterIntFlag
      010000A6H   CODE     ---       I2C_DisableInt
      01001F94H   CODE     ---       I2C_DisableMasterMode
      0100009EH   CODE     ---       I2C_EnableInt
      01001F1DH   CODE     ---       I2C_EnableMasterMode
      01001D59H   CODE     ---       I2C_GetBusArbitrationFlag
      01001D77H   CODE     ---       I2C_GetI2CBusBusyFlag
      01001D6DH   CODE     ---       I2C_GetMasterBusyFlag
      01001D63H   CODE     ---       I2C_GetMasterErrorFlag
      01001D81H   CODE     ---       I2C_GetMasterIdleFlag
      01001D8BH   CODE     ---       I2C_GetMasterIntFlag
      01001D4FH   CODE     ---       I2C_GetMasterSendAddrFlag
      01001F92H   CODE     ---       I2C_IRQHandler
*SFR* 000000F6H   DATA     BYTE      I2CMBUF
*SFR* 000000F5H   DATA     BYTE      I2CMCR
*SFR* 000000F4H   DATA     BYTE      I2CMSA
*SFR* 000000F5H   DATA     BYTE      I2CMSR
*SFR* 000000F7H   DATA     BYTE      I2CMTP
*SFR* 000000F1H   DATA     BYTE      I2CSADR
*SFR* 000000F3H   DATA     BYTE      I2CSBUF
*SFR* 000000F2H   DATA     BYTE      I2CSCR
*SFR* 000000F2H   DATA     BYTE      I2CSSR
*SFR* 000000C8H.6 DATA     BIT       I3FR
*SFR* 000000A8H   DATA     BYTE      IE
*SFR* 00000088H.1 DATA     BIT       IE0
*SFR* 00000088H.3 DATA     BIT       IE1
      01001F85H   CODE     ---       INT0_IRQHandler
      01000022H   CODE     ---       INT1_IRQHandler
      01001632H   CODE     ---       IO_Config
*SFR* 000000B8H   DATA     BYTE      IP
*SFR* 00000088H   DATA     BIT       IT0
*SFR* 00000088H.2 DATA     BIT       IT1
      01001F23H   CODE     ---       Lamp_Run
      01001336H   CODE     ---       LED_Run
      01001E78H   CODE     ---       LSE_ClearLSEIntFlag
      01001E40H   CODE     ---       LSE_DisableLSE
      01001E70H   CODE     ---       LSE_DisableLSEInt
      01001E60H   CODE     ---       LSE_DisableLSEWakeup
      01001E38H   CODE     ---       LSE_EnableLSE
      01001E68H   CODE     ---       LSE_EnableLSEInt
      01001E58H   CODE     ---       LSE_EnableLSEWakeup
      01001C41H   CODE     ---       LSE_GetLSEIntFlag
LX51 LINKER/LOCATER V4.66.1.0                                                         09/07/2023  18:22:32  PAGE 15


      01001C4DH   CODE     ---       LSE_GetLSEState
      0100007AH   CODE     ---       LSE_IRQHandler
      01001E48H   CODE     ---       LSE_Start
      01001E50H   CODE     ---       LSE_Stop
      01000072H   CODE     ---       LVD_IRQHandler
*SFR* 000000FDH   DATA     BYTE      MADRH
*SFR* 000000FCH   DATA     BYTE      MADRL
      01001D31H   CODE     ---       main
*SFR* 000000FFH   DATA     BYTE      MCTRL
*SFR* 000000FEH   DATA     BYTE      MDATA
*SFR* 000000FBH   DATA     BYTE      MLOCK
*SFR* 000000D0H.2 DATA     BIT       OV
*SFR* 000000D0H   DATA     BIT       P
*SFR* 00000080H   DATA     BYTE      P0
*SFR* 00000080H   DATA     BIT       P00
*SFR* 00000080H.1 DATA     BIT       P01
*SFR* 00000080H.2 DATA     BIT       P02
*SFR* 00000080H.3 DATA     BIT       P03
*SFR* 00000080H.4 DATA     BIT       P04
*SFR* 00000080H.5 DATA     BIT       P05
*SFR* 00000080H.6 DATA     BIT       P06
*SFR* 00000080H.7 DATA     BIT       P07
      01000042H   CODE     ---       P0EI_IRQHandler
*SFR* 000000ACH   DATA     BYTE      P0EXTIE
*SFR* 000000B4H   DATA     BYTE      P0EXTIF
*SFR* 0000009AH   DATA     BYTE      P0TRIS
*SFR* 00000090H   DATA     BYTE      P1
*SFR* 00000090H   DATA     BIT       P10
*SFR* 00000090H.1 DATA     BIT       P11
*SFR* 00000090H.2 DATA     BIT       P12
*SFR* 00000090H.3 DATA     BIT       P13
*SFR* 00000090H.4 DATA     BIT       P14
*SFR* 00000090H.5 DATA     BIT       P15
*SFR* 00000090H.6 DATA     BIT       P16
*SFR* 00000090H.7 DATA     BIT       P17
      0100004AH   CODE     ---       P1EI_IRQHandler
*SFR* 000000ADH   DATA     BYTE      P1EXTIE
*SFR* 000000B5H   DATA     BYTE      P1EXTIF
*SFR* 000000A1H   DATA     BYTE      P1TRIS
*SFR* 000000A0H   DATA     BYTE      P2
*SFR* 000000A0H   DATA     BIT       P20
*SFR* 000000A0H.1 DATA     BIT       P21
*SFR* 000000A0H.2 DATA     BIT       P22
*SFR* 000000A0H.3 DATA     BIT       P23
*SFR* 000000A0H.4 DATA     BIT       P24
*SFR* 000000A0H.5 DATA     BIT       P25
*SFR* 000000A0H.6 DATA     BIT       P26
*SFR* 000000A0H.7 DATA     BIT       P27
      01000052H   CODE     ---       P2EI_IRQHandler
*SFR* 000000AEH   DATA     BYTE      P2EXTIE
*SFR* 000000B6H   DATA     BYTE      P2EXTIF
*SFR* 000000A2H   DATA     BYTE      P2TRIS
*SFR* 000000B0H   DATA     BYTE      P3
*SFR* 000000B0H   DATA     BIT       P30
*SFR* 000000B0H.1 DATA     BIT       P31
*SFR* 000000B0H.2 DATA     BIT       P32
*SFR* 000000B0H.3 DATA     BIT       P33
*SFR* 000000B0H.4 DATA     BIT       P34
*SFR* 000000B0H.5 DATA     BIT       P35
*SFR* 000000B0H.6 DATA     BIT       P36
*SFR* 000000B0H.7 DATA     BIT       P37
      0100006AH   CODE     ---       P3EI_IRQHandler
*SFR* 000000AFH   DATA     BYTE      P3EXTIE
*SFR* 000000B7H   DATA     BYTE      P3EXTIF
*SFR* 000000A3H   DATA     BYTE      P3TRIS
LX51 LINKER/LOCATER V4.66.1.0                                                         09/07/2023  18:22:32  PAGE 16


*SFR* 00000087H   DATA     BYTE      PCON
      01001E88H   CODE     ---       PGA_DisableOutput
      01001E98H   CODE     ---       PGA_DisableSHA
      01001E80H   CODE     ---       PGA_EnableOutput
      01001E90H   CODE     ---       PGA_EnableSHA
      01001EA0H   CODE     ---       PGA_Start
      01001EA8H   CODE     ---       PGA_Stop
*SFR* 000000B8H.4 DATA     BIT       PS0
*SFR* 000000B8H.6 DATA     BIT       PS1
*SFR* 000000D0H   DATA     BYTE      PSW
*SFR* 000000B8H.1 DATA     BIT       PT0
*SFR* 000000B8H.3 DATA     BIT       PT1
*SFR* 000000B8H.5 DATA     BIT       PT2
*SFR* 000000B8H   DATA     BIT       PX0
*SFR* 000000B8H.2 DATA     BIT       PX1
*SFR* 00000098H   DATA     BIT       RI0
*SFR* 000000CBH   DATA     BYTE      RLDH
*SFR* 000000CAH   DATA     BYTE      RLDL
*SFR* 000000D0H.3 DATA     BIT       RS0
*SFR* 000000D0H.4 DATA     BIT       RS1
*SFR* 00000099H   DATA     BYTE      SBUF
*SFR* 00000099H   DATA     BYTE      SBUF0
*SFR* 000000EBH   DATA     BYTE      SBUF1
*SFR* 00000098H   DATA     BYTE      SCON0
*SFR* 000000EAH   DATA     BYTE      SCON1
*SFR* 00000081H   DATA     BYTE      SP
*SFR* 000000ECH   DATA     BYTE      SPCR
*SFR* 000000EEH   DATA     BYTE      SPDR
      01000006H   CODE     ---       SPI_ClearTransferIntFlag
      0100000EH   CODE     ---       SPI_ClearWriteErrorIntFlag
      01001F45H   CODE     ---       SPI_DisableIntFlag
      01001F35H   CODE     ---       SPI_DisableMasterMode
      01001F3DH   CODE     ---       SPI_DisableSlaveMode
      01001F41H   CODE     ---       SPI_EnableIntFlag
      01001F31H   CODE     ---       SPI_EnableMasterMode
      01001F39H   CODE     ---       SPI_EnableSlaveMode
      01001D95H   CODE     ---       SPI_GetTransferIntFlag
      01001D9FH   CODE     ---       SPI_GetWriteErrorIntFlag
      01001F93H   CODE     ---       SPI_IRQHandler
      01001F29H   CODE     ---       SPI_Start
      01001F2DH   CODE     ---       SPI_Stop
*SFR* 000000EDH   DATA     BYTE      SPSR
*SFR* 000000EFH   DATA     BYTE      SSCR
      01001ED0H   CODE     ---       SYS_ClearLVDIntFlag
      01001F49H   CODE     ---       SYS_ClearPowerOnResetFlag
      0100172AH   CODE     ---       SYS_ClearWDTResetFlag
      01001EB8H   CODE     ---       SYS_DisableLVD
      01001EC8H   CODE     ---       SYS_DisableLVDInt
      01001760H   CODE     ---       SYS_DisableSoftwareReset
      01001F51H   CODE     ---       SYS_DisableWakeUp
      01001F59H   CODE     ---       SYS_DisableWakeUpTrig
      0100170FH   CODE     ---       SYS_DisableWDTReset
      01001EB0H   CODE     ---       SYS_EnableLVD
      01001EC0H   CODE     ---       SYS_EnableLVDInt
      01001745H   CODE     ---       SYS_EnableSoftwareReset
      01001F4DH   CODE     ---       SYS_EnableWakeUp
      01001F55H   CODE     ---       SYS_EnableWakeUpTrig
      010016F4H   CODE     ---       SYS_EnableWDTReset
      01001C95H   CODE     ---       SYS_EnterIdle
      01001C89H   CODE     ---       SYS_EnterStop
      01001C7DH   CODE     ---       SYS_GetLVDIntFlag
      01001DB3H   CODE     ---       SYS_GetPowerOnResetFlag
      01001DA9H   CODE     ---       SYS_GetWDTResetFlag
      0000001CH   DATA     DWORD     SystemClock
*SFR* 000000C8H.2 DATA     BIT       T2CM
LX51 LINKER/LOCATER V4.66.1.0                                                         09/07/2023  18:22:32  PAGE 17


*SFR* 000000C8H   DATA     BYTE      T2CON
*SFR* 000000C8H   DATA     BIT       T2I0
*SFR* 000000C8H.1 DATA     BIT       T2I1
*SFR* 000000CFH   DATA     BYTE      T2IE
*SFR* 000000C9H   DATA     BYTE      T2IF
*SFR* 000000C8H.7 DATA     BIT       T2PS
*SFR* 000000C8H.3 DATA     BIT       T2R0
*SFR* 000000C8H.4 DATA     BIT       T2R1
*SFR* 000000D2H   DATA     BYTE      T34MOD
*SFR* 00000096H   DATA     BYTE      TA
*SFR* 00000088H   DATA     BYTE      TCON
*SFR* 00000088H.5 DATA     BIT       TF0
*SFR* 00000088H.7 DATA     BIT       TF1
*SFR* 0000008CH   DATA     BYTE      TH0
*SFR* 0000008DH   DATA     BYTE      TH1
*SFR* 000000CDH   DATA     BYTE      TH2
*SFR* 000000DBH   DATA     BYTE      TH3
*SFR* 000000E3H   DATA     BYTE      TH4
*SFR* 00000098H.1 DATA     BIT       TI0
      0100001AH   CODE     ---       Timer0_IRQHandler
      0100002AH   CODE     ---       Timer1_IRQHandler
      01000032H   CODE     ---       Timer2_IRQHandler
      0100009AH   CODE     ---       Timer3_IRQHandler
      010000A2H   CODE     ---       Timer4_IRQHandler
      010012C3H   CODE     ---       Timer_Config
*SFR* 0000008AH   DATA     BYTE      TL0
*SFR* 0000008BH   DATA     BYTE      TL1
*SFR* 000000CCH   DATA     BYTE      TL2
*SFR* 000000DAH   DATA     BYTE      TL3
*SFR* 000000E2H   DATA     BYTE      TL4
*SFR* 00000089H   DATA     BYTE      TMOD
      01001F8EH   CODE     ---       TMR2_AllIntDisable
      01001F8BH   CODE     ---       TMR2_AllIntEnable
      01001F69H   CODE     ---       TMR2_ClearOverflowIntFlag
      01001F75H   CODE     ---       TMR2_ClearT2EXIntFlag
      01001D10H   CODE     ---       TMR2_DisableGATE
      01001F65H   CODE     ---       TMR2_DisableOverflowInt
      01001F71H   CODE     ---       TMR2_DisableT2EXInt
      01001F5DH   CODE     ---       TMR2_EnableGATE
      01001F61H   CODE     ---       TMR2_EnableOverflowInt
      01001F6DH   CODE     ---       TMR2_EnableT2EXInt
      01001DBDH   CODE     ---       TMR2_GetOverflowIntFlag
      01001DC7H   CODE     ---       TMR2_GetT2EXIntFlag
      01001DD1H   CODE     ---       TMR2_Start
      01001F79H   CODE     ---       TMR2_Stop
*SFR* 00000088H.4 DATA     BIT       TR0
*SFR* 00000088H.6 DATA     BIT       TR1
*SFR* 00000098H.2 DATA     BIT       U0RB8
*SFR* 00000098H.4 DATA     BIT       U0REN
*SFR* 00000098H.7 DATA     BIT       U0SM0
*SFR* 00000098H.6 DATA     BIT       U0SM1
*SFR* 00000098H.5 DATA     BIT       U0SM2
*SFR* 00000098H.3 DATA     BIT       U0TB8
      01000CF0H   CODE     ---       UART0_IRQHandler
      0100003AH   CODE     ---       UART1_IRQHandler
      01001E00H   CODE     ---       UART_DisableBRT
      01001DF8H   CODE     ---       UART_EnableBRT
*SFR* 00000097H   DATA     BYTE      WDCON
      01001796H   CODE     ---       WDT_ClearOverflowIntFlag
      0100177BH   CODE     ---       WDT_ClearWDT
      01001F81H   CODE     ---       WDT_DisableOverflowInt
      01001F7DH   CODE     ---       WDT_EnableOverflowInt
      01001DDBH   CODE     ---       WDT_GetOverflowIntFlag
      01001F91H   CODE     ---       WDT_IRQHandler
*SFR* 000000BDH   DATA     BYTE      WUTCRH
LX51 LINKER/LOCATER V4.66.1.0                                                         09/07/2023  18:22:32  PAGE 18


*SFR* 000000BCH   DATA     BYTE      WUTCRL



SYMBOL TABLE OF MODULE:  .\Objects\project (MAIN)

      VALUE       REP       CLASS    TYPE      SYMBOL NAME
      ====================================================
      ---         MODULE    ---      ---       MAIN
      0000001CH   PUBLIC    DATA     DWORD     SystemClock
      01001D31H   PUBLIC    CODE     ---       main
      000000C8H   SFRSYM    DATA     BIT       T2I0
      000000C3H   SFRSYM    DATA     BYTE      CCH1
      00000080H   SFRSYM    DATA     BYTE      P0
      000000C8H.1 SFRSYM    DATA     BIT       T2I1
      000000C5H   SFRSYM    DATA     BYTE      CCH2
      00000090H   SFRSYM    DATA     BYTE      P1
      000000C7H   SFRSYM    DATA     BYTE      CCH3
      000000ACH   SFRSYM    DATA     BYTE      P0EXTIE
      000000A0H   SFRSYM    DATA     BYTE      P2
      000000B4H   SFRSYM    DATA     BYTE      P0EXTIF
      000000B0H   SFRSYM    DATA     BYTE      P3
      000000ADH   SFRSYM    DATA     BYTE      P1EXTIE
      000000D0H.6 SFRSYM    DATA     BIT       AC
      000000FFH   SFRSYM    DATA     BYTE      MCTRL
      000000C2H   SFRSYM    DATA     BYTE      CCL1
      000000B5H   SFRSYM    DATA     BYTE      P1EXTIF
      000000AEH   SFRSYM    DATA     BYTE      P2EXTIE
      000000C4H   SFRSYM    DATA     BYTE      CCL2
      000000B6H   SFRSYM    DATA     BYTE      P2EXTIF
      000000AFH   SFRSYM    DATA     BYTE      P3EXTIE
      000000A8H.7 SFRSYM    DATA     BIT       EA
      000000C6H   SFRSYM    DATA     BYTE      CCL3
      000000B7H   SFRSYM    DATA     BYTE      P3EXTIF
      000000AAH   SFRSYM    DATA     BYTE      EIE2
      000000B2H   SFRSYM    DATA     BYTE      EIF2
      000000C8H.3 SFRSYM    DATA     BIT       T2R0
      000000C8H.4 SFRSYM    DATA     BIT       T2R1
      00000083H   SFRSYM    DATA     BYTE      DPH0
      000000A8H   SFRSYM    DATA     BYTE      IE
      00000085H   SFRSYM    DATA     BYTE      DPH1
      000000B9H   SFRSYM    DATA     BYTE      EIP1
      000000BAH   SFRSYM    DATA     BYTE      EIP2
      00000082H   SFRSYM    DATA     BYTE      DPL0
      00000084H   SFRSYM    DATA     BYTE      DPL1
      000000C8H.6 SFRSYM    DATA     BIT       I3FR
      000000CFH   SFRSYM    DATA     BYTE      T2IE
      00000096H   SFRSYM    DATA     BYTE      TA
      000000C9H   SFRSYM    DATA     BYTE      T2IF
      000000C8H.2 SFRSYM    DATA     BIT       T2CM
      000000DFH   SFRSYM    DATA     BYTE      ADCON0
      000000DEH   SFRSYM    DATA     BYTE      ADCON1
      000000E9H   SFRSYM    DATA     BYTE      ADCON2
      000000B8H   SFRSYM    DATA     BYTE      IP
      000000CEH   SFRSYM    DATA     BYTE      CCEN
      000000D0H.7 SFRSYM    DATA     BIT       CY
      000000D2H   SFRSYM    DATA     BYTE      T34MOD
      00000093H   SFRSYM    DATA     BYTE      DPX0
      00000095H   SFRSYM    DATA     BYTE      DPX1
      000000F4H   SFRSYM    DATA     BYTE      I2CMSA
      000000F5H   SFRSYM    DATA     BYTE      I2CMCR
      00000081H   SFRSYM    DATA     BYTE      SP
      000000D0H.2 SFRSYM    DATA     BIT       OV
      000000F2H   SFRSYM    DATA     BYTE      I2CSCR
      000000C8H.7 SFRSYM    DATA     BIT       T2PS
LX51 LINKER/LOCATER V4.66.1.0                                                         09/07/2023  18:22:32  PAGE 19


      000000D1H   SFRSYM    DATA     BYTE      ADCMPC
      000000CBH   SFRSYM    DATA     BYTE      RLDH
      000000D5H   SFRSYM    DATA     BYTE      ADCMPH
      000000CAH   SFRSYM    DATA     BYTE      RLDL
      00000080H   SFRSYM    DATA     BIT       P00
      00000090H   SFRSYM    DATA     BIT       P10
      00000080H.1 SFRSYM    DATA     BIT       P01
      000000F7H   SFRSYM    DATA     BYTE      I2CMTP
      00000099H   SFRSYM    DATA     BYTE      SBUF
      00000087H   SFRSYM    DATA     BYTE      PCON
      000000A0H   SFRSYM    DATA     BIT       P20
      00000090H.1 SFRSYM    DATA     BIT       P11
      00000080H.2 SFRSYM    DATA     BIT       P02
      000000F5H   SFRSYM    DATA     BYTE      I2CMSR
      000000B0H   SFRSYM    DATA     BIT       P30
      000000A0H.1 SFRSYM    DATA     BIT       P21
      00000090H.2 SFRSYM    DATA     BIT       P12
      00000080H.3 SFRSYM    DATA     BIT       P03
      000000D4H   SFRSYM    DATA     BYTE      ADCMPL
      000000B0H.1 SFRSYM    DATA     BIT       P31
      000000A0H.2 SFRSYM    DATA     BIT       P22
      00000090H.3 SFRSYM    DATA     BIT       P13
      00000080H.4 SFRSYM    DATA     BIT       P04
      000000B0H.2 SFRSYM    DATA     BIT       P32
      000000A0H.3 SFRSYM    DATA     BIT       P23
      00000090H.4 SFRSYM    DATA     BIT       P14
      00000080H.5 SFRSYM    DATA     BIT       P05
      00000089H   SFRSYM    DATA     BYTE      TMOD
      00000088H   SFRSYM    DATA     BYTE      TCON
      000000B0H.3 SFRSYM    DATA     BIT       P33
      000000A0H.4 SFRSYM    DATA     BIT       P24
      00000090H.5 SFRSYM    DATA     BIT       P15
      00000080H.6 SFRSYM    DATA     BIT       P06
      000000B0H.4 SFRSYM    DATA     BIT       P34
      000000A0H.5 SFRSYM    DATA     BIT       P25
      00000090H.6 SFRSYM    DATA     BIT       P16
      00000080H.7 SFRSYM    DATA     BIT       P07
      000000B0H.5 SFRSYM    DATA     BIT       P35
      000000A0H.6 SFRSYM    DATA     BIT       P26
      00000090H.7 SFRSYM    DATA     BIT       P17
      000000F2H   SFRSYM    DATA     BYTE      I2CSSR
      000000B0H.6 SFRSYM    DATA     BIT       P36
      000000A0H.7 SFRSYM    DATA     BIT       P27
      000000ECH   SFRSYM    DATA     BYTE      SPCR
      000000DDH   SFRSYM    DATA     BYTE      ADRESH
      000000B0H.7 SFRSYM    DATA     BIT       P37
      000000EEH   SFRSYM    DATA     BYTE      SPDR
      000000EFH   SFRSYM    DATA     BYTE      SSCR
      000000D3H   SFRSYM    DATA     BYTE      ADDLYL
      000000DCH   SFRSYM    DATA     BYTE      ADRESL
      00000088H.1 SFRSYM    DATA     BIT       IE0
      00000088H.3 SFRSYM    DATA     BIT       IE1
      0000008FH   SFRSYM    DATA     BYTE      CLKDIV
      000000F0H   SFRSYM    DATA     BYTE      B
      00000091H   SFRSYM    DATA     BYTE      FUNCCR
      0000009AH   SFRSYM    DATA     BYTE      P0TRIS
      000000A1H   SFRSYM    DATA     BYTE      P1TRIS
      000000A2H   SFRSYM    DATA     BYTE      P2TRIS
      000000E0H   SFRSYM    DATA     BYTE      ACC
      000000A3H   SFRSYM    DATA     BYTE      P3TRIS
      000000A8H.4 SFRSYM    DATA     BIT       ES0
      000000A8H.6 SFRSYM    DATA     BIT       ES1
      000000A8H.1 SFRSYM    DATA     BIT       ET0
      000000EDH   SFRSYM    DATA     BYTE      SPSR
      000000A8H.3 SFRSYM    DATA     BIT       ET1
LX51 LINKER/LOCATER V4.66.1.0                                                         09/07/2023  18:22:32  PAGE 20


      00000088H.5 SFRSYM    DATA     BIT       TF0
      000000A8H.5 SFRSYM    DATA     BIT       ET2
      00000098H   SFRSYM    DATA     BIT       RI0
      00000088H.7 SFRSYM    DATA     BIT       TF1
      0000008CH   SFRSYM    DATA     BYTE      TH0
      000000A8H   SFRSYM    DATA     BIT       EX0
      00000098H.1 SFRSYM    DATA     BIT       TI0
      00000088H   SFRSYM    DATA     BIT       IT0
      0000008DH   SFRSYM    DATA     BYTE      TH1
      000000A8H.2 SFRSYM    DATA     BIT       EX1
      00000088H.2 SFRSYM    DATA     BIT       IT1
      000000CDH   SFRSYM    DATA     BYTE      TH2
      000000D0H   SFRSYM    DATA     BIT       P
      000000DBH   SFRSYM    DATA     BYTE      TH3
      000000E3H   SFRSYM    DATA     BYTE      TH4
      0000008AH   SFRSYM    DATA     BYTE      TL0
      0000008BH   SFRSYM    DATA     BYTE      TL1
      00000098H.2 SFRSYM    DATA     BIT       U0RB8
      000000CCH   SFRSYM    DATA     BYTE      TL2
      000000B8H.4 SFRSYM    DATA     BIT       PS0
      000000DAH   SFRSYM    DATA     BYTE      TL3
      000000BFH   SFRSYM    DATA     BYTE      BUZCON
      000000B8H.6 SFRSYM    DATA     BIT       PS1
      000000B8H.1 SFRSYM    DATA     BIT       PT0
      00000098H.3 SFRSYM    DATA     BIT       U0TB8
      000000E2H   SFRSYM    DATA     BYTE      TL4
      000000D0H.3 SFRSYM    DATA     BIT       RS0
      000000B8H.3 SFRSYM    DATA     BIT       PT1
      000000D0H.4 SFRSYM    DATA     BIT       RS1
      000000B8H.5 SFRSYM    DATA     BIT       PT2
      00000098H.7 SFRSYM    DATA     BIT       U0SM0
      00000088H.4 SFRSYM    DATA     BIT       TR0
      000000BEH   SFRSYM    DATA     BYTE      BUZDIV
      00000098H.6 SFRSYM    DATA     BIT       U0SM1
      00000088H.6 SFRSYM    DATA     BIT       TR1
      000000B8H   SFRSYM    DATA     BIT       PX0
      00000098H.5 SFRSYM    DATA     BIT       U0SM2
      000000B8H.2 SFRSYM    DATA     BIT       PX1
      000000BDH   SFRSYM    DATA     BYTE      WUTCRH
      00000099H   SFRSYM    DATA     BYTE      SBUF0
      000000EBH   SFRSYM    DATA     BYTE      SBUF1
      000000BCH   SFRSYM    DATA     BYTE      WUTCRL
      00000098H   SFRSYM    DATA     BYTE      SCON0
      000000EAH   SFRSYM    DATA     BYTE      SCON1
      000000C8H   SFRSYM    DATA     BYTE      T2CON
      00000086H   SFRSYM    DATA     BYTE      DPS
      000000FEH   SFRSYM    DATA     BYTE      MDATA
      000000F6H   SFRSYM    DATA     BYTE      I2CMBUF
      000000F1H   SFRSYM    DATA     BYTE      I2CSADR
      00000098H.4 SFRSYM    DATA     BIT       U0REN
      000000C8H.5 SFRSYM    DATA     BIT       CAPES
      000000FDH   SFRSYM    DATA     BYTE      MADRH
      0000008EH   SFRSYM    DATA     BYTE      CKCON
      000000F3H   SFRSYM    DATA     BYTE      I2CSBUF
      000000FCH   SFRSYM    DATA     BYTE      MADRL
      000000D0H.5 SFRSYM    DATA     BIT       F0
      000000FBH   SFRSYM    DATA     BYTE      MLOCK
      000000D0H   SFRSYM    DATA     BYTE      PSW
      00000097H   SFRSYM    DATA     BYTE      WDCON

      01001D31H   BLOCK     CODE     ---       LVL=0
      01001D31H   LINE      CODE     ---       #5
      01001D31H   LINE      CODE     ---       #6
      01001D31H   LINE      CODE     ---       #8
      01001D36H   LINE      CODE     ---       #14
LX51 LINKER/LOCATER V4.66.1.0                                                         09/07/2023  18:22:32  PAGE 21


      01001D39H   LINE      CODE     ---       #20
      01001D39H   LINE      CODE     ---       #21
      01001D39H   LINE      CODE     ---       #23
      ---         BLOCKEND  ---      ---       LVL=0

      ---         MODULE    ---      ---       ISR
      01001F93H   PUBLIC    CODE     ---       SPI_IRQHandler
      01001F92H   PUBLIC    CODE     ---       I2C_IRQHandler
      01001F91H   PUBLIC    CODE     ---       WDT_IRQHandler
      010000B2H   PUBLIC    CODE     ---       ADC_IRQHandler
      010000AAH   PUBLIC    CODE     ---       EPWM_IRQHandler
      010000A2H   PUBLIC    CODE     ---       Timer4_IRQHandler
      0100009AH   PUBLIC    CODE     ---       Timer3_IRQHandler
      01000082H   PUBLIC    CODE     ---       ACMP_IRQHandler
      0100007AH   PUBLIC    CODE     ---       LSE_IRQHandler
      01000072H   PUBLIC    CODE     ---       LVD_IRQHandler
      0100006AH   PUBLIC    CODE     ---       P3EI_IRQHandler
      01000052H   PUBLIC    CODE     ---       P2EI_IRQHandler
      0100004AH   PUBLIC    CODE     ---       P1EI_IRQHandler
      01000042H   PUBLIC    CODE     ---       P0EI_IRQHandler
      0100003AH   PUBLIC    CODE     ---       UART1_IRQHandler
      01000032H   PUBLIC    CODE     ---       Timer2_IRQHandler
      01000CF0H   PUBLIC    CODE     ---       UART0_IRQHandler
      0100002AH   PUBLIC    CODE     ---       Timer1_IRQHandler
      01000022H   PUBLIC    CODE     ---       INT1_IRQHandler
      0100001AH   PUBLIC    CODE     ---       Timer0_IRQHandler
      01001F85H   PUBLIC    CODE     ---       INT0_IRQHandler
      000000C8H   SFRSYM    DATA     BIT       T2I0
      000000C3H   SFRSYM    DATA     BYTE      CCH1
      00000080H   SFRSYM    DATA     BYTE      P0
      000000C8H.1 SFRSYM    DATA     BIT       T2I1
      000000C5H   SFRSYM    DATA     BYTE      CCH2
      00000090H   SFRSYM    DATA     BYTE      P1
      000000C7H   SFRSYM    DATA     BYTE      CCH3
      000000ACH   SFRSYM    DATA     BYTE      P0EXTIE
      000000A0H   SFRSYM    DATA     BYTE      P2
      000000B4H   SFRSYM    DATA     BYTE      P0EXTIF
      000000B0H   SFRSYM    DATA     BYTE      P3
      000000ADH   SFRSYM    DATA     BYTE      P1EXTIE
      000000D0H.6 SFRSYM    DATA     BIT       AC
      000000FFH   SFRSYM    DATA     BYTE      MCTRL
      000000C2H   SFRSYM    DATA     BYTE      CCL1
      000000B5H   SFRSYM    DATA     BYTE      P1EXTIF
      000000AEH   SFRSYM    DATA     BYTE      P2EXTIE
      000000C4H   SFRSYM    DATA     BYTE      CCL2
      000000B6H   SFRSYM    DATA     BYTE      P2EXTIF
      000000AFH   SFRSYM    DATA     BYTE      P3EXTIE
      000000A8H.7 SFRSYM    DATA     BIT       EA
      000000C6H   SFRSYM    DATA     BYTE      CCL3
      000000B7H   SFRSYM    DATA     BYTE      P3EXTIF
      000000AAH   SFRSYM    DATA     BYTE      EIE2
      000000B2H   SFRSYM    DATA     BYTE      EIF2
      000000C8H.3 SFRSYM    DATA     BIT       T2R0
      000000C8H.4 SFRSYM    DATA     BIT       T2R1
      00000083H   SFRSYM    DATA     BYTE      DPH0
      000000A8H   SFRSYM    DATA     BYTE      IE
      00000085H   SFRSYM    DATA     BYTE      DPH1
      000000B9H   SFRSYM    DATA     BYTE      EIP1
      000000BAH   SFRSYM    DATA     BYTE      EIP2
      00000082H   SFRSYM    DATA     BYTE      DPL0
      00000084H   SFRSYM    DATA     BYTE      DPL1
      000000C8H.6 SFRSYM    DATA     BIT       I3FR
      000000CFH   SFRSYM    DATA     BYTE      T2IE
      00000096H   SFRSYM    DATA     BYTE      TA
      000000C9H   SFRSYM    DATA     BYTE      T2IF
LX51 LINKER/LOCATER V4.66.1.0                                                         09/07/2023  18:22:32  PAGE 22


      000000C8H.2 SFRSYM    DATA     BIT       T2CM
      000000DFH   SFRSYM    DATA     BYTE      ADCON0
      000000DEH   SFRSYM    DATA     BYTE      ADCON1
      000000E9H   SFRSYM    DATA     BYTE      ADCON2
      000000B8H   SFRSYM    DATA     BYTE      IP
      000000CEH   SFRSYM    DATA     BYTE      CCEN
      000000D0H.7 SFRSYM    DATA     BIT       CY
      000000D2H   SFRSYM    DATA     BYTE      T34MOD
      00000093H   SFRSYM    DATA     BYTE      DPX0
      00000095H   SFRSYM    DATA     BYTE      DPX1
      000000F4H   SFRSYM    DATA     BYTE      I2CMSA
      000000F5H   SFRSYM    DATA     BYTE      I2CMCR
      00000081H   SFRSYM    DATA     BYTE      SP
      000000D0H.2 SFRSYM    DATA     BIT       OV
      000000F2H   SFRSYM    DATA     BYTE      I2CSCR
      000000C8H.7 SFRSYM    DATA     BIT       T2PS
      000000D1H   SFRSYM    DATA     BYTE      ADCMPC
      000000CBH   SFRSYM    DATA     BYTE      RLDH
      000000D5H   SFRSYM    DATA     BYTE      ADCMPH
      000000CAH   SFRSYM    DATA     BYTE      RLDL
      00000080H   SFRSYM    DATA     BIT       P00
      00000090H   SFRSYM    DATA     BIT       P10
      00000080H.1 SFRSYM    DATA     BIT       P01
      000000F7H   SFRSYM    DATA     BYTE      I2CMTP
      00000099H   SFRSYM    DATA     BYTE      SBUF
      00000087H   SFRSYM    DATA     BYTE      PCON
      000000A0H   SFRSYM    DATA     BIT       P20
      00000090H.1 SFRSYM    DATA     BIT       P11
      00000080H.2 SFRSYM    DATA     BIT       P02
      000000F5H   SFRSYM    DATA     BYTE      I2CMSR
      000000B0H   SFRSYM    DATA     BIT       P30
      000000A0H.1 SFRSYM    DATA     BIT       P21
      00000090H.2 SFRSYM    DATA     BIT       P12
      00000080H.3 SFRSYM    DATA     BIT       P03
      000000D4H   SFRSYM    DATA     BYTE      ADCMPL
      000000B0H.1 SFRSYM    DATA     BIT       P31
      000000A0H.2 SFRSYM    DATA     BIT       P22
      00000090H.3 SFRSYM    DATA     BIT       P13
      00000080H.4 SFRSYM    DATA     BIT       P04
      000000B0H.2 SFRSYM    DATA     BIT       P32
      000000A0H.3 SFRSYM    DATA     BIT       P23
      00000090H.4 SFRSYM    DATA     BIT       P14
      00000080H.5 SFRSYM    DATA     BIT       P05
      00000089H   SFRSYM    DATA     BYTE      TMOD
      00000088H   SFRSYM    DATA     BYTE      TCON
      000000B0H.3 SFRSYM    DATA     BIT       P33
      000000A0H.4 SFRSYM    DATA     BIT       P24
      00000090H.5 SFRSYM    DATA     BIT       P15
      00000080H.6 SFRSYM    DATA     BIT       P06
      000000B0H.4 SFRSYM    DATA     BIT       P34
      000000A0H.5 SFRSYM    DATA     BIT       P25
      00000090H.6 SFRSYM    DATA     BIT       P16
      00000080H.7 SFRSYM    DATA     BIT       P07
      000000B0H.5 SFRSYM    DATA     BIT       P35
      000000A0H.6 SFRSYM    DATA     BIT       P26
      00000090H.7 SFRSYM    DATA     BIT       P17
      000000F2H   SFRSYM    DATA     BYTE      I2CSSR
      000000B0H.6 SFRSYM    DATA     BIT       P36
      000000A0H.7 SFRSYM    DATA     BIT       P27
      000000ECH   SFRSYM    DATA     BYTE      SPCR
      000000DDH   SFRSYM    DATA     BYTE      ADRESH
      000000B0H.7 SFRSYM    DATA     BIT       P37
      000000EEH   SFRSYM    DATA     BYTE      SPDR
      000000EFH   SFRSYM    DATA     BYTE      SSCR
      000000D3H   SFRSYM    DATA     BYTE      ADDLYL
LX51 LINKER/LOCATER V4.66.1.0                                                         09/07/2023  18:22:32  PAGE 23


      000000DCH   SFRSYM    DATA     BYTE      ADRESL
      00000088H.1 SFRSYM    DATA     BIT       IE0
      00000088H.3 SFRSYM    DATA     BIT       IE1
      0000008FH   SFRSYM    DATA     BYTE      CLKDIV
      000000F0H   SFRSYM    DATA     BYTE      B
      00000091H   SFRSYM    DATA     BYTE      FUNCCR
      0000009AH   SFRSYM    DATA     BYTE      P0TRIS
      000000A1H   SFRSYM    DATA     BYTE      P1TRIS
      000000A2H   SFRSYM    DATA     BYTE      P2TRIS
      000000E0H   SFRSYM    DATA     BYTE      ACC
      000000A3H   SFRSYM    DATA     BYTE      P3TRIS
      000000A8H.4 SFRSYM    DATA     BIT       ES0
      000000A8H.6 SFRSYM    DATA     BIT       ES1
      000000A8H.1 SFRSYM    DATA     BIT       ET0
      000000EDH   SFRSYM    DATA     BYTE      SPSR
      000000A8H.3 SFRSYM    DATA     BIT       ET1
      00000088H.5 SFRSYM    DATA     BIT       TF0
      000000A8H.5 SFRSYM    DATA     BIT       ET2
      00000098H   SFRSYM    DATA     BIT       RI0
      00000088H.7 SFRSYM    DATA     BIT       TF1
      0000008CH   SFRSYM    DATA     BYTE      TH0
      000000A8H   SFRSYM    DATA     BIT       EX0
      00000098H.1 SFRSYM    DATA     BIT       TI0
      00000088H   SFRSYM    DATA     BIT       IT0
      0000008DH   SFRSYM    DATA     BYTE      TH1
      000000A8H.2 SFRSYM    DATA     BIT       EX1
      00000088H.2 SFRSYM    DATA     BIT       IT1
      000000CDH   SFRSYM    DATA     BYTE      TH2
      000000D0H   SFRSYM    DATA     BIT       P
      000000DBH   SFRSYM    DATA     BYTE      TH3
      000000E3H   SFRSYM    DATA     BYTE      TH4
      0000008AH   SFRSYM    DATA     BYTE      TL0
      0000008BH   SFRSYM    DATA     BYTE      TL1
      00000098H.2 SFRSYM    DATA     BIT       U0RB8
      000000CCH   SFRSYM    DATA     BYTE      TL2
      000000B8H.4 SFRSYM    DATA     BIT       PS0
      000000DAH   SFRSYM    DATA     BYTE      TL3
      000000BFH   SFRSYM    DATA     BYTE      BUZCON
      000000B8H.6 SFRSYM    DATA     BIT       PS1
      000000B8H.1 SFRSYM    DATA     BIT       PT0
      00000098H.3 SFRSYM    DATA     BIT       U0TB8
      000000E2H   SFRSYM    DATA     BYTE      TL4
      000000D0H.3 SFRSYM    DATA     BIT       RS0
      000000B8H.3 SFRSYM    DATA     BIT       PT1
      000000D0H.4 SFRSYM    DATA     BIT       RS1
      000000B8H.5 SFRSYM    DATA     BIT       PT2
      00000098H.7 SFRSYM    DATA     BIT       U0SM0
      00000088H.4 SFRSYM    DATA     BIT       TR0
      000000BEH   SFRSYM    DATA     BYTE      BUZDIV
      00000098H.6 SFRSYM    DATA     BIT       U0SM1
      00000088H.6 SFRSYM    DATA     BIT       TR1
      000000B8H   SFRSYM    DATA     BIT       PX0
      00000098H.5 SFRSYM    DATA     BIT       U0SM2
      000000B8H.2 SFRSYM    DATA     BIT       PX1
      000000BDH   SFRSYM    DATA     BYTE      WUTCRH
      00000099H   SFRSYM    DATA     BYTE      SBUF0
      000000EBH   SFRSYM    DATA     BYTE      SBUF1
      000000BCH   SFRSYM    DATA     BYTE      WUTCRL
      00000098H   SFRSYM    DATA     BYTE      SCON0
      000000EAH   SFRSYM    DATA     BYTE      SCON1
      000000C8H   SFRSYM    DATA     BYTE      T2CON
      00000086H   SFRSYM    DATA     BYTE      DPS
      000000FEH   SFRSYM    DATA     BYTE      MDATA
      000000F6H   SFRSYM    DATA     BYTE      I2CMBUF
      000000F1H   SFRSYM    DATA     BYTE      I2CSADR
LX51 LINKER/LOCATER V4.66.1.0                                                         09/07/2023  18:22:32  PAGE 24


      00000098H.4 SFRSYM    DATA     BIT       U0REN
      000000C8H.5 SFRSYM    DATA     BIT       CAPES
      000000FDH   SFRSYM    DATA     BYTE      MADRH
      0000008EH   SFRSYM    DATA     BYTE      CKCON
      000000F3H   SFRSYM    DATA     BYTE      I2CSBUF
      000000FCH   SFRSYM    DATA     BYTE      MADRL
      000000D0H.5 SFRSYM    DATA     BIT       F0
      000000FBH   SFRSYM    DATA     BYTE      MLOCK
      000000D0H   SFRSYM    DATA     BYTE      PSW
      00000097H   SFRSYM    DATA     BYTE      WDCON

      01001F85H   BLOCK     CODE     ---       LVL=0
      01001F85H   LINE      CODE     ---       #68
      01001F85H   LINE      CODE     ---       #70
      01001F87H   LINE      CODE     ---       #71
      ---         BLOCKEND  ---      ---       LVL=0

      0100001AH   BLOCK     CODE     ---       LVL=0
      0100001AH   LINE      CODE     ---       #79
      0100001AH   LINE      CODE     ---       #81
      ---         BLOCKEND  ---      ---       LVL=0

      01000022H   BLOCK     CODE     ---       LVL=0
      01000022H   LINE      CODE     ---       #89
      01000022H   LINE      CODE     ---       #92
      ---         BLOCKEND  ---      ---       LVL=0

      0100002AH   BLOCK     CODE     ---       LVL=0
      0100002AH   LINE      CODE     ---       #100
      0100002AH   LINE      CODE     ---       #105
      ---         BLOCKEND  ---      ---       LVL=0

      01000CF0H   BLOCK     CODE     ---       LVL=0
      01000CF0H   LINE      CODE     ---       #113
      01000D0DH   LINE      CODE     ---       #115
      01000D15H   LINE      CODE     ---       #116
      01000D15H   LINE      CODE     ---       #118
      01000D1AH   LINE      CODE     ---       #119
      01000D1AH   LINE      CODE     ---       #120
      01000D22H   LINE      CODE     ---       #121
      01000D22H   LINE      CODE     ---       #122
      01000D2EH   LINE      CODE     ---       #123
      01000D33H   LINE      CODE     ---       #124
      01000D33H   LINE      CODE     ---       #125
      ---         BLOCKEND  ---      ---       LVL=0

      01000032H   BLOCK     CODE     ---       LVL=0
      01000032H   LINE      CODE     ---       #133
      01000032H   LINE      CODE     ---       #135
      ---         BLOCKEND  ---      ---       LVL=0

      0100003AH   BLOCK     CODE     ---       LVL=0
      0100003AH   LINE      CODE     ---       #143
      0100003AH   LINE      CODE     ---       #146
      ---         BLOCKEND  ---      ---       LVL=0

      01000042H   BLOCK     CODE     ---       LVL=0
      01000042H   LINE      CODE     ---       #154
      01000042H   LINE      CODE     ---       #156
      ---         BLOCKEND  ---      ---       LVL=0

      0100004AH   BLOCK     CODE     ---       LVL=0
      0100004AH   LINE      CODE     ---       #164
      0100004AH   LINE      CODE     ---       #167
      ---         BLOCKEND  ---      ---       LVL=0
LX51 LINKER/LOCATER V4.66.1.0                                                         09/07/2023  18:22:32  PAGE 25



      01000052H   BLOCK     CODE     ---       LVL=0
      01000052H   LINE      CODE     ---       #175
      01000052H   LINE      CODE     ---       #177
      ---         BLOCKEND  ---      ---       LVL=0

      0100006AH   BLOCK     CODE     ---       LVL=0
      0100006AH   LINE      CODE     ---       #185
      0100006AH   LINE      CODE     ---       #188
      ---         BLOCKEND  ---      ---       LVL=0

      01000072H   BLOCK     CODE     ---       LVL=0
      01000072H   LINE      CODE     ---       #197
      01000072H   LINE      CODE     ---       #199
      ---         BLOCKEND  ---      ---       LVL=0

      0100007AH   BLOCK     CODE     ---       LVL=0
      0100007AH   LINE      CODE     ---       #207
      0100007AH   LINE      CODE     ---       #209
      ---         BLOCKEND  ---      ---       LVL=0

      01000082H   BLOCK     CODE     ---       LVL=0
      01000082H   LINE      CODE     ---       #218
      01000082H   LINE      CODE     ---       #220
      ---         BLOCKEND  ---      ---       LVL=0

      0100009AH   BLOCK     CODE     ---       LVL=0
      0100009AH   LINE      CODE     ---       #228
      0100009AH   LINE      CODE     ---       #230
      ---         BLOCKEND  ---      ---       LVL=0

      010000A2H   BLOCK     CODE     ---       LVL=0
      010000A2H   LINE      CODE     ---       #238
      010000A2H   LINE      CODE     ---       #240
      ---         BLOCKEND  ---      ---       LVL=0

      010000AAH   BLOCK     CODE     ---       LVL=0
      010000AAH   LINE      CODE     ---       #248
      010000AAH   LINE      CODE     ---       #250
      ---         BLOCKEND  ---      ---       LVL=0

      010000B2H   BLOCK     CODE     ---       LVL=0
      010000B2H   LINE      CODE     ---       #258
      010000B2H   LINE      CODE     ---       #260
      ---         BLOCKEND  ---      ---       LVL=0

      01001F91H   BLOCK     CODE     ---       LVL=0
      01001F91H   LINE      CODE     ---       #268
      01001F91H   LINE      CODE     ---       #270
      ---         BLOCKEND  ---      ---       LVL=0

      01001F92H   BLOCK     CODE     ---       LVL=0
      01001F92H   LINE      CODE     ---       #278
      01001F92H   LINE      CODE     ---       #281
      ---         BLOCKEND  ---      ---       LVL=0

      01001F93H   BLOCK     CODE     ---       LVL=0
      01001F93H   LINE      CODE     ---       #289
      01001F93H   LINE      CODE     ---       #292
      ---         BLOCKEND  ---      ---       LVL=0

      ---         MODULE    ---      ---       UART
      01001E00H   PUBLIC    CODE     ---       UART_DisableBRT
      01001DEFH   PUBLIC    CODE     ---       _UART_ConfigBRTPeriod
      01001ACAH   PUBLIC    CODE     ---       _UART_ConfigBRTClk
LX51 LINKER/LOCATER V4.66.1.0                                                         09/07/2023  18:22:32  PAGE 26


      01001DF8H   PUBLIC    CODE     ---       UART_EnableBRT
      0100182DH   PUBLIC    CODE     ---       _UART_GetNinthBit
      0100164FH   PUBLIC    CODE     ---       _UART_SendNinthBit
      01001CC3H   PUBLIC    CODE     ---       _UART_SendBuff
      01001A52H   PUBLIC    CODE     ---       _UART_GetBuff
      010016BEH   PUBLIC    CODE     ---       _UART_ClearSendIntFlag
      01001469H   PUBLIC    CODE     ---       _UART_GetSendIntFlag
      010016A3H   PUBLIC    CODE     ---       _UART_ClearReceiveIntFlag
      0100144AH   PUBLIC    CODE     ---       _UART_GetReceiveIntFlag
      01001CB8H   PUBLIC    CODE     ---       _UART_DisableInt
      01001CADH   PUBLIC    CODE     ---       _UART_EnableInt
      01001B63H   PUBLIC    CODE     ---       _UART_DisableReceive
      01001B56H   PUBLIC    CODE     ---       _UART_EnableReceive
      00000028H   PUBLIC    DATA     BYTE      ?_UART_ConfigBaudRate?BYTE
      01001BB1H   PUBLIC    CODE     ---       _UART_ConfigBaudRate
      01000086H   PUBLIC    CODE     ---       _UART_DisableDoubleFrequency
      01000056H   PUBLIC    CODE     ---       _UART_EnableDoubleFrequency
      01000D4EH   PUBLIC    CODE     ---       _UART_ConfigRunMode
      000000C8H   SFRSYM    DATA     BIT       T2I0
      000000C3H   SFRSYM    DATA     BYTE      CCH1
      00000080H   SFRSYM    DATA     BYTE      P0
      000000C8H.1 SFRSYM    DATA     BIT       T2I1
      000000C5H   SFRSYM    DATA     BYTE      CCH2
      00000090H   SFRSYM    DATA     BYTE      P1
      000000C7H   SFRSYM    DATA     BYTE      CCH3
      000000ACH   SFRSYM    DATA     BYTE      P0EXTIE
      000000A0H   SFRSYM    DATA     BYTE      P2
      000000B4H   SFRSYM    DATA     BYTE      P0EXTIF
      000000B0H   SFRSYM    DATA     BYTE      P3
      000000ADH   SFRSYM    DATA     BYTE      P1EXTIE
      000000D0H.6 SFRSYM    DATA     BIT       AC
      000000FFH   SFRSYM    DATA     BYTE      MCTRL
      000000C2H   SFRSYM    DATA     BYTE      CCL1
      000000B5H   SFRSYM    DATA     BYTE      P1EXTIF
      000000AEH   SFRSYM    DATA     BYTE      P2EXTIE
      000000C4H   SFRSYM    DATA     BYTE      CCL2
      000000B6H   SFRSYM    DATA     BYTE      P2EXTIF
      000000AFH   SFRSYM    DATA     BYTE      P3EXTIE
      000000A8H.7 SFRSYM    DATA     BIT       EA
      000000C6H   SFRSYM    DATA     BYTE      CCL3
      000000B7H   SFRSYM    DATA     BYTE      P3EXTIF
      000000AAH   SFRSYM    DATA     BYTE      EIE2
      000000B2H   SFRSYM    DATA     BYTE      EIF2
      000000C8H.3 SFRSYM    DATA     BIT       T2R0
      000000C8H.4 SFRSYM    DATA     BIT       T2R1
      00000083H   SFRSYM    DATA     BYTE      DPH0
      000000A8H   SFRSYM    DATA     BYTE      IE
      00000085H   SFRSYM    DATA     BYTE      DPH1
      000000B9H   SFRSYM    DATA     BYTE      EIP1
      000000BAH   SFRSYM    DATA     BYTE      EIP2
      00000082H   SFRSYM    DATA     BYTE      DPL0
      00000084H   SFRSYM    DATA     BYTE      DPL1
      000000C8H.6 SFRSYM    DATA     BIT       I3FR
      000000CFH   SFRSYM    DATA     BYTE      T2IE
      00000096H   SFRSYM    DATA     BYTE      TA
      000000C9H   SFRSYM    DATA     BYTE      T2IF
      000000C8H.2 SFRSYM    DATA     BIT       T2CM
      000000DFH   SFRSYM    DATA     BYTE      ADCON0
      000000DEH   SFRSYM    DATA     BYTE      ADCON1
      000000E9H   SFRSYM    DATA     BYTE      ADCON2
      000000B8H   SFRSYM    DATA     BYTE      IP
      000000CEH   SFRSYM    DATA     BYTE      CCEN
      000000D0H.7 SFRSYM    DATA     BIT       CY
      000000D2H   SFRSYM    DATA     BYTE      T34MOD
      00000093H   SFRSYM    DATA     BYTE      DPX0
LX51 LINKER/LOCATER V4.66.1.0                                                         09/07/2023  18:22:32  PAGE 27


      00000095H   SFRSYM    DATA     BYTE      DPX1
      000000F4H   SFRSYM    DATA     BYTE      I2CMSA
      000000F5H   SFRSYM    DATA     BYTE      I2CMCR
      00000081H   SFRSYM    DATA     BYTE      SP
      000000D0H.2 SFRSYM    DATA     BIT       OV
      000000F2H   SFRSYM    DATA     BYTE      I2CSCR
      000000C8H.7 SFRSYM    DATA     BIT       T2PS
      000000D1H   SFRSYM    DATA     BYTE      ADCMPC
      000000CBH   SFRSYM    DATA     BYTE      RLDH
      000000D5H   SFRSYM    DATA     BYTE      ADCMPH
      000000CAH   SFRSYM    DATA     BYTE      RLDL
      00000080H   SFRSYM    DATA     BIT       P00
      00000090H   SFRSYM    DATA     BIT       P10
      00000080H.1 SFRSYM    DATA     BIT       P01
      000000F7H   SFRSYM    DATA     BYTE      I2CMTP
      00000099H   SFRSYM    DATA     BYTE      SBUF
      00000087H   SFRSYM    DATA     BYTE      PCON
      000000A0H   SFRSYM    DATA     BIT       P20
      00000090H.1 SFRSYM    DATA     BIT       P11
      00000080H.2 SFRSYM    DATA     BIT       P02
      000000F5H   SFRSYM    DATA     BYTE      I2CMSR
      000000B0H   SFRSYM    DATA     BIT       P30
      000000A0H.1 SFRSYM    DATA     BIT       P21
      00000090H.2 SFRSYM    DATA     BIT       P12
      00000080H.3 SFRSYM    DATA     BIT       P03
      000000D4H   SFRSYM    DATA     BYTE      ADCMPL
      000000B0H.1 SFRSYM    DATA     BIT       P31
      000000A0H.2 SFRSYM    DATA     BIT       P22
      00000090H.3 SFRSYM    DATA     BIT       P13
      00000080H.4 SFRSYM    DATA     BIT       P04
      000000B0H.2 SFRSYM    DATA     BIT       P32
      000000A0H.3 SFRSYM    DATA     BIT       P23
      00000090H.4 SFRSYM    DATA     BIT       P14
      00000080H.5 SFRSYM    DATA     BIT       P05
      00000089H   SFRSYM    DATA     BYTE      TMOD
      00000088H   SFRSYM    DATA     BYTE      TCON
      000000B0H.3 SFRSYM    DATA     BIT       P33
      000000A0H.4 SFRSYM    DATA     BIT       P24
      00000090H.5 SFRSYM    DATA     BIT       P15
      00000080H.6 SFRSYM    DATA     BIT       P06
      000000B0H.4 SFRSYM    DATA     BIT       P34
      000000A0H.5 SFRSYM    DATA     BIT       P25
      00000090H.6 SFRSYM    DATA     BIT       P16
      00000080H.7 SFRSYM    DATA     BIT       P07
      000000B0H.5 SFRSYM    DATA     BIT       P35
      000000A0H.6 SFRSYM    DATA     BIT       P26
      00000090H.7 SFRSYM    DATA     BIT       P17
      000000F2H   SFRSYM    DATA     BYTE      I2CSSR
      000000B0H.6 SFRSYM    DATA     BIT       P36
      000000A0H.7 SFRSYM    DATA     BIT       P27
      000000ECH   SFRSYM    DATA     BYTE      SPCR
      000000DDH   SFRSYM    DATA     BYTE      ADRESH
      000000B0H.7 SFRSYM    DATA     BIT       P37
      000000EEH   SFRSYM    DATA     BYTE      SPDR
      000000EFH   SFRSYM    DATA     BYTE      SSCR
      000000D3H   SFRSYM    DATA     BYTE      ADDLYL
      000000DCH   SFRSYM    DATA     BYTE      ADRESL
      00000088H.1 SFRSYM    DATA     BIT       IE0
      00000088H.3 SFRSYM    DATA     BIT       IE1
      0000008FH   SFRSYM    DATA     BYTE      CLKDIV
      000000F0H   SFRSYM    DATA     BYTE      B
      00000091H   SFRSYM    DATA     BYTE      FUNCCR
      0000009AH   SFRSYM    DATA     BYTE      P0TRIS
      000000A1H   SFRSYM    DATA     BYTE      P1TRIS
      000000A2H   SFRSYM    DATA     BYTE      P2TRIS
LX51 LINKER/LOCATER V4.66.1.0                                                         09/07/2023  18:22:32  PAGE 28


      000000E0H   SFRSYM    DATA     BYTE      ACC
      000000A3H   SFRSYM    DATA     BYTE      P3TRIS
      000000A8H.4 SFRSYM    DATA     BIT       ES0
      000000A8H.6 SFRSYM    DATA     BIT       ES1
      000000A8H.1 SFRSYM    DATA     BIT       ET0
      000000EDH   SFRSYM    DATA     BYTE      SPSR
      000000A8H.3 SFRSYM    DATA     BIT       ET1
      00000088H.5 SFRSYM    DATA     BIT       TF0
      000000A8H.5 SFRSYM    DATA     BIT       ET2
      00000098H   SFRSYM    DATA     BIT       RI0
      00000088H.7 SFRSYM    DATA     BIT       TF1
      0000008CH   SFRSYM    DATA     BYTE      TH0
      000000A8H   SFRSYM    DATA     BIT       EX0
      00000098H.1 SFRSYM    DATA     BIT       TI0
      00000088H   SFRSYM    DATA     BIT       IT0
      0000008DH   SFRSYM    DATA     BYTE      TH1
      000000A8H.2 SFRSYM    DATA     BIT       EX1
      00000088H.2 SFRSYM    DATA     BIT       IT1
      000000CDH   SFRSYM    DATA     BYTE      TH2
      000000D0H   SFRSYM    DATA     BIT       P
      000000DBH   SFRSYM    DATA     BYTE      TH3
      000000E3H   SFRSYM    DATA     BYTE      TH4
      0000008AH   SFRSYM    DATA     BYTE      TL0
      0000008BH   SFRSYM    DATA     BYTE      TL1
      00000098H.2 SFRSYM    DATA     BIT       U0RB8
      000000CCH   SFRSYM    DATA     BYTE      TL2
      000000B8H.4 SFRSYM    DATA     BIT       PS0
      000000DAH   SFRSYM    DATA     BYTE      TL3
      000000BFH   SFRSYM    DATA     BYTE      BUZCON
      000000B8H.6 SFRSYM    DATA     BIT       PS1
      000000B8H.1 SFRSYM    DATA     BIT       PT0
      00000098H.3 SFRSYM    DATA     BIT       U0TB8
      000000E2H   SFRSYM    DATA     BYTE      TL4
      000000D0H.3 SFRSYM    DATA     BIT       RS0
      000000B8H.3 SFRSYM    DATA     BIT       PT1
      000000D0H.4 SFRSYM    DATA     BIT       RS1
      000000B8H.5 SFRSYM    DATA     BIT       PT2
      00000098H.7 SFRSYM    DATA     BIT       U0SM0
      00000088H.4 SFRSYM    DATA     BIT       TR0
      000000BEH   SFRSYM    DATA     BYTE      BUZDIV
      00000098H.6 SFRSYM    DATA     BIT       U0SM1
      00000088H.6 SFRSYM    DATA     BIT       TR1
      000000B8H   SFRSYM    DATA     BIT       PX0
      00000098H.5 SFRSYM    DATA     BIT       U0SM2
      000000B8H.2 SFRSYM    DATA     BIT       PX1
      000000BDH   SFRSYM    DATA     BYTE      WUTCRH
      00000099H   SFRSYM    DATA     BYTE      SBUF0
      000000EBH   SFRSYM    DATA     BYTE      SBUF1
      000000BCH   SFRSYM    DATA     BYTE      WUTCRL
      00000098H   SFRSYM    DATA     BYTE      SCON0
      000000EAH   SFRSYM    DATA     BYTE      SCON1
      000000C8H   SFRSYM    DATA     BYTE      T2CON
      00000086H   SFRSYM    DATA     BYTE      DPS
      000000FEH   SFRSYM    DATA     BYTE      MDATA
      000000F6H   SFRSYM    DATA     BYTE      I2CMBUF
      000000F1H   SFRSYM    DATA     BYTE      I2CSADR
      00000098H.4 SFRSYM    DATA     BIT       U0REN
      000000C8H.5 SFRSYM    DATA     BIT       CAPES
      000000FDH   SFRSYM    DATA     BYTE      MADRH
      0000008EH   SFRSYM    DATA     BYTE      CKCON
      000000F3H   SFRSYM    DATA     BYTE      I2CSBUF
      000000FCH   SFRSYM    DATA     BYTE      MADRL
      000000D0H.5 SFRSYM    DATA     BIT       F0
      000000FBH   SFRSYM    DATA     BYTE      MLOCK
      000000D0H   SFRSYM    DATA     BYTE      PSW
LX51 LINKER/LOCATER V4.66.1.0                                                         09/07/2023  18:22:32  PAGE 29


      00000097H   SFRSYM    DATA     BYTE      WDCON

      01000D4EH   BLOCK     CODE     ---       LVL=0
      00000007H   SYMBOL    DATA     BYTE      UARTn
      00000005H   SYMBOL    DATA     BYTE      UARTMode
      00000003H   SYMBOL    DATA     BYTE      UARTBaudTimer
      01000D4EH   BLOCK     CODE     NEAR LAB  LVL=1
      00000006H   SYMBOL    DATA     BYTE      Temp
      ---         BLOCKEND  ---      ---       LVL=1
      01000D4EH   LINE      CODE     ---       #70
      01000D4EH   LINE      CODE     ---       #71
      01000D4EH   LINE      CODE     ---       #72
      01000D4EH   LINE      CODE     ---       #74
      01000D51H   LINE      CODE     ---       #75
      01000D51H   LINE      CODE     ---       #76
      01000D53H   LINE      CODE     ---       #77
      01000D56H   LINE      CODE     ---       #78
      01000D5EH   LINE      CODE     ---       #79
      01000D60H   LINE      CODE     ---       #81
      01000D63H   LINE      CODE     ---       #82
      01000D6FH   LINE      CODE     ---       #83
      01000D6FH   LINE      CODE     ---       #84
      01000D6FH   LINE      CODE     ---       #85
      01000D6FH   LINE      CODE     ---       #86
      01000D6FH   LINE      CODE     ---       #87
      01000D72H   LINE      CODE     ---       #88
      01000D74H   LINE      CODE     ---       #89
      01000D74H   LINE      CODE     ---       #90
      01000D77H   LINE      CODE     ---       #91
      01000D79H   LINE      CODE     ---       #92
      01000D79H   LINE      CODE     ---       #93
      01000D7CH   LINE      CODE     ---       #94
      01000D7CH   LINE      CODE     ---       #95
      01000D7CH   LINE      CODE     ---       #96
      01000D7CH   LINE      CODE     ---       #97
      01000D7CH   LINE      CODE     ---       #99
      01000D7CH   LINE      CODE     ---       #100
      01000D81H   LINE      CODE     ---       #101
      01000D81H   LINE      CODE     ---       #102
      01000D83H   LINE      CODE     ---       #103
      01000D86H   LINE      CODE     ---       #104
      01000D8EH   LINE      CODE     ---       #105
      01000D90H   LINE      CODE     ---       #107
      01000D93H   LINE      CODE     ---       #108
      01000D9FH   LINE      CODE     ---       #109
      01000D9FH   LINE      CODE     ---       #110
      01000D9FH   LINE      CODE     ---       #111
      01000D9FH   LINE      CODE     ---       #112
      01000D9FH   LINE      CODE     ---       #113
      01000DA2H   LINE      CODE     ---       #114
      01000DA3H   LINE      CODE     ---       #115
      01000DA3H   LINE      CODE     ---       #116
      01000DA6H   LINE      CODE     ---       #117
      01000DA7H   LINE      CODE     ---       #118
      01000DA7H   LINE      CODE     ---       #119
      01000DAAH   LINE      CODE     ---       #120
      01000DAAH   LINE      CODE     ---       #121
      01000DAAH   LINE      CODE     ---       #122
      01000DAAH   LINE      CODE     ---       #123
      01000DAAH   LINE      CODE     ---       #124
      01000DAAH   LINE      CODE     ---       #125
      ---         BLOCKEND  ---      ---       LVL=0

      01000056H   BLOCK     CODE     ---       LVL=0
      00000007H   SYMBOL    DATA     BYTE      UARTn
LX51 LINKER/LOCATER V4.66.1.0                                                         09/07/2023  18:22:32  PAGE 30


      01000056H   LINE      CODE     ---       #133
      01000056H   LINE      CODE     ---       #134
      01000056H   LINE      CODE     ---       #135
      01000059H   LINE      CODE     ---       #136
      01000059H   LINE      CODE     ---       #137
      0100005CH   LINE      CODE     ---       #138
      0100005CH   LINE      CODE     ---       #139
      0100005FH   LINE      CODE     ---       #140
      0100005FH   LINE      CODE     ---       #141
      01000062H   LINE      CODE     ---       #142
      01000062H   LINE      CODE     ---       #143
      ---         BLOCKEND  ---      ---       LVL=0

      01000086H   BLOCK     CODE     ---       LVL=0
      00000007H   SYMBOL    DATA     BYTE      UARTn
      01000086H   LINE      CODE     ---       #151
      01000086H   LINE      CODE     ---       #152
      01000086H   LINE      CODE     ---       #153
      01000089H   LINE      CODE     ---       #154
      01000089H   LINE      CODE     ---       #155
      0100008CH   LINE      CODE     ---       #156
      0100008CH   LINE      CODE     ---       #157
      0100008FH   LINE      CODE     ---       #158
      0100008FH   LINE      CODE     ---       #159
      01000092H   LINE      CODE     ---       #160
      01000092H   LINE      CODE     ---       #161
      ---         BLOCKEND  ---      ---       LVL=0

      01001BB1H   BLOCK     CODE     ---       LVL=0
      00000007H   SYMBOL    DATA     BYTE      UARTn
      00000029H   SYMBOL    DATA     DWORD     BaudRateValue
      01001BB1H   LINE      CODE     ---       #173
      01001BB1H   LINE      CODE     ---       #174
      01001BB1H   LINE      CODE     ---       #267
      01001BB3H   LINE      CODE     ---       #268
      01001BBBH   LINE      CODE     ---       #269
      01001BBCH   LINE      CODE     ---       #271
      ---         BLOCKEND  ---      ---       LVL=0

      01001B56H   BLOCK     CODE     ---       LVL=0
      00000007H   SYMBOL    DATA     BYTE      UARTn
      01001B56H   LINE      CODE     ---       #280
      01001B56H   LINE      CODE     ---       #281
      01001B56H   LINE      CODE     ---       #282
      01001B59H   LINE      CODE     ---       #283
      01001B59H   LINE      CODE     ---       #284
      01001B5CH   LINE      CODE     ---       #285
      01001B5CH   LINE      CODE     ---       #286
      01001B5FH   LINE      CODE     ---       #287
      01001B5FH   LINE      CODE     ---       #288
      01001B62H   LINE      CODE     ---       #289
      01001B62H   LINE      CODE     ---       #290
      ---         BLOCKEND  ---      ---       LVL=0

      01001B63H   BLOCK     CODE     ---       LVL=0
      00000007H   SYMBOL    DATA     BYTE      UARTn
      01001B63H   LINE      CODE     ---       #298
      01001B63H   LINE      CODE     ---       #299
      01001B63H   LINE      CODE     ---       #300
      01001B66H   LINE      CODE     ---       #301
      01001B66H   LINE      CODE     ---       #302
      01001B69H   LINE      CODE     ---       #303
      01001B69H   LINE      CODE     ---       #304
      01001B6CH   LINE      CODE     ---       #305
      01001B6CH   LINE      CODE     ---       #306
LX51 LINKER/LOCATER V4.66.1.0                                                         09/07/2023  18:22:32  PAGE 31


      01001B6FH   LINE      CODE     ---       #307
      01001B6FH   LINE      CODE     ---       #308
      ---         BLOCKEND  ---      ---       LVL=0

      01001CADH   BLOCK     CODE     ---       LVL=0
      00000007H   SYMBOL    DATA     BYTE      UARTn
      01001CADH   LINE      CODE     ---       #317
      01001CADH   LINE      CODE     ---       #318
      01001CADH   LINE      CODE     ---       #319
      01001CB0H   LINE      CODE     ---       #320
      01001CB0H   LINE      CODE     ---       #321
      01001CB2H   LINE      CODE     ---       #322
      01001CB2H   LINE      CODE     ---       #323
      01001CB5H   LINE      CODE     ---       #324
      01001CB5H   LINE      CODE     ---       #325
      01001CB7H   LINE      CODE     ---       #326
      01001CB7H   LINE      CODE     ---       #327
      ---         BLOCKEND  ---      ---       LVL=0

      01001CB8H   BLOCK     CODE     ---       LVL=0
      00000007H   SYMBOL    DATA     BYTE      UARTn
      01001CB8H   LINE      CODE     ---       #335
      01001CB8H   LINE      CODE     ---       #336
      01001CB8H   LINE      CODE     ---       #337
      01001CBBH   LINE      CODE     ---       #338
      01001CBBH   LINE      CODE     ---       #339
      01001CBDH   LINE      CODE     ---       #340
      01001CBDH   LINE      CODE     ---       #341
      01001CC0H   LINE      CODE     ---       #342
      01001CC0H   LINE      CODE     ---       #343
      01001CC2H   LINE      CODE     ---       #344
      01001CC2H   LINE      CODE     ---       #345
      ---         BLOCKEND  ---      ---       LVL=0

      0100144AH   BLOCK     CODE     ---       LVL=0
      00000006H   SYMBOL    DATA     BYTE      UARTn
      0100144AH   LINE      CODE     ---       #353
      0100144CH   LINE      CODE     ---       #354
      0100144CH   LINE      CODE     ---       #355
      0100144FH   LINE      CODE     ---       #356
      0100144FH   LINE      CODE     ---       #357
      01001459H   LINE      CODE     ---       #358
      01001459H   LINE      CODE     ---       #359
      0100145CH   LINE      CODE     ---       #360
      0100145CH   LINE      CODE     ---       #361
      01001466H   LINE      CODE     ---       #362
      01001466H   LINE      CODE     ---       #363
      01001468H   LINE      CODE     ---       #364
      ---         BLOCKEND  ---      ---       LVL=0

      010016A3H   BLOCK     CODE     ---       LVL=0
      00000007H   SYMBOL    DATA     BYTE      UARTn
      010016A3H   BLOCK     CODE     NEAR LAB  LVL=1
      00000006H   SYMBOL    DATA     BYTE      temp
      ---         BLOCKEND  ---      ---       LVL=1
      010016A3H   LINE      CODE     ---       #373
      010016A3H   LINE      CODE     ---       #374
      010016A3H   LINE      CODE     ---       #377
      010016A6H   LINE      CODE     ---       #378
      010016A6H   LINE      CODE     ---       #379
      010016A8H   LINE      CODE     ---       #380
      010016ABH   LINE      CODE     ---       #381
      010016B0H   LINE      CODE     ---       #382
      010016B0H   LINE      CODE     ---       #383
      010016B3H   LINE      CODE     ---       #384
LX51 LINKER/LOCATER V4.66.1.0                                                         09/07/2023  18:22:32  PAGE 32


      010016B3H   LINE      CODE     ---       #385
      010016B5H   LINE      CODE     ---       #386
      010016B8H   LINE      CODE     ---       #387
      010016BDH   LINE      CODE     ---       #388
      010016BDH   LINE      CODE     ---       #389
      ---         BLOCKEND  ---      ---       LVL=0

      01001469H   BLOCK     CODE     ---       LVL=0
      00000006H   SYMBOL    DATA     BYTE      UARTn
      01001469H   LINE      CODE     ---       #398
      0100146BH   LINE      CODE     ---       #399
      0100146BH   LINE      CODE     ---       #400
      0100146EH   LINE      CODE     ---       #401
      0100146EH   LINE      CODE     ---       #402
      01001478H   LINE      CODE     ---       #403
      01001478H   LINE      CODE     ---       #404
      0100147BH   LINE      CODE     ---       #405
      0100147BH   LINE      CODE     ---       #406
      01001485H   LINE      CODE     ---       #407
      01001485H   LINE      CODE     ---       #408
      01001487H   LINE      CODE     ---       #409
      ---         BLOCKEND  ---      ---       LVL=0

      010016BEH   BLOCK     CODE     ---       LVL=0
      00000007H   SYMBOL    DATA     BYTE      UARTn
      010016BEH   BLOCK     CODE     NEAR LAB  LVL=1
      00000006H   SYMBOL    DATA     BYTE      temp
      ---         BLOCKEND  ---      ---       LVL=1
      010016BEH   LINE      CODE     ---       #418
      010016BEH   LINE      CODE     ---       #419
      010016BEH   LINE      CODE     ---       #422
      010016C1H   LINE      CODE     ---       #423
      010016C1H   LINE      CODE     ---       #424
      010016C3H   LINE      CODE     ---       #425
      010016C6H   LINE      CODE     ---       #426
      010016CBH   LINE      CODE     ---       #427
      010016CBH   LINE      CODE     ---       #428
      010016CEH   LINE      CODE     ---       #429
      010016CEH   LINE      CODE     ---       #430
      010016D0H   LINE      CODE     ---       #431
      010016D3H   LINE      CODE     ---       #432
      010016D8H   LINE      CODE     ---       #433
      010016D8H   LINE      CODE     ---       #434
      ---         BLOCKEND  ---      ---       LVL=0

      01001A52H   BLOCK     CODE     ---       LVL=0
      00000007H   SYMBOL    DATA     BYTE      UARTn
      01001A52H   LINE      CODE     ---       #443
      01001A52H   LINE      CODE     ---       #444
      01001A52H   LINE      CODE     ---       #445
      01001A55H   LINE      CODE     ---       #446
      01001A55H   LINE      CODE     ---       #447
      01001A58H   LINE      CODE     ---       #448
      01001A58H   LINE      CODE     ---       #449
      01001A5BH   LINE      CODE     ---       #450
      01001A5BH   LINE      CODE     ---       #451
      01001A5EH   LINE      CODE     ---       #452
      01001A5EH   LINE      CODE     ---       #453
      01001A60H   LINE      CODE     ---       #454
      ---         BLOCKEND  ---      ---       LVL=0

      01001CC3H   BLOCK     CODE     ---       LVL=0
      00000007H   SYMBOL    DATA     BYTE      UARTn
      00000005H   SYMBOL    DATA     BYTE      UARTSendValue
      01001CC3H   LINE      CODE     ---       #464
LX51 LINKER/LOCATER V4.66.1.0                                                         09/07/2023  18:22:32  PAGE 33


      01001CC3H   LINE      CODE     ---       #465
      01001CC3H   LINE      CODE     ---       #466
      01001CC6H   LINE      CODE     ---       #467
      01001CC6H   LINE      CODE     ---       #468
      01001CC8H   LINE      CODE     ---       #469
      01001CC8H   LINE      CODE     ---       #470
      01001CCBH   LINE      CODE     ---       #471
      01001CCBH   LINE      CODE     ---       #472
      01001CCDH   LINE      CODE     ---       #473
      01001CCDH   LINE      CODE     ---       #474
      ---         BLOCKEND  ---      ---       LVL=0

      0100164FH   BLOCK     CODE     ---       LVL=0
      00000007H   SYMBOL    DATA     BYTE      UARTn
      00000005H   SYMBOL    DATA     BYTE      UARTSendValue
      0100164FH   LINE      CODE     ---       #484
      0100164FH   LINE      CODE     ---       #485
      0100164FH   LINE      CODE     ---       #486
      01001652H   LINE      CODE     ---       #487
      01001652H   LINE      CODE     ---       #488
      01001655H   LINE      CODE     ---       #489
      01001655H   LINE      CODE     ---       #490
      01001658H   LINE      CODE     ---       #491
      0100165AH   LINE      CODE     ---       #493
      0100165AH   LINE      CODE     ---       #494
      0100165DH   LINE      CODE     ---       #495
      0100165DH   LINE      CODE     ---       #496
      0100165DH   LINE      CODE     ---       #497
      01001660H   LINE      CODE     ---       #498
      01001660H   LINE      CODE     ---       #499
      01001663H   LINE      CODE     ---       #500
      01001663H   LINE      CODE     ---       #501
      01001666H   LINE      CODE     ---       #502
      01001667H   LINE      CODE     ---       #504
      01001667H   LINE      CODE     ---       #505
      0100166AH   LINE      CODE     ---       #506
      0100166AH   LINE      CODE     ---       #507
      0100166AH   LINE      CODE     ---       #508
      ---         BLOCKEND  ---      ---       LVL=0

      0100182DH   BLOCK     CODE     ---       LVL=0
      00000007H   SYMBOL    DATA     BYTE      UARTn
      0100182DH   LINE      CODE     ---       #516
      0100182DH   LINE      CODE     ---       #517
      0100182DH   LINE      CODE     ---       #518
      01001830H   LINE      CODE     ---       #519
      01001830H   LINE      CODE     ---       #520
      0100183AH   LINE      CODE     ---       #521
      0100183AH   LINE      CODE     ---       #523
      0100183AH   LINE      CODE     ---       #524
      01001843H   LINE      CODE     ---       #525
      01001843H   LINE      CODE     ---       #526
      ---         BLOCKEND  ---      ---       LVL=0

      01001DF8H   BLOCK     CODE     ---       LVL=0
      01001DF8H   LINE      CODE     ---       #534
      01001DF8H   LINE      CODE     ---       #535
      01001DF8H   LINE      CODE     ---       #536
      01001DFFH   LINE      CODE     ---       #537
      ---         BLOCKEND  ---      ---       LVL=0

      01001ACAH   BLOCK     CODE     ---       LVL=0
      00000007H   SYMBOL    DATA     BYTE      BRTClkDiv
      01001ACAH   BLOCK     CODE     NEAR LAB  LVL=1
      00000006H   SYMBOL    DATA     BYTE      Temp
LX51 LINKER/LOCATER V4.66.1.0                                                         09/07/2023  18:22:32  PAGE 34


      ---         BLOCKEND  ---      ---       LVL=1
      01001ACAH   LINE      CODE     ---       #544
      01001ACAH   LINE      CODE     ---       #545
      01001ACAH   LINE      CODE     ---       #546
      01001ACAH   LINE      CODE     ---       #548
      01001ACFH   LINE      CODE     ---       #549
      01001AD2H   LINE      CODE     ---       #550
      01001AD5H   LINE      CODE     ---       #551
      01001AD7H   LINE      CODE     ---       #552
      ---         BLOCKEND  ---      ---       LVL=0

      01001DEFH   BLOCK     CODE     ---       LVL=0
      00000006H   SYMBOL    DATA     WORD      BRTPeriod
      01001DEFH   LINE      CODE     ---       #560
      01001DEFH   LINE      CODE     ---       #561
      01001DEFH   LINE      CODE     ---       #562
      01001DF4H   LINE      CODE     ---       #563
      01001DF7H   LINE      CODE     ---       #564
      ---         BLOCKEND  ---      ---       LVL=0

      01001E00H   BLOCK     CODE     ---       LVL=0
      01001E00H   LINE      CODE     ---       #571
      01001E00H   LINE      CODE     ---       #572
      01001E00H   LINE      CODE     ---       #573
      01001E07H   LINE      CODE     ---       #574
      ---         BLOCKEND  ---      ---       LVL=0

      ---         MODULE    ---      ---       ACMP
      00000022H   PUBLIC    DATA     BYTE      ?_ACMP_GetOffsetAdjValue?BYTE
      01000412H   PUBLIC    CODE     ---       _ACMP_GetOffsetAdjValue
      01001066H   PUBLIC    CODE     ---       _ACMP_ConfigOffsetAdj
      010018D9H   PUBLIC    CODE     ---       _ACMP_DisableHYS
      0100121BH   PUBLIC    CODE     ---       _ACMP_EnableHYS
      0100137DH   PUBLIC    CODE     ---       _ACMP_GetResult
      010018C4H   PUBLIC    CODE     ---       _ACMP_Stop
      010018AFH   PUBLIC    CODE     ---       _ACMP_Start
      010019CAH   PUBLIC    CODE     ---       _ACMP_ClearIntFlag
      01001992H   PUBLIC    CODE     ---       _ACMP_GetIntFlag
      01001957H   PUBLIC    CODE     ---       _ACMP_DisableInt
      0100197FH   PUBLIC    CODE     ---       _ACMP_EnableInt
      0100135AH   PUBLIC    CODE     ---       _ACMP_EnableACMPBrake
      0100189AH   PUBLIC    CODE     ---       _ACMP_DisableFilter
      010012ECH   PUBLIC    CODE     ---       _ACMP_EnableFilter
      01001885H   PUBLIC    CODE     ---       _ACMP_DisableReverseOutput
      01001870H   PUBLIC    CODE     ---       _ACMP_EnableReverseOutput
      01000C12H   PUBLIC    CODE     ---       _ACMP_ConfigNegative
      01001408H   PUBLIC    CODE     ---       _ACMP_ConfigPositive
      000000C8H   SFRSYM    DATA     BIT       T2I0
      000000C3H   SFRSYM    DATA     BYTE      CCH1
      00000080H   SFRSYM    DATA     BYTE      P0
      000000C8H.1 SFRSYM    DATA     BIT       T2I1
      000000C5H   SFRSYM    DATA     BYTE      CCH2
      00000090H   SFRSYM    DATA     BYTE      P1
      000000C7H   SFRSYM    DATA     BYTE      CCH3
      000000ACH   SFRSYM    DATA     BYTE      P0EXTIE
      000000A0H   SFRSYM    DATA     BYTE      P2
      000000B4H   SFRSYM    DATA     BYTE      P0EXTIF
      000000B0H   SFRSYM    DATA     BYTE      P3
      000000ADH   SFRSYM    DATA     BYTE      P1EXTIE
      000000D0H.6 SFRSYM    DATA     BIT       AC
      000000FFH   SFRSYM    DATA     BYTE      MCTRL
      000000C2H   SFRSYM    DATA     BYTE      CCL1
      000000B5H   SFRSYM    DATA     BYTE      P1EXTIF
      000000AEH   SFRSYM    DATA     BYTE      P2EXTIE
      000000C4H   SFRSYM    DATA     BYTE      CCL2
LX51 LINKER/LOCATER V4.66.1.0                                                         09/07/2023  18:22:32  PAGE 35


      000000B6H   SFRSYM    DATA     BYTE      P2EXTIF
      000000AFH   SFRSYM    DATA     BYTE      P3EXTIE
      000000A8H.7 SFRSYM    DATA     BIT       EA
      000000C6H   SFRSYM    DATA     BYTE      CCL3
      000000B7H   SFRSYM    DATA     BYTE      P3EXTIF
      000000AAH   SFRSYM    DATA     BYTE      EIE2
      000000B2H   SFRSYM    DATA     BYTE      EIF2
      000000C8H.3 SFRSYM    DATA     BIT       T2R0
      000000C8H.4 SFRSYM    DATA     BIT       T2R1
      00000083H   SFRSYM    DATA     BYTE      DPH0
      000000A8H   SFRSYM    DATA     BYTE      IE
      00000085H   SFRSYM    DATA     BYTE      DPH1
      000000B9H   SFRSYM    DATA     BYTE      EIP1
      000000BAH   SFRSYM    DATA     BYTE      EIP2
      00000082H   SFRSYM    DATA     BYTE      DPL0
      00000084H   SFRSYM    DATA     BYTE      DPL1
      000000C8H.6 SFRSYM    DATA     BIT       I3FR
      000000CFH   SFRSYM    DATA     BYTE      T2IE
      00000096H   SFRSYM    DATA     BYTE      TA
      000000C9H   SFRSYM    DATA     BYTE      T2IF
      000000C8H.2 SFRSYM    DATA     BIT       T2CM
      000000DFH   SFRSYM    DATA     BYTE      ADCON0
      000000DEH   SFRSYM    DATA     BYTE      ADCON1
      000000E9H   SFRSYM    DATA     BYTE      ADCON2
      000000B8H   SFRSYM    DATA     BYTE      IP
      000000CEH   SFRSYM    DATA     BYTE      CCEN
      000000D0H.7 SFRSYM    DATA     BIT       CY
      000000D2H   SFRSYM    DATA     BYTE      T34MOD
      00000093H   SFRSYM    DATA     BYTE      DPX0
      00000095H   SFRSYM    DATA     BYTE      DPX1
      000000F4H   SFRSYM    DATA     BYTE      I2CMSA
      000000F5H   SFRSYM    DATA     BYTE      I2CMCR
      00000081H   SFRSYM    DATA     BYTE      SP
      000000D0H.2 SFRSYM    DATA     BIT       OV
      000000F2H   SFRSYM    DATA     BYTE      I2CSCR
      000000C8H.7 SFRSYM    DATA     BIT       T2PS
      000000D1H   SFRSYM    DATA     BYTE      ADCMPC
      000000CBH   SFRSYM    DATA     BYTE      RLDH
      000000D5H   SFRSYM    DATA     BYTE      ADCMPH
      000000CAH   SFRSYM    DATA     BYTE      RLDL
      00000080H   SFRSYM    DATA     BIT       P00
      00000090H   SFRSYM    DATA     BIT       P10
      00000080H.1 SFRSYM    DATA     BIT       P01
      000000F7H   SFRSYM    DATA     BYTE      I2CMTP
      00000099H   SFRSYM    DATA     BYTE      SBUF
      00000087H   SFRSYM    DATA     BYTE      PCON
      000000A0H   SFRSYM    DATA     BIT       P20
      00000090H.1 SFRSYM    DATA     BIT       P11
      00000080H.2 SFRSYM    DATA     BIT       P02
      000000F5H   SFRSYM    DATA     BYTE      I2CMSR
      000000B0H   SFRSYM    DATA     BIT       P30
      000000A0H.1 SFRSYM    DATA     BIT       P21
      00000090H.2 SFRSYM    DATA     BIT       P12
      00000080H.3 SFRSYM    DATA     BIT       P03
      000000D4H   SFRSYM    DATA     BYTE      ADCMPL
      000000B0H.1 SFRSYM    DATA     BIT       P31
      000000A0H.2 SFRSYM    DATA     BIT       P22
      00000090H.3 SFRSYM    DATA     BIT       P13
      00000080H.4 SFRSYM    DATA     BIT       P04
      000000B0H.2 SFRSYM    DATA     BIT       P32
      000000A0H.3 SFRSYM    DATA     BIT       P23
      00000090H.4 SFRSYM    DATA     BIT       P14
      00000080H.5 SFRSYM    DATA     BIT       P05
      00000089H   SFRSYM    DATA     BYTE      TMOD
      00000088H   SFRSYM    DATA     BYTE      TCON
LX51 LINKER/LOCATER V4.66.1.0                                                         09/07/2023  18:22:32  PAGE 36


      000000B0H.3 SFRSYM    DATA     BIT       P33
      000000A0H.4 SFRSYM    DATA     BIT       P24
      00000090H.5 SFRSYM    DATA     BIT       P15
      00000080H.6 SFRSYM    DATA     BIT       P06
      000000B0H.4 SFRSYM    DATA     BIT       P34
      000000A0H.5 SFRSYM    DATA     BIT       P25
      00000090H.6 SFRSYM    DATA     BIT       P16
      00000080H.7 SFRSYM    DATA     BIT       P07
      000000B0H.5 SFRSYM    DATA     BIT       P35
      000000A0H.6 SFRSYM    DATA     BIT       P26
      00000090H.7 SFRSYM    DATA     BIT       P17
      000000F2H   SFRSYM    DATA     BYTE      I2CSSR
      000000B0H.6 SFRSYM    DATA     BIT       P36
      000000A0H.7 SFRSYM    DATA     BIT       P27
      000000ECH   SFRSYM    DATA     BYTE      SPCR
      000000DDH   SFRSYM    DATA     BYTE      ADRESH
      000000B0H.7 SFRSYM    DATA     BIT       P37
      000000EEH   SFRSYM    DATA     BYTE      SPDR
      000000EFH   SFRSYM    DATA     BYTE      SSCR
      000000D3H   SFRSYM    DATA     BYTE      ADDLYL
      000000DCH   SFRSYM    DATA     BYTE      ADRESL
      00000088H.1 SFRSYM    DATA     BIT       IE0
      00000088H.3 SFRSYM    DATA     BIT       IE1
      0000008FH   SFRSYM    DATA     BYTE      CLKDIV
      000000F0H   SFRSYM    DATA     BYTE      B
      00000091H   SFRSYM    DATA     BYTE      FUNCCR
      0000009AH   SFRSYM    DATA     BYTE      P0TRIS
      000000A1H   SFRSYM    DATA     BYTE      P1TRIS
      000000A2H   SFRSYM    DATA     BYTE      P2TRIS
      000000E0H   SFRSYM    DATA     BYTE      ACC
      000000A3H   SFRSYM    DATA     BYTE      P3TRIS
      000000A8H.4 SFRSYM    DATA     BIT       ES0
      000000A8H.6 SFRSYM    DATA     BIT       ES1
      000000A8H.1 SFRSYM    DATA     BIT       ET0
      000000EDH   SFRSYM    DATA     BYTE      SPSR
      000000A8H.3 SFRSYM    DATA     BIT       ET1
      00000088H.5 SFRSYM    DATA     BIT       TF0
      000000A8H.5 SFRSYM    DATA     BIT       ET2
      00000098H   SFRSYM    DATA     BIT       RI0
      00000088H.7 SFRSYM    DATA     BIT       TF1
      0000008CH   SFRSYM    DATA     BYTE      TH0
      000000A8H   SFRSYM    DATA     BIT       EX0
      00000098H.1 SFRSYM    DATA     BIT       TI0
      00000088H   SFRSYM    DATA     BIT       IT0
      0000008DH   SFRSYM    DATA     BYTE      TH1
      000000A8H.2 SFRSYM    DATA     BIT       EX1
      00000088H.2 SFRSYM    DATA     BIT       IT1
      000000CDH   SFRSYM    DATA     BYTE      TH2
      000000D0H   SFRSYM    DATA     BIT       P
      000000DBH   SFRSYM    DATA     BYTE      TH3
      000000E3H   SFRSYM    DATA     BYTE      TH4
      0000008AH   SFRSYM    DATA     BYTE      TL0
      0000008BH   SFRSYM    DATA     BYTE      TL1
      00000098H.2 SFRSYM    DATA     BIT       U0RB8
      000000CCH   SFRSYM    DATA     BYTE      TL2
      000000B8H.4 SFRSYM    DATA     BIT       PS0
      000000DAH   SFRSYM    DATA     BYTE      TL3
      000000BFH   SFRSYM    DATA     BYTE      BUZCON
      000000B8H.6 SFRSYM    DATA     BIT       PS1
      000000B8H.1 SFRSYM    DATA     BIT       PT0
      00000098H.3 SFRSYM    DATA     BIT       U0TB8
      000000E2H   SFRSYM    DATA     BYTE      TL4
      000000D0H.3 SFRSYM    DATA     BIT       RS0
      000000B8H.3 SFRSYM    DATA     BIT       PT1
      000000D0H.4 SFRSYM    DATA     BIT       RS1
LX51 LINKER/LOCATER V4.66.1.0                                                         09/07/2023  18:22:32  PAGE 37


      000000B8H.5 SFRSYM    DATA     BIT       PT2
      00000098H.7 SFRSYM    DATA     BIT       U0SM0
      00000088H.4 SFRSYM    DATA     BIT       TR0
      000000BEH   SFRSYM    DATA     BYTE      BUZDIV
      00000098H.6 SFRSYM    DATA     BIT       U0SM1
      00000088H.6 SFRSYM    DATA     BIT       TR1
      000000B8H   SFRSYM    DATA     BIT       PX0
      00000098H.5 SFRSYM    DATA     BIT       U0SM2
      000000B8H.2 SFRSYM    DATA     BIT       PX1
      000000BDH   SFRSYM    DATA     BYTE      WUTCRH
      00000099H   SFRSYM    DATA     BYTE      SBUF0
      000000EBH   SFRSYM    DATA     BYTE      SBUF1
      000000BCH   SFRSYM    DATA     BYTE      WUTCRL
      00000098H   SFRSYM    DATA     BYTE      SCON0
      000000EAH   SFRSYM    DATA     BYTE      SCON1
      000000C8H   SFRSYM    DATA     BYTE      T2CON
      00000086H   SFRSYM    DATA     BYTE      DPS
      000000FEH   SFRSYM    DATA     BYTE      MDATA
      000000F6H   SFRSYM    DATA     BYTE      I2CMBUF
      000000F1H   SFRSYM    DATA     BYTE      I2CSADR
      00000098H.4 SFRSYM    DATA     BIT       U0REN
      000000C8H.5 SFRSYM    DATA     BIT       CAPES
      000000FDH   SFRSYM    DATA     BYTE      MADRH
      0000008EH   SFRSYM    DATA     BYTE      CKCON
      000000F3H   SFRSYM    DATA     BYTE      I2CSBUF
      000000FCH   SFRSYM    DATA     BYTE      MADRL
      000000D0H.5 SFRSYM    DATA     BIT       F0
      000000FBH   SFRSYM    DATA     BYTE      MLOCK
      000000D0H   SFRSYM    DATA     BYTE      PSW
      00000097H   SFRSYM    DATA     BYTE      WDCON
      0100196BH   SYMBOL    CODE     ---       ACMP_Delay

      01001408H   BLOCK     CODE     ---       LVL=0
      00000007H   SYMBOL    DATA     BYTE      ACMPn
      00000005H   SYMBOL    DATA     BYTE      PositiveSource
      01001408H   BLOCK     CODE     NEAR LAB  LVL=1
      00000006H   SYMBOL    DATA     BYTE      Temp
      ---         BLOCKEND  ---      ---       LVL=1
      01001408H   LINE      CODE     ---       #73
      01001408H   LINE      CODE     ---       #74
      01001408H   LINE      CODE     ---       #75
      01001408H   LINE      CODE     ---       #77
      0100140BH   LINE      CODE     ---       #78
      0100140BH   LINE      CODE     ---       #79
      01001410H   LINE      CODE     ---       #80
      01001413H   LINE      CODE     ---       #81
      01001416H   LINE      CODE     ---       #82
      01001418H   LINE      CODE     ---       #83
      01001418H   LINE      CODE     ---       #84
      0100141BH   LINE      CODE     ---       #85
      0100141BH   LINE      CODE     ---       #86
      01001420H   LINE      CODE     ---       #87
      01001423H   LINE      CODE     ---       #88
      01001426H   LINE      CODE     ---       #89
      01001428H   LINE      CODE     ---       #90
      01001428H   LINE      CODE     ---       #91
      ---         BLOCKEND  ---      ---       LVL=0

      01000C12H   BLOCK     CODE     ---       LVL=0
      00000007H   SYMBOL    DATA     BYTE      ACMPn
      00000005H   SYMBOL    DATA     BYTE      NegativeSource
      00000003H   SYMBOL    DATA     BYTE      Vref_k
      01000C12H   BLOCK     CODE     NEAR LAB  LVL=1
      00000006H   SYMBOL    DATA     BYTE      Temp
      ---         BLOCKEND  ---      ---       LVL=1
LX51 LINKER/LOCATER V4.66.1.0                                                         09/07/2023  18:22:32  PAGE 38


      01000C12H   LINE      CODE     ---       #105
      01000C12H   LINE      CODE     ---       #106
      01000C12H   LINE      CODE     ---       #107
      01000C12H   LINE      CODE     ---       #109
      01000C15H   LINE      CODE     ---       #110
      01000C15H   LINE      CODE     ---       #111
      01000C1AH   LINE      CODE     ---       #112
      01000C1DH   LINE      CODE     ---       #113
      01000C20H   LINE      CODE     ---       #114
      01000C2DH   LINE      CODE     ---       #115
      01000C2DH   LINE      CODE     ---       #116
      01000C32H   LINE      CODE     ---       #117
      01000C32H   LINE      CODE     ---       #118
      01000C32H   LINE      CODE     ---       #119
      01000C37H   LINE      CODE     ---       #120
      01000C37H   LINE      CODE     ---       #121
      01000C3CH   LINE      CODE     ---       #122
      01000C3FH   LINE      CODE     ---       #123
      01000C42H   LINE      CODE     ---       #125
      01000C4FH   LINE      CODE     ---       #126
      01000C4FH   LINE      CODE     ---       #127
      01000C54H   LINE      CODE     ---       #128
      01000C54H   LINE      CODE     ---       #129
      01000C54H   LINE      CODE     ---       #131
      01000C57H   LINE      CODE     ---       #132
      01000C57H   LINE      CODE     ---       #133
      01000C5EH   LINE      CODE     ---       #134
      01000C5EH   LINE      CODE     ---       #136
      01000C61H   LINE      CODE     ---       #137
      01000C61H   LINE      CODE     ---       #138
      01000C66H   LINE      CODE     ---       #139
      01000C6FH   LINE      CODE     ---       #140
      01000C6FH   LINE      CODE     ---       #142
      01000C72H   LINE      CODE     ---       #143
      01000C72H   LINE      CODE     ---       #144
      01000C77H   LINE      CODE     ---       #145
      01000C80H   LINE      CODE     ---       #146
      01000C80H   LINE      CODE     ---       #147
      ---         BLOCKEND  ---      ---       LVL=0

      01001870H   BLOCK     CODE     ---       LVL=0
      00000007H   SYMBOL    DATA     BYTE      ACMPn
      01001870H   LINE      CODE     ---       #155
      01001870H   LINE      CODE     ---       #156
      01001870H   LINE      CODE     ---       #157
      01001873H   LINE      CODE     ---       #158
      01001873H   LINE      CODE     ---       #159
      0100187AH   LINE      CODE     ---       #160
      0100187AH   LINE      CODE     ---       #161
      0100187DH   LINE      CODE     ---       #162
      0100187DH   LINE      CODE     ---       #163
      01001884H   LINE      CODE     ---       #164
      01001884H   LINE      CODE     ---       #165
      ---         BLOCKEND  ---      ---       LVL=0

      01001885H   BLOCK     CODE     ---       LVL=0
      00000007H   SYMBOL    DATA     BYTE      ACMPn
      01001885H   LINE      CODE     ---       #173
      01001885H   LINE      CODE     ---       #174
      01001885H   LINE      CODE     ---       #175
      01001888H   LINE      CODE     ---       #176
      01001888H   LINE      CODE     ---       #177
      0100188FH   LINE      CODE     ---       #178
      0100188FH   LINE      CODE     ---       #179
      01001892H   LINE      CODE     ---       #180
LX51 LINKER/LOCATER V4.66.1.0                                                         09/07/2023  18:22:32  PAGE 39


      01001892H   LINE      CODE     ---       #181
      01001899H   LINE      CODE     ---       #182
      01001899H   LINE      CODE     ---       #183
      ---         BLOCKEND  ---      ---       LVL=0

      010012ECH   BLOCK     CODE     ---       LVL=0
      00000007H   SYMBOL    DATA     BYTE      ACMPn
      00000005H   SYMBOL    DATA     BYTE      FilterTime
      010012ECH   BLOCK     CODE     NEAR LAB  LVL=1
      00000006H   SYMBOL    DATA     BYTE      Temp
      ---         BLOCKEND  ---      ---       LVL=1
      010012ECH   LINE      CODE     ---       #193
      010012ECH   LINE      CODE     ---       #194
      010012ECH   LINE      CODE     ---       #195
      010012ECH   LINE      CODE     ---       #197
      010012EFH   LINE      CODE     ---       #198
      010012EFH   LINE      CODE     ---       #199
      010012F4H   LINE      CODE     ---       #200
      010012F7H   LINE      CODE     ---       #201
      010012FCH   LINE      CODE     ---       #202
      010012FEH   LINE      CODE     ---       #203
      010012FEH   LINE      CODE     ---       #204
      01001301H   LINE      CODE     ---       #205
      01001301H   LINE      CODE     ---       #206
      01001306H   LINE      CODE     ---       #207
      01001309H   LINE      CODE     ---       #208
      0100130EH   LINE      CODE     ---       #209
      01001310H   LINE      CODE     ---       #210
      01001310H   LINE      CODE     ---       #211
      ---         BLOCKEND  ---      ---       LVL=0

      0100189AH   BLOCK     CODE     ---       LVL=0
      00000007H   SYMBOL    DATA     BYTE      ACMPn
      0100189AH   LINE      CODE     ---       #219
      0100189AH   LINE      CODE     ---       #220
      0100189AH   LINE      CODE     ---       #221
      0100189DH   LINE      CODE     ---       #222
      0100189DH   LINE      CODE     ---       #223
      010018A4H   LINE      CODE     ---       #224
      010018A4H   LINE      CODE     ---       #225
      010018A7H   LINE      CODE     ---       #226
      010018A7H   LINE      CODE     ---       #227
      010018AEH   LINE      CODE     ---       #228
      010018AEH   LINE      CODE     ---       #229
      ---         BLOCKEND  ---      ---       LVL=0

      0100135AH   BLOCK     CODE     ---       LVL=0
      00000007H   SYMBOL    DATA     BYTE      ACMPn
      00000005H   SYMBOL    DATA     BYTE      ACMPBrake
      0100135AH   BLOCK     CODE     NEAR LAB  LVL=1
      00000006H   SYMBOL    DATA     BYTE      Temp
      ---         BLOCKEND  ---      ---       LVL=1
      0100135AH   LINE      CODE     ---       #240
      0100135AH   LINE      CODE     ---       #241
      0100135AH   LINE      CODE     ---       #242
      0100135AH   LINE      CODE     ---       #244
      0100135DH   LINE      CODE     ---       #245
      0100135DH   LINE      CODE     ---       #246
      01001362H   LINE      CODE     ---       #247
      01001365H   LINE      CODE     ---       #248
      01001368H   LINE      CODE     ---       #249
      0100136AH   LINE      CODE     ---       #250
      0100136AH   LINE      CODE     ---       #251
      0100136DH   LINE      CODE     ---       #252
      0100136DH   LINE      CODE     ---       #253
LX51 LINKER/LOCATER V4.66.1.0                                                         09/07/2023  18:22:32  PAGE 40


      01001372H   LINE      CODE     ---       #254
      01001375H   LINE      CODE     ---       #255
      0100137AH   LINE      CODE     ---       #256
      0100137CH   LINE      CODE     ---       #257
      0100137CH   LINE      CODE     ---       #258
      ---         BLOCKEND  ---      ---       LVL=0

      0100197FH   BLOCK     CODE     ---       LVL=0
      00000007H   SYMBOL    DATA     BYTE      ACMPn
      0100197FH   LINE      CODE     ---       #266
      0100197FH   LINE      CODE     ---       #267
      0100197FH   LINE      CODE     ---       #268
      01001991H   LINE      CODE     ---       #269
      ---         BLOCKEND  ---      ---       LVL=0

      01001957H   BLOCK     CODE     ---       LVL=0
      00000007H   SYMBOL    DATA     BYTE      ACMPn
      01001957H   LINE      CODE     ---       #277
      01001957H   LINE      CODE     ---       #278
      01001957H   LINE      CODE     ---       #279
      0100196AH   LINE      CODE     ---       #280
      ---         BLOCKEND  ---      ---       LVL=0

      01001992H   BLOCK     CODE     ---       LVL=0
      00000007H   SYMBOL    DATA     BYTE      ACMPn
      01001992H   LINE      CODE     ---       #288
      01001992H   LINE      CODE     ---       #289
      01001992H   LINE      CODE     ---       #290
      010019A4H   LINE      CODE     ---       #291
      ---         BLOCKEND  ---      ---       LVL=0

      010019CAH   BLOCK     CODE     ---       LVL=0
      00000007H   SYMBOL    DATA     BYTE      ACMPn
      010019CAH   LINE      CODE     ---       #299
      010019CAH   LINE      CODE     ---       #300
      010019CAH   LINE      CODE     ---       #301
      010019DAH   LINE      CODE     ---       #302
      ---         BLOCKEND  ---      ---       LVL=0

      010018AFH   BLOCK     CODE     ---       LVL=0
      00000007H   SYMBOL    DATA     BYTE      ACMPn
      010018AFH   LINE      CODE     ---       #311
      010018AFH   LINE      CODE     ---       #312
      010018AFH   LINE      CODE     ---       #313
      010018B2H   LINE      CODE     ---       #314
      010018B2H   LINE      CODE     ---       #315
      010018B9H   LINE      CODE     ---       #316
      010018B9H   LINE      CODE     ---       #317
      010018BCH   LINE      CODE     ---       #318
      010018BCH   LINE      CODE     ---       #319
      010018C3H   LINE      CODE     ---       #320
      010018C3H   LINE      CODE     ---       #321
      ---         BLOCKEND  ---      ---       LVL=0

      010018C4H   BLOCK     CODE     ---       LVL=0
      00000007H   SYMBOL    DATA     BYTE      ACMPn
      010018C4H   LINE      CODE     ---       #330
      010018C4H   LINE      CODE     ---       #331
      010018C4H   LINE      CODE     ---       #332
      010018C7H   LINE      CODE     ---       #333
      010018C7H   LINE      CODE     ---       #334
      010018CEH   LINE      CODE     ---       #335
      010018CEH   LINE      CODE     ---       #336
      010018D1H   LINE      CODE     ---       #337
      010018D1H   LINE      CODE     ---       #338
LX51 LINKER/LOCATER V4.66.1.0                                                         09/07/2023  18:22:32  PAGE 41


      010018D8H   LINE      CODE     ---       #339
      010018D8H   LINE      CODE     ---       #340
      ---         BLOCKEND  ---      ---       LVL=0

      0100137DH   BLOCK     CODE     ---       LVL=0
      00000006H   SYMBOL    DATA     BYTE      ACMPn
      0100137DH   LINE      CODE     ---       #349
      0100137FH   LINE      CODE     ---       #350
      0100137FH   LINE      CODE     ---       #351
      01001382H   LINE      CODE     ---       #352
      01001382H   LINE      CODE     ---       #353
      0100138EH   LINE      CODE     ---       #354
      0100138EH   LINE      CODE     ---       #355
      01001391H   LINE      CODE     ---       #356
      01001391H   LINE      CODE     ---       #357
      0100139DH   LINE      CODE     ---       #358
      0100139DH   LINE      CODE     ---       #359
      0100139FH   LINE      CODE     ---       #360
      ---         BLOCKEND  ---      ---       LVL=0

      0100121BH   BLOCK     CODE     ---       LVL=0
      00000007H   SYMBOL    DATA     BYTE      ACMPn
      00000005H   SYMBOL    DATA     BYTE      HYSSelect
      00000003H   SYMBOL    DATA     BYTE      HYSValue
      0100121BH   BLOCK     CODE     NEAR LAB  LVL=1
      00000006H   SYMBOL    DATA     BYTE      Temp
      ---         BLOCKEND  ---      ---       LVL=1
      0100121BH   LINE      CODE     ---       #375
      0100121BH   LINE      CODE     ---       #376
      0100121BH   LINE      CODE     ---       #377
      0100121BH   LINE      CODE     ---       #379
      0100121EH   LINE      CODE     ---       #380
      0100121EH   LINE      CODE     ---       #381
      01001223H   LINE      CODE     ---       #382
      01001226H   LINE      CODE     ---       #383
      0100122EH   LINE      CODE     ---       #384
      01001230H   LINE      CODE     ---       #385
      01001230H   LINE      CODE     ---       #386
      01001233H   LINE      CODE     ---       #387
      01001233H   LINE      CODE     ---       #388
      01001238H   LINE      CODE     ---       #389
      0100123BH   LINE      CODE     ---       #390
      01001243H   LINE      CODE     ---       #391
      01001245H   LINE      CODE     ---       #392
      01001245H   LINE      CODE     ---       #393
      ---         BLOCKEND  ---      ---       LVL=0

      010018D9H   BLOCK     CODE     ---       LVL=0
      00000007H   SYMBOL    DATA     BYTE      ACMPn
      010018D9H   LINE      CODE     ---       #402
      010018D9H   LINE      CODE     ---       #403
      010018D9H   LINE      CODE     ---       #404
      010018DCH   LINE      CODE     ---       #405
      010018DCH   LINE      CODE     ---       #406
      010018E3H   LINE      CODE     ---       #407
      010018E3H   LINE      CODE     ---       #408
      010018E6H   LINE      CODE     ---       #409
      010018E6H   LINE      CODE     ---       #410
      010018EDH   LINE      CODE     ---       #411
      010018EDH   LINE      CODE     ---       #412
      ---         BLOCKEND  ---      ---       LVL=0

      01001066H   BLOCK     CODE     ---       LVL=0
      00000007H   SYMBOL    DATA     BYTE      ACMPn
      00000005H   SYMBOL    DATA     BYTE      OffsetAdjMode
LX51 LINKER/LOCATER V4.66.1.0                                                         09/07/2023  18:22:32  PAGE 42


      00000003H   SYMBOL    DATA     BYTE      AdjVlue
      01001066H   BLOCK     CODE     NEAR LAB  LVL=1
      00000006H   SYMBOL    DATA     BYTE      Temp
      ---         BLOCKEND  ---      ---       LVL=1
      01001066H   LINE      CODE     ---       #424
      01001066H   LINE      CODE     ---       #425
      01001066H   LINE      CODE     ---       #426
      01001066H   LINE      CODE     ---       #428
      01001069H   LINE      CODE     ---       #429
      01001069H   LINE      CODE     ---       #430
      0100106CH   LINE      CODE     ---       #431
      0100106CH   LINE      CODE     ---       #432
      01001071H   LINE      CODE     ---       #433
      01001074H   LINE      CODE     ---       #434
      01001077H   LINE      CODE     ---       #435
      01001079H   LINE      CODE     ---       #437
      0100107FH   LINE      CODE     ---       #438
      0100107FH   LINE      CODE     ---       #439
      0100107FH   LINE      CODE     ---       #440
      01001082H   LINE      CODE     ---       #441
      01001082H   LINE      CODE     ---       #442
      01001085H   LINE      CODE     ---       #443
      01001085H   LINE      CODE     ---       #444
      0100108AH   LINE      CODE     ---       #445
      0100108DH   LINE      CODE     ---       #446
      01001090H   LINE      CODE     ---       #447
      01001092H   LINE      CODE     ---       #449
      01001098H   LINE      CODE     ---       #450
      01001098H   LINE      CODE     ---       #451
      01001098H   LINE      CODE     ---       #452
      ---         BLOCKEND  ---      ---       LVL=0

      0100196BH   BLOCK     CODE     ---       LVL=0
      ---         BLOCKEND  ---      ---       LVL=0

      01001973H   BLOCK     CODE     ---       LVL=0
      00000032H   SYMBOL    DATA     BYTE      i
      01001973H   BLOCK     CODE     NEAR LAB  LVL=1
      00000032H   SYMBOL    DATA     BYTE      i
      ---         BLOCKEND  ---      ---       LVL=1
      01001973H   LINE      CODE     ---       #461
      01001973H   LINE      CODE     ---       #462
      01001973H   LINE      CODE     ---       #464
      01001976H   LINE      CODE     ---       #465
      0100197EH   LINE      CODE     ---       #466
      ---         BLOCKEND  ---      ---       LVL=0

      01000412H   BLOCK     CODE     ---       LVL=0
      00000022H   SYMBOL    DATA     BYTE      ACMPn
      00000023H   SYMBOL    DATA     BYTE      ACMPMode
      00000001H   SYMBOL    DATA     BYTE      InputPort
      00000025H   SYMBOL    DATA     BYTE      NegVref_K
      01000418H   BLOCK     CODE     NEAR LAB  LVL=1
      00000004H   SYMBOL    DATA     BYTE      temp
      00000026H   SYMBOL    DATA     BYTE      AcmpOut
      00000027H   SYMBOL    DATA     BYTE      Adjvalue
      00000002H   SYMBOL    DATA     BYTE      ACMPCON1Temp
      ---         BLOCKEND  ---      ---       LVL=1
      01000412H   LINE      CODE     ---       #480
      01000418H   LINE      CODE     ---       #481
      01000418H   LINE      CODE     ---       #484
      0100041BH   LINE      CODE     ---       #485
      01000422H   LINE      CODE     ---       #486
      01000422H   LINE      CODE     ---       #488
      01000426H   LINE      CODE     ---       #490
LX51 LINKER/LOCATER V4.66.1.0                                                         09/07/2023  18:22:32  PAGE 43


      0100042AH   LINE      CODE     ---       #491
      0100042AH   LINE      CODE     ---       #492
      01000431H   LINE      CODE     ---       #494
      01000436H   LINE      CODE     ---       #495
      01000439H   LINE      CODE     ---       #496
      0100044EH   LINE      CODE     ---       #497
      0100044EH   LINE      CODE     ---       #498
      0100044EH   LINE      CODE     ---       #499
      01000454H   LINE      CODE     ---       #500
      01000454H   LINE      CODE     ---       #501
      01000456H   LINE      CODE     ---       #502
      01000456H   LINE      CODE     ---       #503
      0100045CH   LINE      CODE     ---       #504
      0100045FH   LINE      CODE     ---       #505
      0100045FH   LINE      CODE     ---       #506
      01000461H   LINE      CODE     ---       #507
      01000461H   LINE      CODE     ---       #508
      01000467H   LINE      CODE     ---       #509
      0100046AH   LINE      CODE     ---       #510
      0100046AH   LINE      CODE     ---       #511
      0100046CH   LINE      CODE     ---       #512
      0100046CH   LINE      CODE     ---       #513
      01000472H   LINE      CODE     ---       #514
      01000475H   LINE      CODE     ---       #515
      01000475H   LINE      CODE     ---       #516
      01000477H   LINE      CODE     ---       #517
      01000477H   LINE      CODE     ---       #518
      0100047DH   LINE      CODE     ---       #519
      01000480H   LINE      CODE     ---       #520
      01000480H   LINE      CODE     ---       #521
      01000482H   LINE      CODE     ---       #522
      01000482H   LINE      CODE     ---       #523
      01000485H   LINE      CODE     ---       #524
      01000485H   LINE      CODE     ---       #525
      01000487H   LINE      CODE     ---       #526
      01000487H   LINE      CODE     ---       #527
      0100048AH   LINE      CODE     ---       #528
      0100048FH   LINE      CODE     ---       #529
      0100048FH   LINE      CODE     ---       #530
      0100048FH   LINE      CODE     ---       #531
      0100048FH   LINE      CODE     ---       #532
      01000494H   LINE      CODE     ---       #533
      01000494H   LINE      CODE     ---       #534
      0100049BH   LINE      CODE     ---       #535
      010004A2H   LINE      CODE     ---       #536
      010004A2H   LINE      CODE     ---       #537
      010004A8H   LINE      CODE     ---       #538
      010004A8H   LINE      CODE     ---       #539
      010004AFH   LINE      CODE     ---       #540
      010004B6H   LINE      CODE     ---       #541
      010004BFH   LINE      CODE     ---       #542
      010004C2H   LINE      CODE     ---       #543
      010004C2H   LINE      CODE     ---       #544
      010004C7H   LINE      CODE     ---       #545
      010004C7H   LINE      CODE     ---       #546
      010004C7H   LINE      CODE     ---       #549
      010004CEH   LINE      CODE     ---       #550
      010004D4H   LINE      CODE     ---       #551
      010004DBH   LINE      CODE     ---       #554
      010004E0H   LINE      CODE     ---       #555
      010004E3H   LINE      CODE     ---       #557
      010004E8H   LINE      CODE     ---       #558
      010004EDH   LINE      CODE     ---       #559
      010004EFH   LINE      CODE     ---       #560
      010004EFH   LINE      CODE     ---       #561
LX51 LINKER/LOCATER V4.66.1.0                                                         09/07/2023  18:22:32  PAGE 44


      010004EFH   LINE      CODE     ---       #562
      010004EFH   LINE      CODE     ---       #563
      010004F2H   LINE      CODE     ---       #564
      010004F5H   LINE      CODE     ---       #565
      010004FFH   LINE      CODE     ---       #566
      010004FFH   LINE      CODE     ---       #567
      01000501H   LINE      CODE     ---       #568
      01000503H   LINE      CODE     ---       #569
      01000503H   LINE      CODE     ---       #570
      01000507H   LINE      CODE     ---       #572
      0100050AH   LINE      CODE     ---       #573
      0100050AH   LINE      CODE     ---       #574
      0100050DH   LINE      CODE     ---       #575
      0100050DH   LINE      CODE     ---       #576
      01000516H   LINE      CODE     ---       #577
      01000516H   LINE      CODE     ---       #579
      0100051BH   LINE      CODE     ---       #581
      0100051FH   LINE      CODE     ---       #582
      0100051FH   LINE      CODE     ---       #583
      01000526H   LINE      CODE     ---       #585
      0100052BH   LINE      CODE     ---       #586
      0100052EH   LINE      CODE     ---       #587
      01000543H   LINE      CODE     ---       #588
      01000543H   LINE      CODE     ---       #589
      01000543H   LINE      CODE     ---       #590
      01000549H   LINE      CODE     ---       #591
      01000549H   LINE      CODE     ---       #592
      0100054BH   LINE      CODE     ---       #593
      0100054BH   LINE      CODE     ---       #594
      01000551H   LINE      CODE     ---       #595
      01000554H   LINE      CODE     ---       #596
      01000554H   LINE      CODE     ---       #597
      01000556H   LINE      CODE     ---       #598
      01000556H   LINE      CODE     ---       #599
      0100055CH   LINE      CODE     ---       #600
      0100055FH   LINE      CODE     ---       #601
      0100055FH   LINE      CODE     ---       #602
      01000561H   LINE      CODE     ---       #603
      01000561H   LINE      CODE     ---       #604
      01000567H   LINE      CODE     ---       #605
      0100056AH   LINE      CODE     ---       #606
      0100056AH   LINE      CODE     ---       #607
      0100056CH   LINE      CODE     ---       #608
      0100056CH   LINE      CODE     ---       #609
      01000572H   LINE      CODE     ---       #610
      01000575H   LINE      CODE     ---       #611
      01000575H   LINE      CODE     ---       #612
      01000577H   LINE      CODE     ---       #613
      01000577H   LINE      CODE     ---       #614
      0100057AH   LINE      CODE     ---       #615
      0100057AH   LINE      CODE     ---       #616
      0100057CH   LINE      CODE     ---       #617
      0100057CH   LINE      CODE     ---       #618
      0100057FH   LINE      CODE     ---       #619
      01000584H   LINE      CODE     ---       #620
      01000584H   LINE      CODE     ---       #621
      01000584H   LINE      CODE     ---       #622
      01000584H   LINE      CODE     ---       #623
      01000589H   LINE      CODE     ---       #624
      01000589H   LINE      CODE     ---       #625
      01000590H   LINE      CODE     ---       #626
      01000597H   LINE      CODE     ---       #627
      01000597H   LINE      CODE     ---       #628
      0100059DH   LINE      CODE     ---       #629
      0100059DH   LINE      CODE     ---       #630
LX51 LINKER/LOCATER V4.66.1.0                                                         09/07/2023  18:22:32  PAGE 45


      010005A4H   LINE      CODE     ---       #631
      010005ABH   LINE      CODE     ---       #632
      010005B4H   LINE      CODE     ---       #633
      010005B7H   LINE      CODE     ---       #634
      010005B7H   LINE      CODE     ---       #635
      010005BCH   LINE      CODE     ---       #636
      010005BCH   LINE      CODE     ---       #637
      010005BCH   LINE      CODE     ---       #639
      010005C3H   LINE      CODE     ---       #640
      010005C9H   LINE      CODE     ---       #641
      010005D0H   LINE      CODE     ---       #643
      010005D5H   LINE      CODE     ---       #644
      010005D8H   LINE      CODE     ---       #646
      010005DDH   LINE      CODE     ---       #648
      010005E2H   LINE      CODE     ---       #649
      010005E4H   LINE      CODE     ---       #650
      010005E4H   LINE      CODE     ---       #651
      010005E4H   LINE      CODE     ---       #652
      010005E4H   LINE      CODE     ---       #653
      010005E7H   LINE      CODE     ---       #654
      010005EAH   LINE      CODE     ---       #655
      010005F4H   LINE      CODE     ---       #656
      010005F4H   LINE      CODE     ---       #657
      010005F6H   LINE      CODE     ---       #658
      010005F8H   LINE      CODE     ---       #659
      010005F8H   LINE      CODE     ---       #660
      010005FCH   LINE      CODE     ---       #662
      01000601H   LINE      CODE     ---       #663
      01000603H   LINE      CODE     ---       #664
      01000606H   LINE      CODE     ---       #665
      01000606H   LINE      CODE     ---       #666
      01000608H   LINE      CODE     ---       #667
      ---         BLOCKEND  ---      ---       LVL=0

      ---         MODULE    ---      ---       ADC
      01001AD8H   PUBLIC    CODE     ---       _ADC_ConfigADCVref
      01001E10H   PUBLIC    CODE     ---       ADC_DisableLDO
      01001E08H   PUBLIC    CODE     ---       ADC_EnableLDO
      01000046H   PUBLIC    CODE     ---       ADC_ClearIntFlag
      01001D45H   PUBLIC    CODE     ---       ADC_GetIntFlag
      0100003EH   PUBLIC    CODE     ---       ADC_DisableInt
      01000036H   PUBLIC    CODE     ---       ADC_EnableInt
      01001311H   PUBLIC    CODE     ---       ADC_GetADCResult
      01001D3BH   PUBLIC    CODE     ---       ADC_GetCmpResult
      010019A5H   PUBLIC    CODE     ---       _ADC_ConfigCompareValue
      01001CCEH   PUBLIC    CODE     ---       _ADC_ConfigADCBrake
      01001A70H   PUBLIC    CODE     ---       _ADC_SetTrigDelayTime
      01001A61H   PUBLIC    CODE     ---       _ADC_ConfigAN31
      0100159FH   PUBLIC    CODE     ---       _ADC_EnableChannel
      010018EEH   PUBLIC    CODE     ---       _ADC_ConfigHardwareTrig
      0100002EH   PUBLIC    CODE     ---       ADC_DisableHardwareTrig
      01000026H   PUBLIC    CODE     ---       ADC_EnableHardwareTrig
      01001815H   PUBLIC    CODE     ---       _ADC_ConfigRunMode
      0100001EH   PUBLIC    CODE     ---       ADC_Stop
      01000016H   PUBLIC    CODE     ---       ADC_Start
      000000C8H   SFRSYM    DATA     BIT       T2I0
      000000C3H   SFRSYM    DATA     BYTE      CCH1
      00000080H   SFRSYM    DATA     BYTE      P0
      000000C8H.1 SFRSYM    DATA     BIT       T2I1
      000000C5H   SFRSYM    DATA     BYTE      CCH2
      00000090H   SFRSYM    DATA     BYTE      P1
      000000C7H   SFRSYM    DATA     BYTE      CCH3
      000000ACH   SFRSYM    DATA     BYTE      P0EXTIE
      000000A0H   SFRSYM    DATA     BYTE      P2
      000000B4H   SFRSYM    DATA     BYTE      P0EXTIF
LX51 LINKER/LOCATER V4.66.1.0                                                         09/07/2023  18:22:32  PAGE 46


      000000B0H   SFRSYM    DATA     BYTE      P3
      000000ADH   SFRSYM    DATA     BYTE      P1EXTIE
      000000D0H.6 SFRSYM    DATA     BIT       AC
      000000FFH   SFRSYM    DATA     BYTE      MCTRL
      000000C2H   SFRSYM    DATA     BYTE      CCL1
      000000B5H   SFRSYM    DATA     BYTE      P1EXTIF
      000000AEH   SFRSYM    DATA     BYTE      P2EXTIE
      000000C4H   SFRSYM    DATA     BYTE      CCL2
      000000B6H   SFRSYM    DATA     BYTE      P2EXTIF
      000000AFH   SFRSYM    DATA     BYTE      P3EXTIE
      000000A8H.7 SFRSYM    DATA     BIT       EA
      000000C6H   SFRSYM    DATA     BYTE      CCL3
      000000B7H   SFRSYM    DATA     BYTE      P3EXTIF
      000000AAH   SFRSYM    DATA     BYTE      EIE2
      000000B2H   SFRSYM    DATA     BYTE      EIF2
      000000C8H.3 SFRSYM    DATA     BIT       T2R0
      000000C8H.4 SFRSYM    DATA     BIT       T2R1
      00000083H   SFRSYM    DATA     BYTE      DPH0
      000000A8H   SFRSYM    DATA     BYTE      IE
      00000085H   SFRSYM    DATA     BYTE      DPH1
      000000B9H   SFRSYM    DATA     BYTE      EIP1
      000000BAH   SFRSYM    DATA     BYTE      EIP2
      00000082H   SFRSYM    DATA     BYTE      DPL0
      00000084H   SFRSYM    DATA     BYTE      DPL1
      000000C8H.6 SFRSYM    DATA     BIT       I3FR
      000000CFH   SFRSYM    DATA     BYTE      T2IE
      00000096H   SFRSYM    DATA     BYTE      TA
      000000C9H   SFRSYM    DATA     BYTE      T2IF
      000000C8H.2 SFRSYM    DATA     BIT       T2CM
      000000DFH   SFRSYM    DATA     BYTE      ADCON0
      000000DEH   SFRSYM    DATA     BYTE      ADCON1
      000000E9H   SFRSYM    DATA     BYTE      ADCON2
      000000B8H   SFRSYM    DATA     BYTE      IP
      000000CEH   SFRSYM    DATA     BYTE      CCEN
      000000D0H.7 SFRSYM    DATA     BIT       CY
      000000D2H   SFRSYM    DATA     BYTE      T34MOD
      00000093H   SFRSYM    DATA     BYTE      DPX0
      00000095H   SFRSYM    DATA     BYTE      DPX1
      000000F4H   SFRSYM    DATA     BYTE      I2CMSA
      000000F5H   SFRSYM    DATA     BYTE      I2CMCR
      00000081H   SFRSYM    DATA     BYTE      SP
      000000D0H.2 SFRSYM    DATA     BIT       OV
      000000F2H   SFRSYM    DATA     BYTE      I2CSCR
      000000C8H.7 SFRSYM    DATA     BIT       T2PS
      000000D1H   SFRSYM    DATA     BYTE      ADCMPC
      000000CBH   SFRSYM    DATA     BYTE      RLDH
      000000D5H   SFRSYM    DATA     BYTE      ADCMPH
      000000CAH   SFRSYM    DATA     BYTE      RLDL
      00000080H   SFRSYM    DATA     BIT       P00
      00000090H   SFRSYM    DATA     BIT       P10
      00000080H.1 SFRSYM    DATA     BIT       P01
      000000F7H   SFRSYM    DATA     BYTE      I2CMTP
      00000099H   SFRSYM    DATA     BYTE      SBUF
      00000087H   SFRSYM    DATA     BYTE      PCON
      000000A0H   SFRSYM    DATA     BIT       P20
      00000090H.1 SFRSYM    DATA     BIT       P11
      00000080H.2 SFRSYM    DATA     BIT       P02
      000000F5H   SFRSYM    DATA     BYTE      I2CMSR
      000000B0H   SFRSYM    DATA     BIT       P30
      000000A0H.1 SFRSYM    DATA     BIT       P21
      00000090H.2 SFRSYM    DATA     BIT       P12
      00000080H.3 SFRSYM    DATA     BIT       P03
      000000D4H   SFRSYM    DATA     BYTE      ADCMPL
      000000B0H.1 SFRSYM    DATA     BIT       P31
      000000A0H.2 SFRSYM    DATA     BIT       P22
LX51 LINKER/LOCATER V4.66.1.0                                                         09/07/2023  18:22:32  PAGE 47


      00000090H.3 SFRSYM    DATA     BIT       P13
      00000080H.4 SFRSYM    DATA     BIT       P04
      000000B0H.2 SFRSYM    DATA     BIT       P32
      000000A0H.3 SFRSYM    DATA     BIT       P23
      00000090H.4 SFRSYM    DATA     BIT       P14
      00000080H.5 SFRSYM    DATA     BIT       P05
      00000089H   SFRSYM    DATA     BYTE      TMOD
      00000088H   SFRSYM    DATA     BYTE      TCON
      000000B0H.3 SFRSYM    DATA     BIT       P33
      000000A0H.4 SFRSYM    DATA     BIT       P24
      00000090H.5 SFRSYM    DATA     BIT       P15
      00000080H.6 SFRSYM    DATA     BIT       P06
      000000B0H.4 SFRSYM    DATA     BIT       P34
      000000A0H.5 SFRSYM    DATA     BIT       P25
      00000090H.6 SFRSYM    DATA     BIT       P16
      00000080H.7 SFRSYM    DATA     BIT       P07
      000000B0H.5 SFRSYM    DATA     BIT       P35
      000000A0H.6 SFRSYM    DATA     BIT       P26
      00000090H.7 SFRSYM    DATA     BIT       P17
      000000F2H   SFRSYM    DATA     BYTE      I2CSSR
      000000B0H.6 SFRSYM    DATA     BIT       P36
      000000A0H.7 SFRSYM    DATA     BIT       P27
      000000ECH   SFRSYM    DATA     BYTE      SPCR
      000000DDH   SFRSYM    DATA     BYTE      ADRESH
      000000B0H.7 SFRSYM    DATA     BIT       P37
      000000EEH   SFRSYM    DATA     BYTE      SPDR
      000000EFH   SFRSYM    DATA     BYTE      SSCR
      000000D3H   SFRSYM    DATA     BYTE      ADDLYL
      000000DCH   SFRSYM    DATA     BYTE      ADRESL
      00000088H.1 SFRSYM    DATA     BIT       IE0
      00000088H.3 SFRSYM    DATA     BIT       IE1
      0000008FH   SFRSYM    DATA     BYTE      CLKDIV
      000000F0H   SFRSYM    DATA     BYTE      B
      00000091H   SFRSYM    DATA     BYTE      FUNCCR
      0000009AH   SFRSYM    DATA     BYTE      P0TRIS
      000000A1H   SFRSYM    DATA     BYTE      P1TRIS
      000000A2H   SFRSYM    DATA     BYTE      P2TRIS
      000000E0H   SFRSYM    DATA     BYTE      ACC
      000000A3H   SFRSYM    DATA     BYTE      P3TRIS
      000000A8H.4 SFRSYM    DATA     BIT       ES0
      000000A8H.6 SFRSYM    DATA     BIT       ES1
      000000A8H.1 SFRSYM    DATA     BIT       ET0
      000000EDH   SFRSYM    DATA     BYTE      SPSR
      000000A8H.3 SFRSYM    DATA     BIT       ET1
      00000088H.5 SFRSYM    DATA     BIT       TF0
      000000A8H.5 SFRSYM    DATA     BIT       ET2
      00000098H   SFRSYM    DATA     BIT       RI0
      00000088H.7 SFRSYM    DATA     BIT       TF1
      0000008CH   SFRSYM    DATA     BYTE      TH0
      000000A8H   SFRSYM    DATA     BIT       EX0
      00000098H.1 SFRSYM    DATA     BIT       TI0
      00000088H   SFRSYM    DATA     BIT       IT0
      0000008DH   SFRSYM    DATA     BYTE      TH1
      000000A8H.2 SFRSYM    DATA     BIT       EX1
      00000088H.2 SFRSYM    DATA     BIT       IT1
      000000CDH   SFRSYM    DATA     BYTE      TH2
      000000D0H   SFRSYM    DATA     BIT       P
      000000DBH   SFRSYM    DATA     BYTE      TH3
      000000E3H   SFRSYM    DATA     BYTE      TH4
      0000008AH   SFRSYM    DATA     BYTE      TL0
      0000008BH   SFRSYM    DATA     BYTE      TL1
      00000098H.2 SFRSYM    DATA     BIT       U0RB8
      000000CCH   SFRSYM    DATA     BYTE      TL2
      000000B8H.4 SFRSYM    DATA     BIT       PS0
      000000DAH   SFRSYM    DATA     BYTE      TL3
LX51 LINKER/LOCATER V4.66.1.0                                                         09/07/2023  18:22:32  PAGE 48


      000000BFH   SFRSYM    DATA     BYTE      BUZCON
      000000B8H.6 SFRSYM    DATA     BIT       PS1
      000000B8H.1 SFRSYM    DATA     BIT       PT0
      00000098H.3 SFRSYM    DATA     BIT       U0TB8
      000000E2H   SFRSYM    DATA     BYTE      TL4
      000000D0H.3 SFRSYM    DATA     BIT       RS0
      000000B8H.3 SFRSYM    DATA     BIT       PT1
      000000D0H.4 SFRSYM    DATA     BIT       RS1
      000000B8H.5 SFRSYM    DATA     BIT       PT2
      00000098H.7 SFRSYM    DATA     BIT       U0SM0
      00000088H.4 SFRSYM    DATA     BIT       TR0
      000000BEH   SFRSYM    DATA     BYTE      BUZDIV
      00000098H.6 SFRSYM    DATA     BIT       U0SM1
      00000088H.6 SFRSYM    DATA     BIT       TR1
      000000B8H   SFRSYM    DATA     BIT       PX0
      00000098H.5 SFRSYM    DATA     BIT       U0SM2
      000000B8H.2 SFRSYM    DATA     BIT       PX1
      000000BDH   SFRSYM    DATA     BYTE      WUTCRH
      00000099H   SFRSYM    DATA     BYTE      SBUF0
      000000EBH   SFRSYM    DATA     BYTE      SBUF1
      000000BCH   SFRSYM    DATA     BYTE      WUTCRL
      00000098H   SFRSYM    DATA     BYTE      SCON0
      000000EAH   SFRSYM    DATA     BYTE      SCON1
      000000C8H   SFRSYM    DATA     BYTE      T2CON
      00000086H   SFRSYM    DATA     BYTE      DPS
      000000FEH   SFRSYM    DATA     BYTE      MDATA
      000000F6H   SFRSYM    DATA     BYTE      I2CMBUF
      000000F1H   SFRSYM    DATA     BYTE      I2CSADR
      00000098H.4 SFRSYM    DATA     BIT       U0REN
      000000C8H.5 SFRSYM    DATA     BIT       CAPES
      000000FDH   SFRSYM    DATA     BYTE      MADRH
      0000008EH   SFRSYM    DATA     BYTE      CKCON
      000000F3H   SFRSYM    DATA     BYTE      I2CSBUF
      000000FCH   SFRSYM    DATA     BYTE      MADRL
      000000D0H.5 SFRSYM    DATA     BIT       F0
      000000FBH   SFRSYM    DATA     BYTE      MLOCK
      000000D0H   SFRSYM    DATA     BYTE      PSW
      00000097H   SFRSYM    DATA     BYTE      WDCON

      01000016H   BLOCK     CODE     ---       LVL=0
      01000016H   LINE      CODE     ---       #66
      01000016H   LINE      CODE     ---       #67
      01000016H   LINE      CODE     ---       #68
      01000019H   LINE      CODE     ---       #69
      ---         BLOCKEND  ---      ---       LVL=0

      0100001EH   BLOCK     CODE     ---       LVL=0
      0100001EH   LINE      CODE     ---       #75
      0100001EH   LINE      CODE     ---       #76
      0100001EH   LINE      CODE     ---       #77
      01000021H   LINE      CODE     ---       #78
      ---         BLOCKEND  ---      ---       LVL=0

      01001815H   BLOCK     CODE     ---       LVL=0
      00000007H   SYMBOL    DATA     BYTE      ADCClkDiv
      00000005H   SYMBOL    DATA     BYTE      ADCResultTpye
      01001815H   BLOCK     CODE     NEAR LAB  LVL=1
      00000006H   SYMBOL    DATA     BYTE      Temp
      ---         BLOCKEND  ---      ---       LVL=1
      01001815H   LINE      CODE     ---       #88
      01001815H   LINE      CODE     ---       #89
      01001815H   LINE      CODE     ---       #90
      01001815H   LINE      CODE     ---       #92
      01001817H   LINE      CODE     ---       #93
      0100181AH   LINE      CODE     ---       #94
LX51 LINKER/LOCATER V4.66.1.0                                                         09/07/2023  18:22:32  PAGE 49


      0100181DH   LINE      CODE     ---       #95
      0100181FH   LINE      CODE     ---       #97
      01001821H   LINE      CODE     ---       #98
      01001824H   LINE      CODE     ---       #99
      0100182AH   LINE      CODE     ---       #100
      0100182CH   LINE      CODE     ---       #101
      ---         BLOCKEND  ---      ---       LVL=0

      01000026H   BLOCK     CODE     ---       LVL=0
      01000026H   LINE      CODE     ---       #110
      01000026H   LINE      CODE     ---       #111
      01000026H   LINE      CODE     ---       #112
      01000029H   LINE      CODE     ---       #113
      ---         BLOCKEND  ---      ---       LVL=0

      0100002EH   BLOCK     CODE     ---       LVL=0
      0100002EH   LINE      CODE     ---       #121
      0100002EH   LINE      CODE     ---       #122
      0100002EH   LINE      CODE     ---       #123
      01000031H   LINE      CODE     ---       #124
      ---         BLOCKEND  ---      ---       LVL=0

      010018EEH   BLOCK     CODE     ---       LVL=0
      00000007H   SYMBOL    DATA     BYTE      ADCTGSource
      00000005H   SYMBOL    DATA     BYTE      TGMode
      010018EEH   BLOCK     CODE     NEAR LAB  LVL=1
      00000006H   SYMBOL    DATA     BYTE      Temp
      ---         BLOCKEND  ---      ---       LVL=1
      010018EEH   LINE      CODE     ---       #136
      010018EEH   LINE      CODE     ---       #137
      010018EEH   LINE      CODE     ---       #138
      010018EEH   LINE      CODE     ---       #140
      010018F0H   LINE      CODE     ---       #141
      010018F3H   LINE      CODE     ---       #142
      01001900H   LINE      CODE     ---       #143
      01001902H   LINE      CODE     ---       #145
      ---         BLOCKEND  ---      ---       LVL=0

      0100159FH   BLOCK     CODE     ---       LVL=0
      00000007H   SYMBOL    DATA     BYTE      ADCChannel
      0100159FH   BLOCK     CODE     NEAR LAB  LVL=1
      00000006H   SYMBOL    DATA     BYTE      Temp
      ---         BLOCKEND  ---      ---       LVL=1
      0100159FH   LINE      CODE     ---       #154
      0100159FH   LINE      CODE     ---       #155
      0100159FH   LINE      CODE     ---       #156
      0100159FH   LINE      CODE     ---       #158
      010015A1H   LINE      CODE     ---       #159
      010015A4H   LINE      CODE     ---       #160
      010015AEH   LINE      CODE     ---       #161
      010015B0H   LINE      CODE     ---       #163
      010015B2H   LINE      CODE     ---       #164
      010015B5H   LINE      CODE     ---       #165
      010015BAH   LINE      CODE     ---       #166
      010015BCH   LINE      CODE     ---       #168
      ---         BLOCKEND  ---      ---       LVL=0

      01001A61H   BLOCK     CODE     ---       LVL=0
      00000007H   SYMBOL    DATA     BYTE      An31Channel
      01001A61H   BLOCK     CODE     NEAR LAB  LVL=1
      00000006H   SYMBOL    DATA     BYTE      Temp
      ---         BLOCKEND  ---      ---       LVL=1
      01001A61H   LINE      CODE     ---       #177
      01001A61H   LINE      CODE     ---       #178
      01001A61H   LINE      CODE     ---       #179
LX51 LINKER/LOCATER V4.66.1.0                                                         09/07/2023  18:22:32  PAGE 50


      01001A61H   LINE      CODE     ---       #181
      01001A63H   LINE      CODE     ---       #182
      01001A66H   LINE      CODE     ---       #183
      01001A6DH   LINE      CODE     ---       #184
      01001A6FH   LINE      CODE     ---       #186
      ---         BLOCKEND  ---      ---       LVL=0

      01001A70H   BLOCK     CODE     ---       LVL=0
      00000006H   SYMBOL    DATA     WORD      TrigTime
      01001A70H   BLOCK     CODE     NEAR LAB  LVL=1
      00000005H   SYMBOL    DATA     BYTE      Temp
      ---         BLOCKEND  ---      ---       LVL=1
      01001A70H   LINE      CODE     ---       #195
      01001A70H   LINE      CODE     ---       #196
      01001A70H   LINE      CODE     ---       #197
      01001A70H   LINE      CODE     ---       #199
      01001A72H   LINE      CODE     ---       #200
      01001A74H   LINE      CODE     ---       #201
      01001A77H   LINE      CODE     ---       #202
      01001A7CH   LINE      CODE     ---       #203
      01001A7EH   LINE      CODE     ---       #205
      ---         BLOCKEND  ---      ---       LVL=0

      01001CCEH   BLOCK     CODE     ---       LVL=0
      00000007H   SYMBOL    DATA     BYTE      ADCBrake
      01001CCEH   BLOCK     CODE     NEAR LAB  LVL=1
      00000006H   SYMBOL    DATA     BYTE      Temp
      ---         BLOCKEND  ---      ---       LVL=1
      01001CCEH   LINE      CODE     ---       #215
      01001CCEH   LINE      CODE     ---       #216
      01001CCEH   LINE      CODE     ---       #217
      01001CCEH   LINE      CODE     ---       #219
      01001CD0H   LINE      CODE     ---       #220
      01001CD3H   LINE      CODE     ---       #221
      01001CD6H   LINE      CODE     ---       #222
      01001CD8H   LINE      CODE     ---       #224
      ---         BLOCKEND  ---      ---       LVL=0

      010019A5H   BLOCK     CODE     ---       LVL=0
      00000006H   SYMBOL    DATA     WORD      ADCCompareValue
      010019A5H   LINE      CODE     ---       #233
      010019A5H   LINE      CODE     ---       #234
      010019A5H   LINE      CODE     ---       #235
      010019AAH   LINE      CODE     ---       #236
      010019B7H   LINE      CODE     ---       #237
      ---         BLOCKEND  ---      ---       LVL=0

      01001D3BH   BLOCK     CODE     ---       LVL=0
      01001D3BH   LINE      CODE     ---       #246
      01001D3BH   LINE      CODE     ---       #247
      01001D3BH   LINE      CODE     ---       #248
      01001D44H   LINE      CODE     ---       #249
      ---         BLOCKEND  ---      ---       LVL=0

      01001311H   BLOCK     CODE     ---       LVL=0
      01001311H   LINE      CODE     ---       #258
      01001311H   LINE      CODE     ---       #259
      01001311H   LINE      CODE     ---       #260
      01001318H   LINE      CODE     ---       #261
      01001318H   LINE      CODE     ---       #262
      0100132BH   LINE      CODE     ---       #263
      0100132BH   LINE      CODE     ---       #264
      01001335H   LINE      CODE     ---       #265
      ---         BLOCKEND  ---      ---       LVL=0

LX51 LINKER/LOCATER V4.66.1.0                                                         09/07/2023  18:22:32  PAGE 51


      01000036H   BLOCK     CODE     ---       LVL=0
      01000036H   LINE      CODE     ---       #274
      01000036H   LINE      CODE     ---       #275
      01000036H   LINE      CODE     ---       #276
      01000039H   LINE      CODE     ---       #277
      ---         BLOCKEND  ---      ---       LVL=0

      0100003EH   BLOCK     CODE     ---       LVL=0
      0100003EH   LINE      CODE     ---       #285
      0100003EH   LINE      CODE     ---       #286
      0100003EH   LINE      CODE     ---       #287
      01000041H   LINE      CODE     ---       #288
      ---         BLOCKEND  ---      ---       LVL=0

      01001D45H   BLOCK     CODE     ---       LVL=0
      01001D45H   LINE      CODE     ---       #296
      01001D45H   LINE      CODE     ---       #297
      01001D45H   LINE      CODE     ---       #298
      01001D4EH   LINE      CODE     ---       #299
      ---         BLOCKEND  ---      ---       LVL=0

      01000046H   BLOCK     CODE     ---       LVL=0
      01000046H   LINE      CODE     ---       #307
      01000046H   LINE      CODE     ---       #308
      01000046H   LINE      CODE     ---       #309
      01000049H   LINE      CODE     ---       #310
      ---         BLOCKEND  ---      ---       LVL=0

      01001E08H   BLOCK     CODE     ---       LVL=0
      01001E08H   LINE      CODE     ---       #319
      01001E08H   LINE      CODE     ---       #320
      01001E08H   LINE      CODE     ---       #321
      01001E0FH   LINE      CODE     ---       #322
      ---         BLOCKEND  ---      ---       LVL=0

      01001E10H   BLOCK     CODE     ---       LVL=0
      01001E10H   LINE      CODE     ---       #330
      01001E10H   LINE      CODE     ---       #331
      01001E10H   LINE      CODE     ---       #332
      01001E17H   LINE      CODE     ---       #333
      ---         BLOCKEND  ---      ---       LVL=0

      01001AD8H   BLOCK     CODE     ---       LVL=0
      00000007H   SYMBOL    DATA     BYTE      ADCVref
      01001AD8H   BLOCK     CODE     NEAR LAB  LVL=1
      00000006H   SYMBOL    DATA     BYTE      Temp
      ---         BLOCKEND  ---      ---       LVL=1
      01001AD8H   LINE      CODE     ---       #344
      01001AD8H   LINE      CODE     ---       #345
      01001AD8H   LINE      CODE     ---       #346
      01001AD8H   LINE      CODE     ---       #348
      01001ADDH   LINE      CODE     ---       #349
      01001AE0H   LINE      CODE     ---       #350
      01001AE3H   LINE      CODE     ---       #351
      01001AE5H   LINE      CODE     ---       #353
      ---         BLOCKEND  ---      ---       LVL=0

      ---         MODULE    ---      ---       BUZZER
      01001B70H   PUBLIC    CODE     ---       _BUZ_ConfigBuzzer
      01000066H   PUBLIC    CODE     ---       BUZ_DisableBuzzer
      0100004EH   PUBLIC    CODE     ---       BUZ_EnableBuzzer
      000000C8H   SFRSYM    DATA     BIT       T2I0
      000000C3H   SFRSYM    DATA     BYTE      CCH1
      00000080H   SFRSYM    DATA     BYTE      P0
      000000C8H.1 SFRSYM    DATA     BIT       T2I1
LX51 LINKER/LOCATER V4.66.1.0                                                         09/07/2023  18:22:32  PAGE 52


      000000C5H   SFRSYM    DATA     BYTE      CCH2
      00000090H   SFRSYM    DATA     BYTE      P1
      000000C7H   SFRSYM    DATA     BYTE      CCH3
      000000ACH   SFRSYM    DATA     BYTE      P0EXTIE
      000000A0H   SFRSYM    DATA     BYTE      P2
      000000B4H   SFRSYM    DATA     BYTE      P0EXTIF
      000000B0H   SFRSYM    DATA     BYTE      P3
      000000ADH   SFRSYM    DATA     BYTE      P1EXTIE
      000000D0H.6 SFRSYM    DATA     BIT       AC
      000000FFH   SFRSYM    DATA     BYTE      MCTRL
      000000C2H   SFRSYM    DATA     BYTE      CCL1
      000000B5H   SFRSYM    DATA     BYTE      P1EXTIF
      000000AEH   SFRSYM    DATA     BYTE      P2EXTIE
      000000C4H   SFRSYM    DATA     BYTE      CCL2
      000000B6H   SFRSYM    DATA     BYTE      P2EXTIF
      000000AFH   SFRSYM    DATA     BYTE      P3EXTIE
      000000A8H.7 SFRSYM    DATA     BIT       EA
      000000C6H   SFRSYM    DATA     BYTE      CCL3
      000000B7H   SFRSYM    DATA     BYTE      P3EXTIF
      000000AAH   SFRSYM    DATA     BYTE      EIE2
      000000B2H   SFRSYM    DATA     BYTE      EIF2
      000000C8H.3 SFRSYM    DATA     BIT       T2R0
      000000C8H.4 SFRSYM    DATA     BIT       T2R1
      00000083H   SFRSYM    DATA     BYTE      DPH0
      000000A8H   SFRSYM    DATA     BYTE      IE
      00000085H   SFRSYM    DATA     BYTE      DPH1
      000000B9H   SFRSYM    DATA     BYTE      EIP1
      000000BAH   SFRSYM    DATA     BYTE      EIP2
      00000082H   SFRSYM    DATA     BYTE      DPL0
      00000084H   SFRSYM    DATA     BYTE      DPL1
      000000C8H.6 SFRSYM    DATA     BIT       I3FR
      000000CFH   SFRSYM    DATA     BYTE      T2IE
      00000096H   SFRSYM    DATA     BYTE      TA
      000000C9H   SFRSYM    DATA     BYTE      T2IF
      000000C8H.2 SFRSYM    DATA     BIT       T2CM
      000000DFH   SFRSYM    DATA     BYTE      ADCON0
      000000DEH   SFRSYM    DATA     BYTE      ADCON1
      000000E9H   SFRSYM    DATA     BYTE      ADCON2
      000000B8H   SFRSYM    DATA     BYTE      IP
      000000CEH   SFRSYM    DATA     BYTE      CCEN
      000000D0H.7 SFRSYM    DATA     BIT       CY
      000000D2H   SFRSYM    DATA     BYTE      T34MOD
      00000093H   SFRSYM    DATA     BYTE      DPX0
      00000095H   SFRSYM    DATA     BYTE      DPX1
      000000F4H   SFRSYM    DATA     BYTE      I2CMSA
      000000F5H   SFRSYM    DATA     BYTE      I2CMCR
      00000081H   SFRSYM    DATA     BYTE      SP
      000000D0H.2 SFRSYM    DATA     BIT       OV
      000000F2H   SFRSYM    DATA     BYTE      I2CSCR
      000000C8H.7 SFRSYM    DATA     BIT       T2PS
      000000D1H   SFRSYM    DATA     BYTE      ADCMPC
      000000CBH   SFRSYM    DATA     BYTE      RLDH
      000000D5H   SFRSYM    DATA     BYTE      ADCMPH
      000000CAH   SFRSYM    DATA     BYTE      RLDL
      00000080H   SFRSYM    DATA     BIT       P00
      00000090H   SFRSYM    DATA     BIT       P10
      00000080H.1 SFRSYM    DATA     BIT       P01
      000000F7H   SFRSYM    DATA     BYTE      I2CMTP
      00000099H   SFRSYM    DATA     BYTE      SBUF
      00000087H   SFRSYM    DATA     BYTE      PCON
      000000A0H   SFRSYM    DATA     BIT       P20
      00000090H.1 SFRSYM    DATA     BIT       P11
      00000080H.2 SFRSYM    DATA     BIT       P02
      000000F5H   SFRSYM    DATA     BYTE      I2CMSR
      000000B0H   SFRSYM    DATA     BIT       P30
LX51 LINKER/LOCATER V4.66.1.0                                                         09/07/2023  18:22:32  PAGE 53


      000000A0H.1 SFRSYM    DATA     BIT       P21
      00000090H.2 SFRSYM    DATA     BIT       P12
      00000080H.3 SFRSYM    DATA     BIT       P03
      000000D4H   SFRSYM    DATA     BYTE      ADCMPL
      000000B0H.1 SFRSYM    DATA     BIT       P31
      000000A0H.2 SFRSYM    DATA     BIT       P22
      00000090H.3 SFRSYM    DATA     BIT       P13
      00000080H.4 SFRSYM    DATA     BIT       P04
      000000B0H.2 SFRSYM    DATA     BIT       P32
      000000A0H.3 SFRSYM    DATA     BIT       P23
      00000090H.4 SFRSYM    DATA     BIT       P14
      00000080H.5 SFRSYM    DATA     BIT       P05
      00000089H   SFRSYM    DATA     BYTE      TMOD
      00000088H   SFRSYM    DATA     BYTE      TCON
      000000B0H.3 SFRSYM    DATA     BIT       P33
      000000A0H.4 SFRSYM    DATA     BIT       P24
      00000090H.5 SFRSYM    DATA     BIT       P15
      00000080H.6 SFRSYM    DATA     BIT       P06
      000000B0H.4 SFRSYM    DATA     BIT       P34
      000000A0H.5 SFRSYM    DATA     BIT       P25
      00000090H.6 SFRSYM    DATA     BIT       P16
      00000080H.7 SFRSYM    DATA     BIT       P07
      000000B0H.5 SFRSYM    DATA     BIT       P35
      000000A0H.6 SFRSYM    DATA     BIT       P26
      00000090H.7 SFRSYM    DATA     BIT       P17
      000000F2H   SFRSYM    DATA     BYTE      I2CSSR
      000000B0H.6 SFRSYM    DATA     BIT       P36
      000000A0H.7 SFRSYM    DATA     BIT       P27
      000000ECH   SFRSYM    DATA     BYTE      SPCR
      000000DDH   SFRSYM    DATA     BYTE      ADRESH
      000000B0H.7 SFRSYM    DATA     BIT       P37
      000000EEH   SFRSYM    DATA     BYTE      SPDR
      000000EFH   SFRSYM    DATA     BYTE      SSCR
      000000D3H   SFRSYM    DATA     BYTE      ADDLYL
      000000DCH   SFRSYM    DATA     BYTE      ADRESL
      00000088H.1 SFRSYM    DATA     BIT       IE0
      00000088H.3 SFRSYM    DATA     BIT       IE1
      0000008FH   SFRSYM    DATA     BYTE      CLKDIV
      000000F0H   SFRSYM    DATA     BYTE      B
      00000091H   SFRSYM    DATA     BYTE      FUNCCR
      0000009AH   SFRSYM    DATA     BYTE      P0TRIS
      000000A1H   SFRSYM    DATA     BYTE      P1TRIS
      000000A2H   SFRSYM    DATA     BYTE      P2TRIS
      000000E0H   SFRSYM    DATA     BYTE      ACC
      000000A3H   SFRSYM    DATA     BYTE      P3TRIS
      000000A8H.4 SFRSYM    DATA     BIT       ES0
      000000A8H.6 SFRSYM    DATA     BIT       ES1
      000000A8H.1 SFRSYM    DATA     BIT       ET0
      000000EDH   SFRSYM    DATA     BYTE      SPSR
      000000A8H.3 SFRSYM    DATA     BIT       ET1
      00000088H.5 SFRSYM    DATA     BIT       TF0
      000000A8H.5 SFRSYM    DATA     BIT       ET2
      00000098H   SFRSYM    DATA     BIT       RI0
      00000088H.7 SFRSYM    DATA     BIT       TF1
      0000008CH   SFRSYM    DATA     BYTE      TH0
      000000A8H   SFRSYM    DATA     BIT       EX0
      00000098H.1 SFRSYM    DATA     BIT       TI0
      00000088H   SFRSYM    DATA     BIT       IT0
      0000008DH   SFRSYM    DATA     BYTE      TH1
      000000A8H.2 SFRSYM    DATA     BIT       EX1
      00000088H.2 SFRSYM    DATA     BIT       IT1
      000000CDH   SFRSYM    DATA     BYTE      TH2
      000000D0H   SFRSYM    DATA     BIT       P
      000000DBH   SFRSYM    DATA     BYTE      TH3
      000000E3H   SFRSYM    DATA     BYTE      TH4
LX51 LINKER/LOCATER V4.66.1.0                                                         09/07/2023  18:22:32  PAGE 54


      0000008AH   SFRSYM    DATA     BYTE      TL0
      0000008BH   SFRSYM    DATA     BYTE      TL1
      00000098H.2 SFRSYM    DATA     BIT       U0RB8
      000000CCH   SFRSYM    DATA     BYTE      TL2
      000000B8H.4 SFRSYM    DATA     BIT       PS0
      000000DAH   SFRSYM    DATA     BYTE      TL3
      000000BFH   SFRSYM    DATA     BYTE      BUZCON
      000000B8H.6 SFRSYM    DATA     BIT       PS1
      000000B8H.1 SFRSYM    DATA     BIT       PT0
      00000098H.3 SFRSYM    DATA     BIT       U0TB8
      000000E2H   SFRSYM    DATA     BYTE      TL4
      000000D0H.3 SFRSYM    DATA     BIT       RS0
      000000B8H.3 SFRSYM    DATA     BIT       PT1
      000000D0H.4 SFRSYM    DATA     BIT       RS1
      000000B8H.5 SFRSYM    DATA     BIT       PT2
      00000098H.7 SFRSYM    DATA     BIT       U0SM0
      00000088H.4 SFRSYM    DATA     BIT       TR0
      000000BEH   SFRSYM    DATA     BYTE      BUZDIV
      00000098H.6 SFRSYM    DATA     BIT       U0SM1
      00000088H.6 SFRSYM    DATA     BIT       TR1
      000000B8H   SFRSYM    DATA     BIT       PX0
      00000098H.5 SFRSYM    DATA     BIT       U0SM2
      000000B8H.2 SFRSYM    DATA     BIT       PX1
      000000BDH   SFRSYM    DATA     BYTE      WUTCRH
      00000099H   SFRSYM    DATA     BYTE      SBUF0
      000000EBH   SFRSYM    DATA     BYTE      SBUF1
      000000BCH   SFRSYM    DATA     BYTE      WUTCRL
      00000098H   SFRSYM    DATA     BYTE      SCON0
      000000EAH   SFRSYM    DATA     BYTE      SCON1
      000000C8H   SFRSYM    DATA     BYTE      T2CON
      00000086H   SFRSYM    DATA     BYTE      DPS
      000000FEH   SFRSYM    DATA     BYTE      MDATA
      000000F6H   SFRSYM    DATA     BYTE      I2CMBUF
      000000F1H   SFRSYM    DATA     BYTE      I2CSADR
      00000098H.4 SFRSYM    DATA     BIT       U0REN
      000000C8H.5 SFRSYM    DATA     BIT       CAPES
      000000FDH   SFRSYM    DATA     BYTE      MADRH
      0000008EH   SFRSYM    DATA     BYTE      CKCON
      000000F3H   SFRSYM    DATA     BYTE      I2CSBUF
      000000FCH   SFRSYM    DATA     BYTE      MADRL
      000000D0H.5 SFRSYM    DATA     BIT       F0
      000000FBH   SFRSYM    DATA     BYTE      MLOCK
      000000D0H   SFRSYM    DATA     BYTE      PSW
      00000097H   SFRSYM    DATA     BYTE      WDCON

      0100004EH   BLOCK     CODE     ---       LVL=0
      0100004EH   LINE      CODE     ---       #67
      0100004EH   LINE      CODE     ---       #68
      0100004EH   LINE      CODE     ---       #69
      01000051H   LINE      CODE     ---       #70
      ---         BLOCKEND  ---      ---       LVL=0

      01000066H   BLOCK     CODE     ---       LVL=0
      01000066H   LINE      CODE     ---       #78
      01000066H   LINE      CODE     ---       #79
      01000066H   LINE      CODE     ---       #80
      01000069H   LINE      CODE     ---       #81
      ---         BLOCKEND  ---      ---       LVL=0

      01001B70H   BLOCK     CODE     ---       LVL=0
      00000007H   SYMBOL    DATA     BYTE      BuzCKS
      00000005H   SYMBOL    DATA     BYTE      CLKDiv
      01001B70H   BLOCK     CODE     NEAR LAB  LVL=1
      00000006H   SYMBOL    DATA     BYTE      Temp
      ---         BLOCKEND  ---      ---       LVL=1
LX51 LINKER/LOCATER V4.66.1.0                                                         09/07/2023  18:22:32  PAGE 55


      01001B70H   LINE      CODE     ---       #95
      01001B70H   LINE      CODE     ---       #96
      01001B70H   LINE      CODE     ---       #97
      01001B70H   LINE      CODE     ---       #99
      01001B72H   LINE      CODE     ---       #100
      01001B75H   LINE      CODE     ---       #101
      01001B78H   LINE      CODE     ---       #102
      01001B7AH   LINE      CODE     ---       #104
      01001B7CH   LINE      CODE     ---       #105
      ---         BLOCKEND  ---      ---       LVL=0

      ---         MODULE    ---      ---       EPWM
      01000076H   PUBLIC    CODE     ---       EPWM_AllIntDisable
      0100006EH   PUBLIC    CODE     ---       EPWM_AllIntEnable
      01001AE6H   PUBLIC    CODE     ---       _EPWM_ConfigFBBrake
      01001E30H   PUBLIC    CODE     ---       EPWM_DisableSoftwareBrake
      01001E28H   PUBLIC    CODE     ---       EPWM_TrigSoftwareBrake
      01001C35H   PUBLIC    CODE     ---       _EPWM_DisableReverseOutput
      01001F10H   PUBLIC    CODE     ---       _EPWM_EnableReverseOutput
      01001E20H   PUBLIC    CODE     ---       EPWM_ClearFaultBrakeIntFlag
      01001C29H   PUBLIC    CODE     ---       EPWM_GetFaultBrakeIntFlag
      01001E18H   PUBLIC    CODE     ---       EPWM_DisableFaultBrakeInt
      01001C1DH   PUBLIC    CODE     ---       EPWM_EnableFaultBrakeInt
      010014E5H   PUBLIC    CODE     ---       _EPWM_GetZeroIntFlag
      01001A0EH   PUBLIC    CODE     ---       _EPWM_ClearZeroIntFlag
      01001C11H   PUBLIC    CODE     ---       _EPWM_DisableZeroInt
      01001F09H   PUBLIC    CODE     ---       _EPWM_EnableZeroInt
      010014C6H   PUBLIC    CODE     ---       _EPWM_GetPeriodIntFlag
      010019FDH   PUBLIC    CODE     ---       _EPWM_ClearPeriodIntFlag
      01001C05H   PUBLIC    CODE     ---       _EPWM_DisablePeriodInt
      01001F02H   PUBLIC    CODE     ---       _EPWM_EnablePeriodInt
      010019ECH   PUBLIC    CODE     ---       _EPWM_ClearDownCmpIntFlag
      010014A7H   PUBLIC    CODE     ---       _EPWM_GetDownCmpIntFlag
      01001BF9H   PUBLIC    CODE     ---       _EPWM_DisableDownCmpInt
      01001EFBH   PUBLIC    CODE     ---       _EPWM_EnableDownCmpInt
      010019DBH   PUBLIC    CODE     ---       _EPWM_ClearUpCmpIntFlag
      01001488H   PUBLIC    CODE     ---       _EPWM_GetUpCmpIntFlag
      01001BEDH   PUBLIC    CODE     ---       _EPWM_DisableUpCmpInt
      01001EF4H   PUBLIC    CODE     ---       _EPWM_EnableUpCmpInt
      01001BE1H   PUBLIC    CODE     ---       _EPWM_DisableMaskControl
      010017B1H   PUBLIC    CODE     ---       _EPWM_EnableMaskControl
      010011EFH   PUBLIC    CODE     ---       _EPWM_DisableDeadZone
      01000FF5H   PUBLIC    CODE     ---       _EPWM_EnableDeadZone
      010019B8H   PUBLIC    CODE     ---       _EPWM_ConfigChannelBrakeLevel
      01001246H   PUBLIC    CODE     ---       _EPWM_DisableFaultBrake
      0100102EH   PUBLIC    CODE     ---       _EPWM_EnableFaultBrake
      01001BD5H   PUBLIC    CODE     ---       _EPWM_DisableOutput
      01001EEDH   PUBLIC    CODE     ---       _EPWM_EnableOutput
      01001BC9H   PUBLIC    CODE     ---       _EPWM_Stop
      01001EE6H   PUBLIC    CODE     ---       _EPWM_Start
      01001EDFH   PUBLIC    CODE     ---       _EPWM_EnableAutoLoadMode
      01001BBDH   PUBLIC    CODE     ---       _EPWM_EnableOneShotMode
      010007ABH   PUBLIC    CODE     ---       _EPWM_ConfigChannelAsymDuty
      01000A99H   PUBLIC    CODE     ---       _EPWM_ConfigChannelSymDuty
      01000A19H   PUBLIC    CODE     ---       _EPWM_ConfigChannelPeriod
      01000DABH   PUBLIC    CODE     ---       _EPWM_ConfigChannelClk
      01001F17H   PUBLIC    CODE     ---       _EPWM_ConfigRunMode
      000000C8H   SFRSYM    DATA     BIT       T2I0
      000000C3H   SFRSYM    DATA     BYTE      CCH1
      00000080H   SFRSYM    DATA     BYTE      P0
      000000C8H.1 SFRSYM    DATA     BIT       T2I1
      000000C5H   SFRSYM    DATA     BYTE      CCH2
      00000090H   SFRSYM    DATA     BYTE      P1
      000000C7H   SFRSYM    DATA     BYTE      CCH3
      000000ACH   SFRSYM    DATA     BYTE      P0EXTIE
LX51 LINKER/LOCATER V4.66.1.0                                                         09/07/2023  18:22:32  PAGE 56


      000000A0H   SFRSYM    DATA     BYTE      P2
      000000B4H   SFRSYM    DATA     BYTE      P0EXTIF
      000000B0H   SFRSYM    DATA     BYTE      P3
      000000ADH   SFRSYM    DATA     BYTE      P1EXTIE
      000000D0H.6 SFRSYM    DATA     BIT       AC
      000000FFH   SFRSYM    DATA     BYTE      MCTRL
      000000C2H   SFRSYM    DATA     BYTE      CCL1
      000000B5H   SFRSYM    DATA     BYTE      P1EXTIF
      000000AEH   SFRSYM    DATA     BYTE      P2EXTIE
      000000C4H   SFRSYM    DATA     BYTE      CCL2
      000000B6H   SFRSYM    DATA     BYTE      P2EXTIF
      000000AFH   SFRSYM    DATA     BYTE      P3EXTIE
      000000A8H.7 SFRSYM    DATA     BIT       EA
      000000C6H   SFRSYM    DATA     BYTE      CCL3
      000000B7H   SFRSYM    DATA     BYTE      P3EXTIF
      000000AAH   SFRSYM    DATA     BYTE      EIE2
      000000B2H   SFRSYM    DATA     BYTE      EIF2
      000000C8H.3 SFRSYM    DATA     BIT       T2R0
      000000C8H.4 SFRSYM    DATA     BIT       T2R1
      00000083H   SFRSYM    DATA     BYTE      DPH0
      000000A8H   SFRSYM    DATA     BYTE      IE
      00000085H   SFRSYM    DATA     BYTE      DPH1
      000000B9H   SFRSYM    DATA     BYTE      EIP1
      000000BAH   SFRSYM    DATA     BYTE      EIP2
      00000082H   SFRSYM    DATA     BYTE      DPL0
      00000084H   SFRSYM    DATA     BYTE      DPL1
      000000C8H.6 SFRSYM    DATA     BIT       I3FR
      000000CFH   SFRSYM    DATA     BYTE      T2IE
      00000096H   SFRSYM    DATA     BYTE      TA
      000000C9H   SFRSYM    DATA     BYTE      T2IF
      000000C8H.2 SFRSYM    DATA     BIT       T2CM
      000000DFH   SFRSYM    DATA     BYTE      ADCON0
      000000DEH   SFRSYM    DATA     BYTE      ADCON1
      000000E9H   SFRSYM    DATA     BYTE      ADCON2
      000000B8H   SFRSYM    DATA     BYTE      IP
      000000CEH   SFRSYM    DATA     BYTE      CCEN
      000000D0H.7 SFRSYM    DATA     BIT       CY
      000000D2H   SFRSYM    DATA     BYTE      T34MOD
      00000093H   SFRSYM    DATA     BYTE      DPX0
      00000095H   SFRSYM    DATA     BYTE      DPX1
      000000F4H   SFRSYM    DATA     BYTE      I2CMSA
      000000F5H   SFRSYM    DATA     BYTE      I2CMCR
      00000081H   SFRSYM    DATA     BYTE      SP
      000000D0H.2 SFRSYM    DATA     BIT       OV
      000000F2H   SFRSYM    DATA     BYTE      I2CSCR
      000000C8H.7 SFRSYM    DATA     BIT       T2PS
      000000D1H   SFRSYM    DATA     BYTE      ADCMPC
      000000CBH   SFRSYM    DATA     BYTE      RLDH
      000000D5H   SFRSYM    DATA     BYTE      ADCMPH
      000000CAH   SFRSYM    DATA     BYTE      RLDL
      00000080H   SFRSYM    DATA     BIT       P00
      00000090H   SFRSYM    DATA     BIT       P10
      00000080H.1 SFRSYM    DATA     BIT       P01
      000000F7H   SFRSYM    DATA     BYTE      I2CMTP
      00000099H   SFRSYM    DATA     BYTE      SBUF
      00000087H   SFRSYM    DATA     BYTE      PCON
      000000A0H   SFRSYM    DATA     BIT       P20
      00000090H.1 SFRSYM    DATA     BIT       P11
      00000080H.2 SFRSYM    DATA     BIT       P02
      000000F5H   SFRSYM    DATA     BYTE      I2CMSR
      000000B0H   SFRSYM    DATA     BIT       P30
      000000A0H.1 SFRSYM    DATA     BIT       P21
      00000090H.2 SFRSYM    DATA     BIT       P12
      00000080H.3 SFRSYM    DATA     BIT       P03
      000000D4H   SFRSYM    DATA     BYTE      ADCMPL
LX51 LINKER/LOCATER V4.66.1.0                                                         09/07/2023  18:22:32  PAGE 57


      000000B0H.1 SFRSYM    DATA     BIT       P31
      000000A0H.2 SFRSYM    DATA     BIT       P22
      00000090H.3 SFRSYM    DATA     BIT       P13
      00000080H.4 SFRSYM    DATA     BIT       P04
      000000B0H.2 SFRSYM    DATA     BIT       P32
      000000A0H.3 SFRSYM    DATA     BIT       P23
      00000090H.4 SFRSYM    DATA     BIT       P14
      00000080H.5 SFRSYM    DATA     BIT       P05
      00000089H   SFRSYM    DATA     BYTE      TMOD
      00000088H   SFRSYM    DATA     BYTE      TCON
      000000B0H.3 SFRSYM    DATA     BIT       P33
      000000A0H.4 SFRSYM    DATA     BIT       P24
      00000090H.5 SFRSYM    DATA     BIT       P15
      00000080H.6 SFRSYM    DATA     BIT       P06
      000000B0H.4 SFRSYM    DATA     BIT       P34
      000000A0H.5 SFRSYM    DATA     BIT       P25
      00000090H.6 SFRSYM    DATA     BIT       P16
      00000080H.7 SFRSYM    DATA     BIT       P07
      000000B0H.5 SFRSYM    DATA     BIT       P35
      000000A0H.6 SFRSYM    DATA     BIT       P26
      00000090H.7 SFRSYM    DATA     BIT       P17
      000000F2H   SFRSYM    DATA     BYTE      I2CSSR
      000000B0H.6 SFRSYM    DATA     BIT       P36
      000000A0H.7 SFRSYM    DATA     BIT       P27
      000000ECH   SFRSYM    DATA     BYTE      SPCR
      000000DDH   SFRSYM    DATA     BYTE      ADRESH
      000000B0H.7 SFRSYM    DATA     BIT       P37
      000000EEH   SFRSYM    DATA     BYTE      SPDR
      000000EFH   SFRSYM    DATA     BYTE      SSCR
      000000D3H   SFRSYM    DATA     BYTE      ADDLYL
      000000DCH   SFRSYM    DATA     BYTE      ADRESL
      00000088H.1 SFRSYM    DATA     BIT       IE0
      00000088H.3 SFRSYM    DATA     BIT       IE1
      0000008FH   SFRSYM    DATA     BYTE      CLKDIV
      000000F0H   SFRSYM    DATA     BYTE      B
      00000091H   SFRSYM    DATA     BYTE      FUNCCR
      0000009AH   SFRSYM    DATA     BYTE      P0TRIS
      000000A1H   SFRSYM    DATA     BYTE      P1TRIS
      000000A2H   SFRSYM    DATA     BYTE      P2TRIS
      000000E0H   SFRSYM    DATA     BYTE      ACC
      000000A3H   SFRSYM    DATA     BYTE      P3TRIS
      000000A8H.4 SFRSYM    DATA     BIT       ES0
      000000A8H.6 SFRSYM    DATA     BIT       ES1
      000000A8H.1 SFRSYM    DATA     BIT       ET0
      000000EDH   SFRSYM    DATA     BYTE      SPSR
      000000A8H.3 SFRSYM    DATA     BIT       ET1
      00000088H.5 SFRSYM    DATA     BIT       TF0
      000000A8H.5 SFRSYM    DATA     BIT       ET2
      00000098H   SFRSYM    DATA     BIT       RI0
      00000088H.7 SFRSYM    DATA     BIT       TF1
      0000008CH   SFRSYM    DATA     BYTE      TH0
      000000A8H   SFRSYM    DATA     BIT       EX0
      00000098H.1 SFRSYM    DATA     BIT       TI0
      00000088H   SFRSYM    DATA     BIT       IT0
      0000008DH   SFRSYM    DATA     BYTE      TH1
      000000A8H.2 SFRSYM    DATA     BIT       EX1
      00000088H.2 SFRSYM    DATA     BIT       IT1
      000000CDH   SFRSYM    DATA     BYTE      TH2
      000000D0H   SFRSYM    DATA     BIT       P
      000000DBH   SFRSYM    DATA     BYTE      TH3
      000000E3H   SFRSYM    DATA     BYTE      TH4
      0000008AH   SFRSYM    DATA     BYTE      TL0
      0000008BH   SFRSYM    DATA     BYTE      TL1
      00000098H.2 SFRSYM    DATA     BIT       U0RB8
      000000CCH   SFRSYM    DATA     BYTE      TL2
LX51 LINKER/LOCATER V4.66.1.0                                                         09/07/2023  18:22:32  PAGE 58


      000000B8H.4 SFRSYM    DATA     BIT       PS0
      000000DAH   SFRSYM    DATA     BYTE      TL3
      000000BFH   SFRSYM    DATA     BYTE      BUZCON
      000000B8H.6 SFRSYM    DATA     BIT       PS1
      000000B8H.1 SFRSYM    DATA     BIT       PT0
      00000098H.3 SFRSYM    DATA     BIT       U0TB8
      000000E2H   SFRSYM    DATA     BYTE      TL4
      000000D0H.3 SFRSYM    DATA     BIT       RS0
      000000B8H.3 SFRSYM    DATA     BIT       PT1
      000000D0H.4 SFRSYM    DATA     BIT       RS1
      000000B8H.5 SFRSYM    DATA     BIT       PT2
      00000098H.7 SFRSYM    DATA     BIT       U0SM0
      00000088H.4 SFRSYM    DATA     BIT       TR0
      000000BEH   SFRSYM    DATA     BYTE      BUZDIV
      00000098H.6 SFRSYM    DATA     BIT       U0SM1
      00000088H.6 SFRSYM    DATA     BIT       TR1
      000000B8H   SFRSYM    DATA     BIT       PX0
      00000098H.5 SFRSYM    DATA     BIT       U0SM2
      000000B8H.2 SFRSYM    DATA     BIT       PX1
      000000BDH   SFRSYM    DATA     BYTE      WUTCRH
      00000099H   SFRSYM    DATA     BYTE      SBUF0
      000000EBH   SFRSYM    DATA     BYTE      SBUF1
      000000BCH   SFRSYM    DATA     BYTE      WUTCRL
      00000098H   SFRSYM    DATA     BYTE      SCON0
      000000EAH   SFRSYM    DATA     BYTE      SCON1
      000000C8H   SFRSYM    DATA     BYTE      T2CON
      00000086H   SFRSYM    DATA     BYTE      DPS
      000000FEH   SFRSYM    DATA     BYTE      MDATA
      000000F6H   SFRSYM    DATA     BYTE      I2CMBUF
      000000F1H   SFRSYM    DATA     BYTE      I2CSADR
      00000098H.4 SFRSYM    DATA     BIT       U0REN
      000000C8H.5 SFRSYM    DATA     BIT       CAPES
      000000FDH   SFRSYM    DATA     BYTE      MADRH
      0000008EH   SFRSYM    DATA     BYTE      CKCON
      000000F3H   SFRSYM    DATA     BYTE      I2CSBUF
      000000FCH   SFRSYM    DATA     BYTE      MADRL
      000000D0H.5 SFRSYM    DATA     BIT       F0
      000000FBH   SFRSYM    DATA     BYTE      MLOCK
      000000D0H   SFRSYM    DATA     BYTE      PSW
      00000097H   SFRSYM    DATA     BYTE      WDCON

      01001F17H   BLOCK     CODE     ---       LVL=0
      00000007H   SYMBOL    DATA     BYTE      EpwmRunModeMask
      01001F17H   LINE      CODE     ---       #76
      01001F17H   LINE      CODE     ---       #77
      01001F17H   LINE      CODE     ---       #78
      01001F1CH   LINE      CODE     ---       #79
      ---         BLOCKEND  ---      ---       LVL=0

      01000DABH   BLOCK     CODE     ---       LVL=0
      00000007H   SYMBOL    DATA     BYTE      ChannelNum
      00000005H   SYMBOL    DATA     BYTE      ClkDiv
      01000DABH   LINE      CODE     ---       #99
      01000DABH   LINE      CODE     ---       #100
      01000DABH   LINE      CODE     ---       #101
      01000DBFH   LINE      CODE     ---       #102
      01000DBFH   LINE      CODE     ---       #103
      01000DBFH   LINE      CODE     ---       #104
      01000DC5H   LINE      CODE     ---       #105
      01000DCAH   LINE      CODE     ---       #106
      01000DCBH   LINE      CODE     ---       #107
      01000DCBH   LINE      CODE     ---       #108
      01000DD1H   LINE      CODE     ---       #109
      01000DD6H   LINE      CODE     ---       #110
      01000DD7H   LINE      CODE     ---       #111
LX51 LINKER/LOCATER V4.66.1.0                                                         09/07/2023  18:22:32  PAGE 59


      01000DD7H   LINE      CODE     ---       #112
      01000DDDH   LINE      CODE     ---       #113
      01000DE2H   LINE      CODE     ---       #114
      01000DE3H   LINE      CODE     ---       #115
      01000DE3H   LINE      CODE     ---       #116
      01000DE9H   LINE      CODE     ---       #117
      01000DEEH   LINE      CODE     ---       #118
      01000DEFH   LINE      CODE     ---       #119
      01000DEFH   LINE      CODE     ---       #120
      01000DF5H   LINE      CODE     ---       #121
      01000DFAH   LINE      CODE     ---       #122
      01000DFBH   LINE      CODE     ---       #123
      01000DFBH   LINE      CODE     ---       #124
      01000E01H   LINE      CODE     ---       #125
      01000E06H   LINE      CODE     ---       #126
      01000E06H   LINE      CODE     ---       #127
      01000E06H   LINE      CODE     ---       #128
      01000E06H   LINE      CODE     ---       #129
      01000E06H   LINE      CODE     ---       #130
      ---         BLOCKEND  ---      ---       LVL=0

      01000A19H   BLOCK     CODE     ---       LVL=0
      00000007H   SYMBOL    DATA     BYTE      ChannelNum
      00000004H   SYMBOL    DATA     WORD      Period
      01000A19H   LINE      CODE     ---       #139
      01000A19H   LINE      CODE     ---       #140
      01000A19H   LINE      CODE     ---       #141
      01000A2DH   LINE      CODE     ---       #142
      01000A2DH   LINE      CODE     ---       #143
      01000A2DH   LINE      CODE     ---       #144
      01000A32H   LINE      CODE     ---       #145
      01000A37H   LINE      CODE     ---       #146
      01000A3EH   LINE      CODE     ---       #147
      01000A3FH   LINE      CODE     ---       #148
      01000A3FH   LINE      CODE     ---       #149
      01000A44H   LINE      CODE     ---       #150
      01000A49H   LINE      CODE     ---       #151
      01000A50H   LINE      CODE     ---       #152
      01000A51H   LINE      CODE     ---       #153
      01000A51H   LINE      CODE     ---       #154
      01000A56H   LINE      CODE     ---       #155
      01000A5BH   LINE      CODE     ---       #156
      01000A62H   LINE      CODE     ---       #157
      01000A63H   LINE      CODE     ---       #158
      01000A63H   LINE      CODE     ---       #159
      01000A68H   LINE      CODE     ---       #160
      01000A6DH   LINE      CODE     ---       #161
      01000A74H   LINE      CODE     ---       #162
      01000A75H   LINE      CODE     ---       #163
      01000A75H   LINE      CODE     ---       #164
      01000A7AH   LINE      CODE     ---       #165
      01000A7FH   LINE      CODE     ---       #166
      01000A86H   LINE      CODE     ---       #167
      01000A87H   LINE      CODE     ---       #168
      01000A87H   LINE      CODE     ---       #169
      01000A8CH   LINE      CODE     ---       #170
      01000A91H   LINE      CODE     ---       #171
      01000A98H   LINE      CODE     ---       #172
      01000A98H   LINE      CODE     ---       #173
      01000A98H   LINE      CODE     ---       #174
      01000A98H   LINE      CODE     ---       #175
      01000A98H   LINE      CODE     ---       #176
      ---         BLOCKEND  ---      ---       LVL=0

      01000A99H   BLOCK     CODE     ---       LVL=0
LX51 LINKER/LOCATER V4.66.1.0                                                         09/07/2023  18:22:32  PAGE 60


      00000007H   SYMBOL    DATA     BYTE      ChannelNum
      00000004H   SYMBOL    DATA     WORD      Duty
      01000A99H   LINE      CODE     ---       #185
      01000A99H   LINE      CODE     ---       #186
      01000A99H   LINE      CODE     ---       #187
      01000AADH   LINE      CODE     ---       #188
      01000AADH   LINE      CODE     ---       #189
      01000AADH   LINE      CODE     ---       #190
      01000AB2H   LINE      CODE     ---       #191
      01000AB7H   LINE      CODE     ---       #192
      01000ABEH   LINE      CODE     ---       #193
      01000ABFH   LINE      CODE     ---       #194
      01000ABFH   LINE      CODE     ---       #195
      01000AC4H   LINE      CODE     ---       #196
      01000AC9H   LINE      CODE     ---       #197
      01000AD0H   LINE      CODE     ---       #198
      01000AD1H   LINE      CODE     ---       #199
      01000AD1H   LINE      CODE     ---       #200
      01000AD6H   LINE      CODE     ---       #201
      01000ADBH   LINE      CODE     ---       #202
      01000AE2H   LINE      CODE     ---       #203
      01000AE3H   LINE      CODE     ---       #204
      01000AE3H   LINE      CODE     ---       #205
      01000AE8H   LINE      CODE     ---       #206
      01000AEDH   LINE      CODE     ---       #207
      01000AF4H   LINE      CODE     ---       #208
      01000AF5H   LINE      CODE     ---       #209
      01000AF5H   LINE      CODE     ---       #210
      01000AFAH   LINE      CODE     ---       #211
      01000AFFH   LINE      CODE     ---       #212
      01000B06H   LINE      CODE     ---       #213
      01000B07H   LINE      CODE     ---       #214
      01000B07H   LINE      CODE     ---       #215
      01000B0CH   LINE      CODE     ---       #216
      01000B11H   LINE      CODE     ---       #217
      01000B18H   LINE      CODE     ---       #218
      01000B18H   LINE      CODE     ---       #219
      01000B18H   LINE      CODE     ---       #220
      01000B18H   LINE      CODE     ---       #221
      01000B18H   LINE      CODE     ---       #222
      ---         BLOCKEND  ---      ---       LVL=0

      010007ABH   BLOCK     CODE     ---       LVL=0
      00000007H   SYMBOL    DATA     BYTE      ChannelNum
      00000004H   SYMBOL    DATA     WORD      UpCmp
      00000002H   SYMBOL    DATA     WORD      DowmCmp
      010007ABH   LINE      CODE     ---       #231
      010007ABH   LINE      CODE     ---       #232
      010007ABH   LINE      CODE     ---       #233
      010007C5H   LINE      CODE     ---       #234
      010007C5H   LINE      CODE     ---       #235
      010007C5H   LINE      CODE     ---       #236
      010007CAH   LINE      CODE     ---       #237
      010007CFH   LINE      CODE     ---       #238
      010007D4H   LINE      CODE     ---       #239
      010007D9H   LINE      CODE     ---       #240
      010007E0H   LINE      CODE     ---       #241
      010007E1H   LINE      CODE     ---       #242
      010007E1H   LINE      CODE     ---       #243
      010007E6H   LINE      CODE     ---       #244
      010007EBH   LINE      CODE     ---       #245
      010007F0H   LINE      CODE     ---       #246
      010007F5H   LINE      CODE     ---       #247
      010007FCH   LINE      CODE     ---       #248
      010007FDH   LINE      CODE     ---       #249
LX51 LINKER/LOCATER V4.66.1.0                                                         09/07/2023  18:22:32  PAGE 61


      010007FDH   LINE      CODE     ---       #250
      01000802H   LINE      CODE     ---       #251
      01000807H   LINE      CODE     ---       #252
      0100080CH   LINE      CODE     ---       #253
      01000811H   LINE      CODE     ---       #254
      01000818H   LINE      CODE     ---       #255
      01000819H   LINE      CODE     ---       #256
      01000819H   LINE      CODE     ---       #257
      0100081EH   LINE      CODE     ---       #258
      01000823H   LINE      CODE     ---       #259
      01000828H   LINE      CODE     ---       #260
      0100082DH   LINE      CODE     ---       #261
      01000834H   LINE      CODE     ---       #262
      01000835H   LINE      CODE     ---       #263
      01000835H   LINE      CODE     ---       #264
      0100083AH   LINE      CODE     ---       #265
      0100083FH   LINE      CODE     ---       #266
      01000844H   LINE      CODE     ---       #267
      01000849H   LINE      CODE     ---       #268
      01000850H   LINE      CODE     ---       #269
      01000851H   LINE      CODE     ---       #270
      01000851H   LINE      CODE     ---       #271
      01000856H   LINE      CODE     ---       #272
      0100085BH   LINE      CODE     ---       #273
      01000860H   LINE      CODE     ---       #274
      01000865H   LINE      CODE     ---       #275
      0100086CH   LINE      CODE     ---       #276
      0100086CH   LINE      CODE     ---       #277
      0100086CH   LINE      CODE     ---       #278
      0100086CH   LINE      CODE     ---       #279
      0100086CH   LINE      CODE     ---       #280
      ---         BLOCKEND  ---      ---       LVL=0

      01001BBDH   BLOCK     CODE     ---       LVL=0
      00000007H   SYMBOL    DATA     BYTE      ChannelMask
      01001BBDH   LINE      CODE     ---       #288
      01001BBDH   LINE      CODE     ---       #289
      01001BBDH   LINE      CODE     ---       #290
      01001BC8H   LINE      CODE     ---       #291
      ---         BLOCKEND  ---      ---       LVL=0

      01001EDFH   BLOCK     CODE     ---       LVL=0
      00000007H   SYMBOL    DATA     BYTE      ChannelMask
      01001EDFH   LINE      CODE     ---       #299
      01001EDFH   LINE      CODE     ---       #300
      01001EDFH   LINE      CODE     ---       #301
      01001EE5H   LINE      CODE     ---       #302
      ---         BLOCKEND  ---      ---       LVL=0

      01001EE6H   BLOCK     CODE     ---       LVL=0
      00000007H   SYMBOL    DATA     BYTE      ChannelMask
      01001EE6H   LINE      CODE     ---       #310
      01001EE6H   LINE      CODE     ---       #311
      01001EE6H   LINE      CODE     ---       #312
      01001EECH   LINE      CODE     ---       #313
      ---         BLOCKEND  ---      ---       LVL=0

      01001BC9H   BLOCK     CODE     ---       LVL=0
      00000007H   SYMBOL    DATA     BYTE      ChannelMask
      01001BC9H   LINE      CODE     ---       #321
      01001BC9H   LINE      CODE     ---       #322
      01001BC9H   LINE      CODE     ---       #323
      01001BD4H   LINE      CODE     ---       #324
      ---         BLOCKEND  ---      ---       LVL=0

LX51 LINKER/LOCATER V4.66.1.0                                                         09/07/2023  18:22:32  PAGE 62


      01001EEDH   BLOCK     CODE     ---       LVL=0
      00000007H   SYMBOL    DATA     BYTE      ChannelMask
      01001EEDH   LINE      CODE     ---       #333
      01001EEDH   LINE      CODE     ---       #334
      01001EEDH   LINE      CODE     ---       #335
      01001EF3H   LINE      CODE     ---       #336
      ---         BLOCKEND  ---      ---       LVL=0

      01001BD5H   BLOCK     CODE     ---       LVL=0
      00000007H   SYMBOL    DATA     BYTE      ChannelMask
      01001BD5H   LINE      CODE     ---       #344
      01001BD5H   LINE      CODE     ---       #345
      01001BD5H   LINE      CODE     ---       #346
      01001BE0H   LINE      CODE     ---       #347
      ---         BLOCKEND  ---      ---       LVL=0

      0100102EH   BLOCK     CODE     ---       LVL=0
      00000007H   SYMBOL    DATA     BYTE      BrakeSource
      00000005H   SYMBOL    DATA     BYTE      CountMode
      0100102EH   BLOCK     CODE     NEAR LAB  LVL=1
      00000006H   SYMBOL    DATA     BYTE      Temp
      ---         BLOCKEND  ---      ---       LVL=1
      0100102EH   LINE      CODE     ---       #361
      0100102EH   LINE      CODE     ---       #362
      0100102EH   LINE      CODE     ---       #363
      0100102EH   LINE      CODE     ---       #365
      01001033H   LINE      CODE     ---       #366
      01001036H   LINE      CODE     ---       #367
      01001039H   LINE      CODE     ---       #368
      0100103BH   LINE      CODE     ---       #369
      0100104AH   LINE      CODE     ---       #370
      0100104AH   LINE      CODE     ---       #371
      0100104AH   LINE      CODE     ---       #372
      01001051H   LINE      CODE     ---       #373
      01001052H   LINE      CODE     ---       #374
      01001052H   LINE      CODE     ---       #375
      01001059H   LINE      CODE     ---       #376
      0100105AH   LINE      CODE     ---       #377
      0100105AH   LINE      CODE     ---       #378
      01001061H   LINE      CODE     ---       #379
      01001062H   LINE      CODE     ---       #380
      01001062H   LINE      CODE     ---       #381
      01001065H   LINE      CODE     ---       #382
      01001065H   LINE      CODE     ---       #383
      01001065H   LINE      CODE     ---       #384
      01001065H   LINE      CODE     ---       #385
      01001065H   LINE      CODE     ---       #386
      01001065H   LINE      CODE     ---       #387
      01001065H   LINE      CODE     ---       #388
      ---         BLOCKEND  ---      ---       LVL=0

      01001246H   BLOCK     CODE     ---       LVL=0
      00000007H   SYMBOL    DATA     BYTE      BrakeSource
      01001246H   LINE      CODE     ---       #400
      01001246H   LINE      CODE     ---       #401
      01001246H   LINE      CODE     ---       #402
      01001255H   LINE      CODE     ---       #403
      01001255H   LINE      CODE     ---       #404
      01001255H   LINE      CODE     ---       #405
      0100125CH   LINE      CODE     ---       #406
      0100125DH   LINE      CODE     ---       #407
      0100125DH   LINE      CODE     ---       #408
      01001264H   LINE      CODE     ---       #409
      01001265H   LINE      CODE     ---       #410
      01001265H   LINE      CODE     ---       #411
LX51 LINKER/LOCATER V4.66.1.0                                                         09/07/2023  18:22:32  PAGE 63


      0100126CH   LINE      CODE     ---       #412
      0100126DH   LINE      CODE     ---       #413
      0100126DH   LINE      CODE     ---       #414
      01001270H   LINE      CODE     ---       #415
      01001270H   LINE      CODE     ---       #416
      01001270H   LINE      CODE     ---       #417
      01001270H   LINE      CODE     ---       #418
      01001270H   LINE      CODE     ---       #419
      01001270H   LINE      CODE     ---       #420
      01001270H   LINE      CODE     ---       #421
      ---         BLOCKEND  ---      ---       LVL=0

      010019B8H   BLOCK     CODE     ---       LVL=0
      00000007H   SYMBOL    DATA     BYTE      ChannelMask
      00000005H   SYMBOL    DATA     BYTE      BrakeLevel
      010019B8H   LINE      CODE     ---       #430
      010019B8H   LINE      CODE     ---       #431
      010019B8H   LINE      CODE     ---       #432
      010019BFH   LINE      CODE     ---       #433
      010019BFH   LINE      CODE     ---       #434
      010019C1H   LINE      CODE     ---       #435
      010019C2H   LINE      CODE     ---       #437
      010019C2H   LINE      CODE     ---       #438
      010019C9H   LINE      CODE     ---       #439
      010019C9H   LINE      CODE     ---       #440
      ---         BLOCKEND  ---      ---       LVL=0

      01000FF5H   BLOCK     CODE     ---       LVL=0
      00000007H   SYMBOL    DATA     BYTE      Channel
      00000005H   SYMBOL    DATA     BYTE      DeadTime
      01000FF5H   LINE      CODE     ---       #449
      01000FF5H   LINE      CODE     ---       #450
      01000FF5H   LINE      CODE     ---       #451
      01001009H   LINE      CODE     ---       #452
      01001009H   LINE      CODE     ---       #453
      01001009H   LINE      CODE     ---       #454
      01001009H   LINE      CODE     ---       #455
      01001010H   LINE      CODE     ---       #456
      01001013H   LINE      CODE     ---       #457
      01001014H   LINE      CODE     ---       #458
      01001014H   LINE      CODE     ---       #459
      01001014H   LINE      CODE     ---       #460
      0100101BH   LINE      CODE     ---       #461
      01001020H   LINE      CODE     ---       #462
      01001021H   LINE      CODE     ---       #463
      01001021H   LINE      CODE     ---       #464
      01001021H   LINE      CODE     ---       #465
      01001028H   LINE      CODE     ---       #466
      0100102DH   LINE      CODE     ---       #467
      0100102DH   LINE      CODE     ---       #468
      0100102DH   LINE      CODE     ---       #469
      0100102DH   LINE      CODE     ---       #470
      0100102DH   LINE      CODE     ---       #471
      ---         BLOCKEND  ---      ---       LVL=0

      010011EFH   BLOCK     CODE     ---       LVL=0
      00000007H   SYMBOL    DATA     BYTE      Channel
      010011EFH   LINE      CODE     ---       #479
      010011EFH   LINE      CODE     ---       #480
      010011EFH   LINE      CODE     ---       #481
      01001203H   LINE      CODE     ---       #482
      01001203H   LINE      CODE     ---       #483
      01001203H   LINE      CODE     ---       #484
      01001203H   LINE      CODE     ---       #485
      0100120AH   LINE      CODE     ---       #486
LX51 LINKER/LOCATER V4.66.1.0                                                         09/07/2023  18:22:32  PAGE 64


      0100120BH   LINE      CODE     ---       #487
      0100120BH   LINE      CODE     ---       #488
      0100120BH   LINE      CODE     ---       #489
      01001212H   LINE      CODE     ---       #490
      01001213H   LINE      CODE     ---       #491
      01001213H   LINE      CODE     ---       #492
      01001213H   LINE      CODE     ---       #493
      0100121AH   LINE      CODE     ---       #494
      0100121AH   LINE      CODE     ---       #495
      0100121AH   LINE      CODE     ---       #496
      0100121AH   LINE      CODE     ---       #497
      0100121AH   LINE      CODE     ---       #498
      ---         BLOCKEND  ---      ---       LVL=0

      010017B1H   BLOCK     CODE     ---       LVL=0
      00000007H   SYMBOL    DATA     BYTE      ChannelMask
      00000005H   SYMBOL    DATA     BYTE      MaskLevel
      010017B1H   LINE      CODE     ---       #507
      010017B1H   LINE      CODE     ---       #508
      010017B1H   LINE      CODE     ---       #509
      010017B8H   LINE      CODE     ---       #510
      010017B8H   LINE      CODE     ---       #511
      010017BAH   LINE      CODE     ---       #512
      010017BCH   LINE      CODE     ---       #514
      010017BCH   LINE      CODE     ---       #515
      010017C3H   LINE      CODE     ---       #516
      010017C3H   LINE      CODE     ---       #518
      010017C9H   LINE      CODE     ---       #519
      ---         BLOCKEND  ---      ---       LVL=0

      01001BE1H   BLOCK     CODE     ---       LVL=0
      00000007H   SYMBOL    DATA     BYTE      ChannelMask
      01001BE1H   LINE      CODE     ---       #527
      01001BE1H   LINE      CODE     ---       #528
      01001BE1H   LINE      CODE     ---       #529
      01001BECH   LINE      CODE     ---       #530
      ---         BLOCKEND  ---      ---       LVL=0

      01001EF4H   BLOCK     CODE     ---       LVL=0
      00000007H   SYMBOL    DATA     BYTE      ChannelMask
      01001EF4H   LINE      CODE     ---       #538
      01001EF4H   LINE      CODE     ---       #539
      01001EF4H   LINE      CODE     ---       #540
      01001EFAH   LINE      CODE     ---       #541
      ---         BLOCKEND  ---      ---       LVL=0

      01001BEDH   BLOCK     CODE     ---       LVL=0
      00000007H   SYMBOL    DATA     BYTE      ChannelMask
      01001BEDH   LINE      CODE     ---       #549
      01001BEDH   LINE      CODE     ---       #550
      01001BEDH   LINE      CODE     ---       #551
      01001BF8H   LINE      CODE     ---       #552
      ---         BLOCKEND  ---      ---       LVL=0

      01001488H   BLOCK     CODE     ---       LVL=0
      00000007H   SYMBOL    DATA     BYTE      ChannelNum
      01001488H   LINE      CODE     ---       #561
      01001488H   LINE      CODE     ---       #562
      01001488H   LINE      CODE     ---       #563
      010014A6H   LINE      CODE     ---       #565
      ---         BLOCKEND  ---      ---       LVL=0

      010019DBH   BLOCK     CODE     ---       LVL=0
      00000007H   SYMBOL    DATA     BYTE      ChannelNum
      010019DBH   LINE      CODE     ---       #573
LX51 LINKER/LOCATER V4.66.1.0                                                         09/07/2023  18:22:32  PAGE 65


      010019DBH   LINE      CODE     ---       #574
      010019DBH   LINE      CODE     ---       #575
      010019EBH   LINE      CODE     ---       #576
      ---         BLOCKEND  ---      ---       LVL=0

      01001EFBH   BLOCK     CODE     ---       LVL=0
      00000007H   SYMBOL    DATA     BYTE      ChannelMask
      01001EFBH   LINE      CODE     ---       #584
      01001EFBH   LINE      CODE     ---       #585
      01001EFBH   LINE      CODE     ---       #586
      01001F01H   LINE      CODE     ---       #587
      ---         BLOCKEND  ---      ---       LVL=0

      01001BF9H   BLOCK     CODE     ---       LVL=0
      00000007H   SYMBOL    DATA     BYTE      ChannelMask
      01001BF9H   LINE      CODE     ---       #595
      01001BF9H   LINE      CODE     ---       #596
      01001BF9H   LINE      CODE     ---       #597
      01001C04H   LINE      CODE     ---       #598
      ---         BLOCKEND  ---      ---       LVL=0

      010014A7H   BLOCK     CODE     ---       LVL=0
      00000007H   SYMBOL    DATA     BYTE      ChannelNum
      010014A7H   LINE      CODE     ---       #607
      010014A7H   LINE      CODE     ---       #608
      010014A7H   LINE      CODE     ---       #609
      010014C5H   LINE      CODE     ---       #610
      ---         BLOCKEND  ---      ---       LVL=0

      010019ECH   BLOCK     CODE     ---       LVL=0
      00000007H   SYMBOL    DATA     BYTE      ChannelNum
      010019ECH   LINE      CODE     ---       #618
      010019ECH   LINE      CODE     ---       #619
      010019ECH   LINE      CODE     ---       #620
      010019FCH   LINE      CODE     ---       #621
      ---         BLOCKEND  ---      ---       LVL=0

      01001F02H   BLOCK     CODE     ---       LVL=0
      00000007H   SYMBOL    DATA     BYTE      ChannelMask
      01001F02H   LINE      CODE     ---       #629
      01001F02H   LINE      CODE     ---       #630
      01001F02H   LINE      CODE     ---       #631
      01001F08H   LINE      CODE     ---       #632
      ---         BLOCKEND  ---      ---       LVL=0

      01001C05H   BLOCK     CODE     ---       LVL=0
      00000007H   SYMBOL    DATA     BYTE      ChannelMask
      01001C05H   LINE      CODE     ---       #640
      01001C05H   LINE      CODE     ---       #641
      01001C05H   LINE      CODE     ---       #642
      01001C10H   LINE      CODE     ---       #643
      ---         BLOCKEND  ---      ---       LVL=0

      010019FDH   BLOCK     CODE     ---       LVL=0
      00000007H   SYMBOL    DATA     BYTE      ChannelNum
      010019FDH   LINE      CODE     ---       #651
      010019FDH   LINE      CODE     ---       #652
      010019FDH   LINE      CODE     ---       #653
      01001A0DH   LINE      CODE     ---       #654
      ---         BLOCKEND  ---      ---       LVL=0

      010014C6H   BLOCK     CODE     ---       LVL=0
      00000007H   SYMBOL    DATA     BYTE      ChannelNum
      010014C6H   LINE      CODE     ---       #663
      010014C6H   LINE      CODE     ---       #664
LX51 LINKER/LOCATER V4.66.1.0                                                         09/07/2023  18:22:32  PAGE 66


      010014C6H   LINE      CODE     ---       #665
      010014E4H   LINE      CODE     ---       #666
      ---         BLOCKEND  ---      ---       LVL=0

      01001F09H   BLOCK     CODE     ---       LVL=0
      00000007H   SYMBOL    DATA     BYTE      ChannelMask
      01001F09H   LINE      CODE     ---       #675
      01001F09H   LINE      CODE     ---       #676
      01001F09H   LINE      CODE     ---       #677
      01001F0FH   LINE      CODE     ---       #678
      ---         BLOCKEND  ---      ---       LVL=0

      01001C11H   BLOCK     CODE     ---       LVL=0
      00000007H   SYMBOL    DATA     BYTE      ChannelMask
      01001C11H   LINE      CODE     ---       #686
      01001C11H   LINE      CODE     ---       #687
      01001C11H   LINE      CODE     ---       #688
      01001C1CH   LINE      CODE     ---       #689
      ---         BLOCKEND  ---      ---       LVL=0

      01001A0EH   BLOCK     CODE     ---       LVL=0
      00000007H   SYMBOL    DATA     BYTE      ChannelNum
      01001A0EH   LINE      CODE     ---       #697
      01001A0EH   LINE      CODE     ---       #698
      01001A0EH   LINE      CODE     ---       #699
      01001A1EH   LINE      CODE     ---       #700
      ---         BLOCKEND  ---      ---       LVL=0

      010014E5H   BLOCK     CODE     ---       LVL=0
      00000007H   SYMBOL    DATA     BYTE      ChannelNum
      010014E5H   LINE      CODE     ---       #709
      010014E5H   LINE      CODE     ---       #710
      010014E5H   LINE      CODE     ---       #711
      01001503H   LINE      CODE     ---       #712
      ---         BLOCKEND  ---      ---       LVL=0

      01001C1DH   BLOCK     CODE     ---       LVL=0
      01001C1DH   LINE      CODE     ---       #720
      01001C1DH   LINE      CODE     ---       #721
      01001C1DH   LINE      CODE     ---       #722
      01001C24H   LINE      CODE     ---       #723
      01001C28H   LINE      CODE     ---       #725
      ---         BLOCKEND  ---      ---       LVL=0

      01001E18H   BLOCK     CODE     ---       LVL=0
      01001E18H   LINE      CODE     ---       #733
      01001E18H   LINE      CODE     ---       #734
      01001E18H   LINE      CODE     ---       #735
      01001E1FH   LINE      CODE     ---       #736
      ---         BLOCKEND  ---      ---       LVL=0

      01001C29H   BLOCK     CODE     ---       LVL=0
      01001C29H   LINE      CODE     ---       #745
      01001C29H   LINE      CODE     ---       #746
      01001C29H   LINE      CODE     ---       #747
      01001C34H   LINE      CODE     ---       #748
      ---         BLOCKEND  ---      ---       LVL=0

      01001E20H   BLOCK     CODE     ---       LVL=0
      01001E20H   LINE      CODE     ---       #756
      01001E20H   LINE      CODE     ---       #757
      01001E20H   LINE      CODE     ---       #758
      01001E27H   LINE      CODE     ---       #759
      ---         BLOCKEND  ---      ---       LVL=0

LX51 LINKER/LOCATER V4.66.1.0                                                         09/07/2023  18:22:32  PAGE 67


      01001F10H   BLOCK     CODE     ---       LVL=0
      00000007H   SYMBOL    DATA     BYTE      ChannelMask
      01001F10H   LINE      CODE     ---       #769
      01001F10H   LINE      CODE     ---       #770
      01001F10H   LINE      CODE     ---       #771
      01001F16H   LINE      CODE     ---       #772
      ---         BLOCKEND  ---      ---       LVL=0

      01001C35H   BLOCK     CODE     ---       LVL=0
      00000007H   SYMBOL    DATA     BYTE      ChannelMask
      01001C35H   LINE      CODE     ---       #780
      01001C35H   LINE      CODE     ---       #781
      01001C35H   LINE      CODE     ---       #782
      01001C40H   LINE      CODE     ---       #783
      ---         BLOCKEND  ---      ---       LVL=0

      01001E28H   BLOCK     CODE     ---       LVL=0
      01001E28H   LINE      CODE     ---       #791
      01001E28H   LINE      CODE     ---       #792
      01001E28H   LINE      CODE     ---       #793
      01001E2FH   LINE      CODE     ---       #794
      ---         BLOCKEND  ---      ---       LVL=0

      01001E30H   BLOCK     CODE     ---       LVL=0
      01001E30H   LINE      CODE     ---       #802
      01001E30H   LINE      CODE     ---       #803
      01001E30H   LINE      CODE     ---       #804
      01001E37H   LINE      CODE     ---       #805
      ---         BLOCKEND  ---      ---       LVL=0

      01001AE6H   BLOCK     CODE     ---       LVL=0
      00000007H   SYMBOL    DATA     BYTE      FBBrakeLevel
      01001AE6H   BLOCK     CODE     NEAR LAB  LVL=1
      00000006H   SYMBOL    DATA     BYTE      Temp
      ---         BLOCKEND  ---      ---       LVL=1
      01001AE6H   LINE      CODE     ---       #814
      01001AE6H   LINE      CODE     ---       #815
      01001AE6H   LINE      CODE     ---       #816
      01001AE6H   LINE      CODE     ---       #818
      01001AEBH   LINE      CODE     ---       #819
      01001AEEH   LINE      CODE     ---       #820
      01001AF1H   LINE      CODE     ---       #821
      01001AF3H   LINE      CODE     ---       #822
      ---         BLOCKEND  ---      ---       LVL=0

      0100006EH   BLOCK     CODE     ---       LVL=0
      0100006EH   LINE      CODE     ---       #830
      0100006EH   LINE      CODE     ---       #831
      0100006EH   LINE      CODE     ---       #832
      01000071H   LINE      CODE     ---       #833
      ---         BLOCKEND  ---      ---       LVL=0

      01000076H   BLOCK     CODE     ---       LVL=0
      01000076H   LINE      CODE     ---       #841
      01000076H   LINE      CODE     ---       #842
      01000076H   LINE      CODE     ---       #843
      01000079H   LINE      CODE     ---       #844
      ---         BLOCKEND  ---      ---       LVL=0

      ---         MODULE    ---      ---       EXTINT
      01001CEFH   PUBLIC    CODE     ---       _EXTINT_ClearIntFlag
      01001504H   PUBLIC    CODE     ---       _EXTINT_GetIntFlag
      01001CE4H   PUBLIC    CODE     ---       _EXTINT_DisableInt
      01001CD9H   PUBLIC    CODE     ---       _EXTINT_EnableInt
      010016D9H   PUBLIC    CODE     ---       _EXTINT_ConfigInt
LX51 LINKER/LOCATER V4.66.1.0                                                         09/07/2023  18:22:32  PAGE 68


      000000C8H   SFRSYM    DATA     BIT       T2I0
      000000C3H   SFRSYM    DATA     BYTE      CCH1
      00000080H   SFRSYM    DATA     BYTE      P0
      000000C8H.1 SFRSYM    DATA     BIT       T2I1
      000000C5H   SFRSYM    DATA     BYTE      CCH2
      00000090H   SFRSYM    DATA     BYTE      P1
      000000C7H   SFRSYM    DATA     BYTE      CCH3
      000000ACH   SFRSYM    DATA     BYTE      P0EXTIE
      000000A0H   SFRSYM    DATA     BYTE      P2
      000000B4H   SFRSYM    DATA     BYTE      P0EXTIF
      000000B0H   SFRSYM    DATA     BYTE      P3
      000000ADH   SFRSYM    DATA     BYTE      P1EXTIE
      000000D0H.6 SFRSYM    DATA     BIT       AC
      000000FFH   SFRSYM    DATA     BYTE      MCTRL
      000000C2H   SFRSYM    DATA     BYTE      CCL1
      000000B5H   SFRSYM    DATA     BYTE      P1EXTIF
      000000AEH   SFRSYM    DATA     BYTE      P2EXTIE
      000000C4H   SFRSYM    DATA     BYTE      CCL2
      000000B6H   SFRSYM    DATA     BYTE      P2EXTIF
      000000AFH   SFRSYM    DATA     BYTE      P3EXTIE
      000000A8H.7 SFRSYM    DATA     BIT       EA
      000000C6H   SFRSYM    DATA     BYTE      CCL3
      000000B7H   SFRSYM    DATA     BYTE      P3EXTIF
      000000AAH   SFRSYM    DATA     BYTE      EIE2
      000000B2H   SFRSYM    DATA     BYTE      EIF2
      000000C8H.3 SFRSYM    DATA     BIT       T2R0
      000000C8H.4 SFRSYM    DATA     BIT       T2R1
      00000083H   SFRSYM    DATA     BYTE      DPH0
      000000A8H   SFRSYM    DATA     BYTE      IE
      00000085H   SFRSYM    DATA     BYTE      DPH1
      000000B9H   SFRSYM    DATA     BYTE      EIP1
      000000BAH   SFRSYM    DATA     BYTE      EIP2
      00000082H   SFRSYM    DATA     BYTE      DPL0
      00000084H   SFRSYM    DATA     BYTE      DPL1
      000000C8H.6 SFRSYM    DATA     BIT       I3FR
      000000CFH   SFRSYM    DATA     BYTE      T2IE
      00000096H   SFRSYM    DATA     BYTE      TA
      000000C9H   SFRSYM    DATA     BYTE      T2IF
      000000C8H.2 SFRSYM    DATA     BIT       T2CM
      000000DFH   SFRSYM    DATA     BYTE      ADCON0
      000000DEH   SFRSYM    DATA     BYTE      ADCON1
      000000E9H   SFRSYM    DATA     BYTE      ADCON2
      000000B8H   SFRSYM    DATA     BYTE      IP
      000000CEH   SFRSYM    DATA     BYTE      CCEN
      000000D0H.7 SFRSYM    DATA     BIT       CY
      000000D2H   SFRSYM    DATA     BYTE      T34MOD
      00000093H   SFRSYM    DATA     BYTE      DPX0
      00000095H   SFRSYM    DATA     BYTE      DPX1
      000000F4H   SFRSYM    DATA     BYTE      I2CMSA
      000000F5H   SFRSYM    DATA     BYTE      I2CMCR
      00000081H   SFRSYM    DATA     BYTE      SP
      000000D0H.2 SFRSYM    DATA     BIT       OV
      000000F2H   SFRSYM    DATA     BYTE      I2CSCR
      000000C8H.7 SFRSYM    DATA     BIT       T2PS
      000000D1H   SFRSYM    DATA     BYTE      ADCMPC
      000000CBH   SFRSYM    DATA     BYTE      RLDH
      000000D5H   SFRSYM    DATA     BYTE      ADCMPH
      000000CAH   SFRSYM    DATA     BYTE      RLDL
      00000080H   SFRSYM    DATA     BIT       P00
      00000090H   SFRSYM    DATA     BIT       P10
      00000080H.1 SFRSYM    DATA     BIT       P01
      000000F7H   SFRSYM    DATA     BYTE      I2CMTP
      00000099H   SFRSYM    DATA     BYTE      SBUF
      00000087H   SFRSYM    DATA     BYTE      PCON
      000000A0H   SFRSYM    DATA     BIT       P20
LX51 LINKER/LOCATER V4.66.1.0                                                         09/07/2023  18:22:32  PAGE 69


      00000090H.1 SFRSYM    DATA     BIT       P11
      00000080H.2 SFRSYM    DATA     BIT       P02
      000000F5H   SFRSYM    DATA     BYTE      I2CMSR
      000000B0H   SFRSYM    DATA     BIT       P30
      000000A0H.1 SFRSYM    DATA     BIT       P21
      00000090H.2 SFRSYM    DATA     BIT       P12
      00000080H.3 SFRSYM    DATA     BIT       P03
      000000D4H   SFRSYM    DATA     BYTE      ADCMPL
      000000B0H.1 SFRSYM    DATA     BIT       P31
      000000A0H.2 SFRSYM    DATA     BIT       P22
      00000090H.3 SFRSYM    DATA     BIT       P13
      00000080H.4 SFRSYM    DATA     BIT       P04
      000000B0H.2 SFRSYM    DATA     BIT       P32
      000000A0H.3 SFRSYM    DATA     BIT       P23
      00000090H.4 SFRSYM    DATA     BIT       P14
      00000080H.5 SFRSYM    DATA     BIT       P05
      00000089H   SFRSYM    DATA     BYTE      TMOD
      00000088H   SFRSYM    DATA     BYTE      TCON
      000000B0H.3 SFRSYM    DATA     BIT       P33
      000000A0H.4 SFRSYM    DATA     BIT       P24
      00000090H.5 SFRSYM    DATA     BIT       P15
      00000080H.6 SFRSYM    DATA     BIT       P06
      000000B0H.4 SFRSYM    DATA     BIT       P34
      000000A0H.5 SFRSYM    DATA     BIT       P25
      00000090H.6 SFRSYM    DATA     BIT       P16
      00000080H.7 SFRSYM    DATA     BIT       P07
      000000B0H.5 SFRSYM    DATA     BIT       P35
      000000A0H.6 SFRSYM    DATA     BIT       P26
      00000090H.7 SFRSYM    DATA     BIT       P17
      000000F2H   SFRSYM    DATA     BYTE      I2CSSR
      000000B0H.6 SFRSYM    DATA     BIT       P36
      000000A0H.7 SFRSYM    DATA     BIT       P27
      000000ECH   SFRSYM    DATA     BYTE      SPCR
      000000DDH   SFRSYM    DATA     BYTE      ADRESH
      000000B0H.7 SFRSYM    DATA     BIT       P37
      000000EEH   SFRSYM    DATA     BYTE      SPDR
      000000EFH   SFRSYM    DATA     BYTE      SSCR
      000000D3H   SFRSYM    DATA     BYTE      ADDLYL
      000000DCH   SFRSYM    DATA     BYTE      ADRESL
      00000088H.1 SFRSYM    DATA     BIT       IE0
      00000088H.3 SFRSYM    DATA     BIT       IE1
      0000008FH   SFRSYM    DATA     BYTE      CLKDIV
      000000F0H   SFRSYM    DATA     BYTE      B
      00000091H   SFRSYM    DATA     BYTE      FUNCCR
      0000009AH   SFRSYM    DATA     BYTE      P0TRIS
      000000A1H   SFRSYM    DATA     BYTE      P1TRIS
      000000A2H   SFRSYM    DATA     BYTE      P2TRIS
      000000E0H   SFRSYM    DATA     BYTE      ACC
      000000A3H   SFRSYM    DATA     BYTE      P3TRIS
      000000A8H.4 SFRSYM    DATA     BIT       ES0
      000000A8H.6 SFRSYM    DATA     BIT       ES1
      000000A8H.1 SFRSYM    DATA     BIT       ET0
      000000EDH   SFRSYM    DATA     BYTE      SPSR
      000000A8H.3 SFRSYM    DATA     BIT       ET1
      00000088H.5 SFRSYM    DATA     BIT       TF0
      000000A8H.5 SFRSYM    DATA     BIT       ET2
      00000098H   SFRSYM    DATA     BIT       RI0
      00000088H.7 SFRSYM    DATA     BIT       TF1
      0000008CH   SFRSYM    DATA     BYTE      TH0
      000000A8H   SFRSYM    DATA     BIT       EX0
      00000098H.1 SFRSYM    DATA     BIT       TI0
      00000088H   SFRSYM    DATA     BIT       IT0
      0000008DH   SFRSYM    DATA     BYTE      TH1
      000000A8H.2 SFRSYM    DATA     BIT       EX1
      00000088H.2 SFRSYM    DATA     BIT       IT1
LX51 LINKER/LOCATER V4.66.1.0                                                         09/07/2023  18:22:32  PAGE 70


      000000CDH   SFRSYM    DATA     BYTE      TH2
      000000D0H   SFRSYM    DATA     BIT       P
      000000DBH   SFRSYM    DATA     BYTE      TH3
      000000E3H   SFRSYM    DATA     BYTE      TH4
      0000008AH   SFRSYM    DATA     BYTE      TL0
      0000008BH   SFRSYM    DATA     BYTE      TL1
      00000098H.2 SFRSYM    DATA     BIT       U0RB8
      000000CCH   SFRSYM    DATA     BYTE      TL2
      000000B8H.4 SFRSYM    DATA     BIT       PS0
      000000DAH   SFRSYM    DATA     BYTE      TL3
      000000BFH   SFRSYM    DATA     BYTE      BUZCON
      000000B8H.6 SFRSYM    DATA     BIT       PS1
      000000B8H.1 SFRSYM    DATA     BIT       PT0
      00000098H.3 SFRSYM    DATA     BIT       U0TB8
      000000E2H   SFRSYM    DATA     BYTE      TL4
      000000D0H.3 SFRSYM    DATA     BIT       RS0
      000000B8H.3 SFRSYM    DATA     BIT       PT1
      000000D0H.4 SFRSYM    DATA     BIT       RS1
      000000B8H.5 SFRSYM    DATA     BIT       PT2
      00000098H.7 SFRSYM    DATA     BIT       U0SM0
      00000088H.4 SFRSYM    DATA     BIT       TR0
      000000BEH   SFRSYM    DATA     BYTE      BUZDIV
      00000098H.6 SFRSYM    DATA     BIT       U0SM1
      00000088H.6 SFRSYM    DATA     BIT       TR1
      000000B8H   SFRSYM    DATA     BIT       PX0
      00000098H.5 SFRSYM    DATA     BIT       U0SM2
      000000B8H.2 SFRSYM    DATA     BIT       PX1
      000000BDH   SFRSYM    DATA     BYTE      WUTCRH
      00000099H   SFRSYM    DATA     BYTE      SBUF0
      000000EBH   SFRSYM    DATA     BYTE      SBUF1
      000000BCH   SFRSYM    DATA     BYTE      WUTCRL
      00000098H   SFRSYM    DATA     BYTE      SCON0
      000000EAH   SFRSYM    DATA     BYTE      SCON1
      000000C8H   SFRSYM    DATA     BYTE      T2CON
      00000086H   SFRSYM    DATA     BYTE      DPS
      000000FEH   SFRSYM    DATA     BYTE      MDATA
      000000F6H   SFRSYM    DATA     BYTE      I2CMBUF
      000000F1H   SFRSYM    DATA     BYTE      I2CSADR
      00000098H.4 SFRSYM    DATA     BIT       U0REN
      000000C8H.5 SFRSYM    DATA     BIT       CAPES
      000000FDH   SFRSYM    DATA     BYTE      MADRH
      0000008EH   SFRSYM    DATA     BYTE      CKCON
      000000F3H   SFRSYM    DATA     BYTE      I2CSBUF
      000000FCH   SFRSYM    DATA     BYTE      MADRL
      000000D0H.5 SFRSYM    DATA     BIT       F0
      000000FBH   SFRSYM    DATA     BYTE      MLOCK
      000000D0H   SFRSYM    DATA     BYTE      PSW
      00000097H   SFRSYM    DATA     BYTE      WDCON

      010016D9H   BLOCK     CODE     ---       LVL=0
      00000007H   SYMBOL    DATA     BYTE      Extintn
      00000005H   SYMBOL    DATA     BYTE      IntMode
      010016D9H   LINE      CODE     ---       #70
      010016D9H   LINE      CODE     ---       #71
      010016D9H   LINE      CODE     ---       #72
      010016DCH   LINE      CODE     ---       #73
      010016DCH   LINE      CODE     ---       #74
      010016DFH   LINE      CODE     ---       #75
      010016E1H   LINE      CODE     ---       #76
      010016E4H   LINE      CODE     ---       #77
      010016E6H   LINE      CODE     ---       #78
      010016E6H   LINE      CODE     ---       #79
      010016E9H   LINE      CODE     ---       #80
      010016E9H   LINE      CODE     ---       #81
      010016ECH   LINE      CODE     ---       #82
LX51 LINKER/LOCATER V4.66.1.0                                                         09/07/2023  18:22:32  PAGE 71


      010016EEH   LINE      CODE     ---       #83
      010016F1H   LINE      CODE     ---       #84
      010016F3H   LINE      CODE     ---       #85
      010016F3H   LINE      CODE     ---       #86
      ---         BLOCKEND  ---      ---       LVL=0

      01001CD9H   BLOCK     CODE     ---       LVL=0
      00000007H   SYMBOL    DATA     BYTE      Extintn
      01001CD9H   LINE      CODE     ---       #95
      01001CD9H   LINE      CODE     ---       #96
      01001CD9H   LINE      CODE     ---       #97
      01001CDCH   LINE      CODE     ---       #98
      01001CDCH   LINE      CODE     ---       #99
      01001CDEH   LINE      CODE     ---       #100
      01001CDEH   LINE      CODE     ---       #101
      01001CE1H   LINE      CODE     ---       #102
      01001CE1H   LINE      CODE     ---       #103
      01001CE3H   LINE      CODE     ---       #104
      01001CE3H   LINE      CODE     ---       #105
      ---         BLOCKEND  ---      ---       LVL=0

      01001CE4H   BLOCK     CODE     ---       LVL=0
      00000007H   SYMBOL    DATA     BYTE      Extintn
      01001CE4H   LINE      CODE     ---       #114
      01001CE4H   LINE      CODE     ---       #115
      01001CE4H   LINE      CODE     ---       #116
      01001CE7H   LINE      CODE     ---       #117
      01001CE7H   LINE      CODE     ---       #118
      01001CE9H   LINE      CODE     ---       #119
      01001CE9H   LINE      CODE     ---       #120
      01001CECH   LINE      CODE     ---       #121
      01001CECH   LINE      CODE     ---       #122
      01001CEEH   LINE      CODE     ---       #123
      01001CEEH   LINE      CODE     ---       #124
      ---         BLOCKEND  ---      ---       LVL=0

      01001504H   BLOCK     CODE     ---       LVL=0
      00000006H   SYMBOL    DATA     BYTE      Extintn
      01001504H   LINE      CODE     ---       #133
      01001506H   LINE      CODE     ---       #134
      01001506H   LINE      CODE     ---       #135
      01001509H   LINE      CODE     ---       #136
      01001509H   LINE      CODE     ---       #137
      01001513H   LINE      CODE     ---       #138
      01001513H   LINE      CODE     ---       #139
      01001516H   LINE      CODE     ---       #140
      01001516H   LINE      CODE     ---       #141
      01001520H   LINE      CODE     ---       #142
      01001520H   LINE      CODE     ---       #143
      01001522H   LINE      CODE     ---       #144
      ---         BLOCKEND  ---      ---       LVL=0

      01001CEFH   BLOCK     CODE     ---       LVL=0
      00000007H   SYMBOL    DATA     BYTE      Extintn
      01001CEFH   LINE      CODE     ---       #153
      01001CEFH   LINE      CODE     ---       #154
      01001CEFH   LINE      CODE     ---       #155
      01001CF2H   LINE      CODE     ---       #156
      01001CF2H   LINE      CODE     ---       #157
      01001CF4H   LINE      CODE     ---       #158
      01001CF4H   LINE      CODE     ---       #159
      01001CF7H   LINE      CODE     ---       #160
      01001CF7H   LINE      CODE     ---       #161
      01001CF9H   LINE      CODE     ---       #162
      01001CF9H   LINE      CODE     ---       #163
LX51 LINKER/LOCATER V4.66.1.0                                                         09/07/2023  18:22:32  PAGE 72


      ---         BLOCKEND  ---      ---       LVL=0

      ---         MODULE    ---      ---       FLASH
      01001162H   PUBLIC    CODE     ---       _FLASH_Erase
      010010FFH   PUBLIC    CODE     ---       _FLASH_Read
      01001131H   PUBLIC    CODE     ---       _FLASH_Write
      01000096H   PUBLIC    CODE     ---       FLASH_Lock
      0100007EH   PUBLIC    CODE     ---       FLASH_UnLock
      000000C8H   SFRSYM    DATA     BIT       T2I0
      000000C3H   SFRSYM    DATA     BYTE      CCH1
      00000080H   SFRSYM    DATA     BYTE      P0
      000000C8H.1 SFRSYM    DATA     BIT       T2I1
      000000C5H   SFRSYM    DATA     BYTE      CCH2
      00000090H   SFRSYM    DATA     BYTE      P1
      000000C7H   SFRSYM    DATA     BYTE      CCH3
      000000ACH   SFRSYM    DATA     BYTE      P0EXTIE
      000000A0H   SFRSYM    DATA     BYTE      P2
      000000B4H   SFRSYM    DATA     BYTE      P0EXTIF
      000000B0H   SFRSYM    DATA     BYTE      P3
      000000ADH   SFRSYM    DATA     BYTE      P1EXTIE
      000000D0H.6 SFRSYM    DATA     BIT       AC
      000000FFH   SFRSYM    DATA     BYTE      MCTRL
      000000C2H   SFRSYM    DATA     BYTE      CCL1
      000000B5H   SFRSYM    DATA     BYTE      P1EXTIF
      000000AEH   SFRSYM    DATA     BYTE      P2EXTIE
      000000C4H   SFRSYM    DATA     BYTE      CCL2
      000000B6H   SFRSYM    DATA     BYTE      P2EXTIF
      000000AFH   SFRSYM    DATA     BYTE      P3EXTIE
      000000A8H.7 SFRSYM    DATA     BIT       EA
      000000C6H   SFRSYM    DATA     BYTE      CCL3
      000000B7H   SFRSYM    DATA     BYTE      P3EXTIF
      000000AAH   SFRSYM    DATA     BYTE      EIE2
      000000B2H   SFRSYM    DATA     BYTE      EIF2
      000000C8H.3 SFRSYM    DATA     BIT       T2R0
      000000C8H.4 SFRSYM    DATA     BIT       T2R1
      00000083H   SFRSYM    DATA     BYTE      DPH0
      000000A8H   SFRSYM    DATA     BYTE      IE
      00000085H   SFRSYM    DATA     BYTE      DPH1
      000000B9H   SFRSYM    DATA     BYTE      EIP1
      000000BAH   SFRSYM    DATA     BYTE      EIP2
      00000082H   SFRSYM    DATA     BYTE      DPL0
      00000084H   SFRSYM    DATA     BYTE      DPL1
      000000C8H.6 SFRSYM    DATA     BIT       I3FR
      000000CFH   SFRSYM    DATA     BYTE      T2IE
      00000096H   SFRSYM    DATA     BYTE      TA
      000000C9H   SFRSYM    DATA     BYTE      T2IF
      000000C8H.2 SFRSYM    DATA     BIT       T2CM
      000000DFH   SFRSYM    DATA     BYTE      ADCON0
      000000DEH   SFRSYM    DATA     BYTE      ADCON1
      000000E9H   SFRSYM    DATA     BYTE      ADCON2
      000000B8H   SFRSYM    DATA     BYTE      IP
      000000CEH   SFRSYM    DATA     BYTE      CCEN
      000000D0H.7 SFRSYM    DATA     BIT       CY
      000000D2H   SFRSYM    DATA     BYTE      T34MOD
      00000093H   SFRSYM    DATA     BYTE      DPX0
      00000095H   SFRSYM    DATA     BYTE      DPX1
      000000F4H   SFRSYM    DATA     BYTE      I2CMSA
      000000F5H   SFRSYM    DATA     BYTE      I2CMCR
      00000081H   SFRSYM    DATA     BYTE      SP
      000000D0H.2 SFRSYM    DATA     BIT       OV
      000000F2H   SFRSYM    DATA     BYTE      I2CSCR
      000000C8H.7 SFRSYM    DATA     BIT       T2PS
      000000D1H   SFRSYM    DATA     BYTE      ADCMPC
      000000CBH   SFRSYM    DATA     BYTE      RLDH
      000000D5H   SFRSYM    DATA     BYTE      ADCMPH
LX51 LINKER/LOCATER V4.66.1.0                                                         09/07/2023  18:22:32  PAGE 73


      000000CAH   SFRSYM    DATA     BYTE      RLDL
      00000080H   SFRSYM    DATA     BIT       P00
      00000090H   SFRSYM    DATA     BIT       P10
      00000080H.1 SFRSYM    DATA     BIT       P01
      000000F7H   SFRSYM    DATA     BYTE      I2CMTP
      00000099H   SFRSYM    DATA     BYTE      SBUF
      00000087H   SFRSYM    DATA     BYTE      PCON
      000000A0H   SFRSYM    DATA     BIT       P20
      00000090H.1 SFRSYM    DATA     BIT       P11
      00000080H.2 SFRSYM    DATA     BIT       P02
      000000F5H   SFRSYM    DATA     BYTE      I2CMSR
      000000B0H   SFRSYM    DATA     BIT       P30
      000000A0H.1 SFRSYM    DATA     BIT       P21
      00000090H.2 SFRSYM    DATA     BIT       P12
      00000080H.3 SFRSYM    DATA     BIT       P03
      000000D4H   SFRSYM    DATA     BYTE      ADCMPL
      000000B0H.1 SFRSYM    DATA     BIT       P31
      000000A0H.2 SFRSYM    DATA     BIT       P22
      00000090H.3 SFRSYM    DATA     BIT       P13
      00000080H.4 SFRSYM    DATA     BIT       P04
      000000B0H.2 SFRSYM    DATA     BIT       P32
      000000A0H.3 SFRSYM    DATA     BIT       P23
      00000090H.4 SFRSYM    DATA     BIT       P14
      00000080H.5 SFRSYM    DATA     BIT       P05
      00000089H   SFRSYM    DATA     BYTE      TMOD
      00000088H   SFRSYM    DATA     BYTE      TCON
      000000B0H.3 SFRSYM    DATA     BIT       P33
      000000A0H.4 SFRSYM    DATA     BIT       P24
      00000090H.5 SFRSYM    DATA     BIT       P15
      00000080H.6 SFRSYM    DATA     BIT       P06
      000000B0H.4 SFRSYM    DATA     BIT       P34
      000000A0H.5 SFRSYM    DATA     BIT       P25
      00000090H.6 SFRSYM    DATA     BIT       P16
      00000080H.7 SFRSYM    DATA     BIT       P07
      000000B0H.5 SFRSYM    DATA     BIT       P35
      000000A0H.6 SFRSYM    DATA     BIT       P26
      00000090H.7 SFRSYM    DATA     BIT       P17
      000000F2H   SFRSYM    DATA     BYTE      I2CSSR
      000000B0H.6 SFRSYM    DATA     BIT       P36
      000000A0H.7 SFRSYM    DATA     BIT       P27
      000000ECH   SFRSYM    DATA     BYTE      SPCR
      000000DDH   SFRSYM    DATA     BYTE      ADRESH
      000000B0H.7 SFRSYM    DATA     BIT       P37
      000000EEH   SFRSYM    DATA     BYTE      SPDR
      000000EFH   SFRSYM    DATA     BYTE      SSCR
      000000D3H   SFRSYM    DATA     BYTE      ADDLYL
      000000DCH   SFRSYM    DATA     BYTE      ADRESL
      00000088H.1 SFRSYM    DATA     BIT       IE0
      00000088H.3 SFRSYM    DATA     BIT       IE1
      0000008FH   SFRSYM    DATA     BYTE      CLKDIV
      000000F0H   SFRSYM    DATA     BYTE      B
      00000091H   SFRSYM    DATA     BYTE      FUNCCR
      0000009AH   SFRSYM    DATA     BYTE      P0TRIS
      000000A1H   SFRSYM    DATA     BYTE      P1TRIS
      000000A2H   SFRSYM    DATA     BYTE      P2TRIS
      000000E0H   SFRSYM    DATA     BYTE      ACC
      000000A3H   SFRSYM    DATA     BYTE      P3TRIS
      000000A8H.4 SFRSYM    DATA     BIT       ES0
      000000A8H.6 SFRSYM    DATA     BIT       ES1
      000000A8H.1 SFRSYM    DATA     BIT       ET0
      000000EDH   SFRSYM    DATA     BYTE      SPSR
      000000A8H.3 SFRSYM    DATA     BIT       ET1
      00000088H.5 SFRSYM    DATA     BIT       TF0
      000000A8H.5 SFRSYM    DATA     BIT       ET2
      00000098H   SFRSYM    DATA     BIT       RI0
LX51 LINKER/LOCATER V4.66.1.0                                                         09/07/2023  18:22:32  PAGE 74


      00000088H.7 SFRSYM    DATA     BIT       TF1
      0000008CH   SFRSYM    DATA     BYTE      TH0
      000000A8H   SFRSYM    DATA     BIT       EX0
      00000098H.1 SFRSYM    DATA     BIT       TI0
      00000088H   SFRSYM    DATA     BIT       IT0
      0000008DH   SFRSYM    DATA     BYTE      TH1
      000000A8H.2 SFRSYM    DATA     BIT       EX1
      00000088H.2 SFRSYM    DATA     BIT       IT1
      000000CDH   SFRSYM    DATA     BYTE      TH2
      000000D0H   SFRSYM    DATA     BIT       P
      000000DBH   SFRSYM    DATA     BYTE      TH3
      000000E3H   SFRSYM    DATA     BYTE      TH4
      0000008AH   SFRSYM    DATA     BYTE      TL0
      0000008BH   SFRSYM    DATA     BYTE      TL1
      00000098H.2 SFRSYM    DATA     BIT       U0RB8
      000000CCH   SFRSYM    DATA     BYTE      TL2
      000000B8H.4 SFRSYM    DATA     BIT       PS0
      000000DAH   SFRSYM    DATA     BYTE      TL3
      000000BFH   SFRSYM    DATA     BYTE      BUZCON
      000000B8H.6 SFRSYM    DATA     BIT       PS1
      000000B8H.1 SFRSYM    DATA     BIT       PT0
      00000098H.3 SFRSYM    DATA     BIT       U0TB8
      000000E2H   SFRSYM    DATA     BYTE      TL4
      000000D0H.3 SFRSYM    DATA     BIT       RS0
      000000B8H.3 SFRSYM    DATA     BIT       PT1
      000000D0H.4 SFRSYM    DATA     BIT       RS1
      000000B8H.5 SFRSYM    DATA     BIT       PT2
      00000098H.7 SFRSYM    DATA     BIT       U0SM0
      00000088H.4 SFRSYM    DATA     BIT       TR0
      000000BEH   SFRSYM    DATA     BYTE      BUZDIV
      00000098H.6 SFRSYM    DATA     BIT       U0SM1
      00000088H.6 SFRSYM    DATA     BIT       TR1
      000000B8H   SFRSYM    DATA     BIT       PX0
      00000098H.5 SFRSYM    DATA     BIT       U0SM2
      000000B8H.2 SFRSYM    DATA     BIT       PX1
      000000BDH   SFRSYM    DATA     BYTE      WUTCRH
      00000099H   SFRSYM    DATA     BYTE      SBUF0
      000000EBH   SFRSYM    DATA     BYTE      SBUF1
      000000BCH   SFRSYM    DATA     BYTE      WUTCRL
      00000098H   SFRSYM    DATA     BYTE      SCON0
      000000EAH   SFRSYM    DATA     BYTE      SCON1
      000000C8H   SFRSYM    DATA     BYTE      T2CON
      00000086H   SFRSYM    DATA     BYTE      DPS
      000000FEH   SFRSYM    DATA     BYTE      MDATA
      000000F6H   SFRSYM    DATA     BYTE      I2CMBUF
      000000F1H   SFRSYM    DATA     BYTE      I2CSADR
      00000098H.4 SFRSYM    DATA     BIT       U0REN
      000000C8H.5 SFRSYM    DATA     BIT       CAPES
      000000FDH   SFRSYM    DATA     BYTE      MADRH
      0000008EH   SFRSYM    DATA     BYTE      CKCON
      000000F3H   SFRSYM    DATA     BYTE      I2CSBUF
      000000FCH   SFRSYM    DATA     BYTE      MADRL
      000000D0H.5 SFRSYM    DATA     BIT       F0
      000000FBH   SFRSYM    DATA     BYTE      MLOCK
      000000D0H   SFRSYM    DATA     BYTE      PSW
      00000097H   SFRSYM    DATA     BYTE      WDCON

      0100007EH   BLOCK     CODE     ---       LVL=0
      0100007EH   LINE      CODE     ---       #68
      0100007EH   LINE      CODE     ---       #69
      0100007EH   LINE      CODE     ---       #70
      01000081H   LINE      CODE     ---       #71
      ---         BLOCKEND  ---      ---       LVL=0

      01000096H   BLOCK     CODE     ---       LVL=0
LX51 LINKER/LOCATER V4.66.1.0                                                         09/07/2023  18:22:32  PAGE 75


      01000096H   LINE      CODE     ---       #79
      01000096H   LINE      CODE     ---       #80
      01000096H   LINE      CODE     ---       #81
      01000099H   LINE      CODE     ---       #82
      ---         BLOCKEND  ---      ---       LVL=0

      01001131H   BLOCK     CODE     ---       LVL=0
      00000002H   SYMBOL    DATA     BYTE      FLASHModule
      00000004H   SYMBOL    DATA     WORD      Addr
      00000003H   SYMBOL    DATA     BYTE      Data
      01001131H   LINE      CODE     ---       #95
      01001133H   LINE      CODE     ---       #96
      01001133H   LINE      CODE     ---       #97
      01001135H   LINE      CODE     ---       #98
      01001137H   LINE      CODE     ---       #99
      01001139H   LINE      CODE     ---       #101
      0100113CH   LINE      CODE     ---       #102
      0100113CH   LINE      CODE     ---       #103
      0100113EH   LINE      CODE     ---       #104
      01001143H   LINE      CODE     ---       #105
      01001144H   LINE      CODE     ---       #106
      01001145H   LINE      CODE     ---       #107
      01001146H   LINE      CODE     ---       #108
      01001147H   LINE      CODE     ---       #109
      01001148H   LINE      CODE     ---       #110
      01001149H   LINE      CODE     ---       #111
      0100114EH   LINE      CODE     ---       #112
      01001150H   LINE      CODE     ---       #113
      01001151H   LINE      CODE     ---       #115
      01001151H   LINE      CODE     ---       #116
      01001156H   LINE      CODE     ---       #117
      01001157H   LINE      CODE     ---       #118
      01001158H   LINE      CODE     ---       #119
      01001159H   LINE      CODE     ---       #120
      0100115AH   LINE      CODE     ---       #121
      0100115BH   LINE      CODE     ---       #122
      0100115CH   LINE      CODE     ---       #123
      01001161H   LINE      CODE     ---       #124
      01001161H   LINE      CODE     ---       #125
      ---         BLOCKEND  ---      ---       LVL=0

      010010FFH   BLOCK     CODE     ---       LVL=0
      00000003H   SYMBOL    DATA     BYTE      FLASHModule
      00000004H   SYMBOL    DATA     WORD      Addr
      010010FFH   LINE      CODE     ---       #137
      01001101H   LINE      CODE     ---       #138
      01001101H   LINE      CODE     ---       #139
      01001103H   LINE      CODE     ---       #140
      01001105H   LINE      CODE     ---       #141
      01001108H   LINE      CODE     ---       #142
      01001108H   LINE      CODE     ---       #143
      0100110AH   LINE      CODE     ---       #144
      0100110FH   LINE      CODE     ---       #145
      01001110H   LINE      CODE     ---       #146
      01001111H   LINE      CODE     ---       #147
      01001112H   LINE      CODE     ---       #148
      01001113H   LINE      CODE     ---       #149
      01001114H   LINE      CODE     ---       #150
      01001115H   LINE      CODE     ---       #151
      0100111AH   LINE      CODE     ---       #152
      0100111CH   LINE      CODE     ---       #153
      0100111EH   LINE      CODE     ---       #155
      0100111EH   LINE      CODE     ---       #156
      01001123H   LINE      CODE     ---       #157
      01001124H   LINE      CODE     ---       #158
LX51 LINKER/LOCATER V4.66.1.0                                                         09/07/2023  18:22:32  PAGE 76


      01001125H   LINE      CODE     ---       #159
      01001126H   LINE      CODE     ---       #160
      01001127H   LINE      CODE     ---       #161
      01001128H   LINE      CODE     ---       #162
      01001129H   LINE      CODE     ---       #163
      0100112EH   LINE      CODE     ---       #164
      0100112EH   LINE      CODE     ---       #165
      01001130H   LINE      CODE     ---       #166
      ---         BLOCKEND  ---      ---       LVL=0

      01001162H   BLOCK     CODE     ---       LVL=0
      00000003H   SYMBOL    DATA     BYTE      FLASHModule
      00000004H   SYMBOL    DATA     WORD      Addr
      01001162H   LINE      CODE     ---       #177
      01001164H   LINE      CODE     ---       #178
      01001164H   LINE      CODE     ---       #179
      01001166H   LINE      CODE     ---       #180
      01001168H   LINE      CODE     ---       #181
      0100116BH   LINE      CODE     ---       #182
      0100116BH   LINE      CODE     ---       #183
      0100116DH   LINE      CODE     ---       #184
      01001172H   LINE      CODE     ---       #185
      01001173H   LINE      CODE     ---       #186
      01001174H   LINE      CODE     ---       #187
      01001175H   LINE      CODE     ---       #188
      01001176H   LINE      CODE     ---       #189
      01001177H   LINE      CODE     ---       #190
      01001178H   LINE      CODE     ---       #191
      0100117DH   LINE      CODE     ---       #192
      0100117FH   LINE      CODE     ---       #193
      01001180H   LINE      CODE     ---       #195
      01001180H   LINE      CODE     ---       #196
      01001185H   LINE      CODE     ---       #197
      01001186H   LINE      CODE     ---       #198
      01001187H   LINE      CODE     ---       #199
      01001188H   LINE      CODE     ---       #200
      01001189H   LINE      CODE     ---       #201
      0100118AH   LINE      CODE     ---       #202
      0100118BH   LINE      CODE     ---       #203
      01001190H   LINE      CODE     ---       #204
      01001190H   LINE      CODE     ---       #205
      ---         BLOCKEND  ---      ---       LVL=0

      ---         MODULE    ---      ---       GPIO
      01000E5FH   PUBLIC    CODE     ---       _GPIO_ClearIntFlag
      01000E07H   PUBLIC    CODE     ---       _GPIO_GetIntFlag
      010013E6H   PUBLIC    CODE     ---       _GPIO_DisableInt
      010015BDH   PUBLIC    CODE     ---       _GPIO_EnableInt
      01000609H   PUBLIC    CODE     ---       _GPIO_ConfigGPIOMode
      000000C8H   SFRSYM    DATA     BIT       T2I0
      000000C3H   SFRSYM    DATA     BYTE      CCH1
      00000080H   SFRSYM    DATA     BYTE      P0
      000000C8H.1 SFRSYM    DATA     BIT       T2I1
      000000C5H   SFRSYM    DATA     BYTE      CCH2
      00000090H   SFRSYM    DATA     BYTE      P1
      000000C7H   SFRSYM    DATA     BYTE      CCH3
      000000ACH   SFRSYM    DATA     BYTE      P0EXTIE
      000000A0H   SFRSYM    DATA     BYTE      P2
      000000B4H   SFRSYM    DATA     BYTE      P0EXTIF
      000000B0H   SFRSYM    DATA     BYTE      P3
      000000ADH   SFRSYM    DATA     BYTE      P1EXTIE
      000000D0H.6 SFRSYM    DATA     BIT       AC
      000000FFH   SFRSYM    DATA     BYTE      MCTRL
      000000C2H   SFRSYM    DATA     BYTE      CCL1
      000000B5H   SFRSYM    DATA     BYTE      P1EXTIF
LX51 LINKER/LOCATER V4.66.1.0                                                         09/07/2023  18:22:32  PAGE 77


      000000AEH   SFRSYM    DATA     BYTE      P2EXTIE
      000000C4H   SFRSYM    DATA     BYTE      CCL2
      000000B6H   SFRSYM    DATA     BYTE      P2EXTIF
      000000AFH   SFRSYM    DATA     BYTE      P3EXTIE
      000000A8H.7 SFRSYM    DATA     BIT       EA
      000000C6H   SFRSYM    DATA     BYTE      CCL3
      000000B7H   SFRSYM    DATA     BYTE      P3EXTIF
      000000AAH   SFRSYM    DATA     BYTE      EIE2
      000000B2H   SFRSYM    DATA     BYTE      EIF2
      000000C8H.3 SFRSYM    DATA     BIT       T2R0
      000000C8H.4 SFRSYM    DATA     BIT       T2R1
      00000083H   SFRSYM    DATA     BYTE      DPH0
      000000A8H   SFRSYM    DATA     BYTE      IE
      00000085H   SFRSYM    DATA     BYTE      DPH1
      000000B9H   SFRSYM    DATA     BYTE      EIP1
      000000BAH   SFRSYM    DATA     BYTE      EIP2
      00000082H   SFRSYM    DATA     BYTE      DPL0
      00000084H   SFRSYM    DATA     BYTE      DPL1
      000000C8H.6 SFRSYM    DATA     BIT       I3FR
      000000CFH   SFRSYM    DATA     BYTE      T2IE
      00000096H   SFRSYM    DATA     BYTE      TA
      000000C9H   SFRSYM    DATA     BYTE      T2IF
      000000C8H.2 SFRSYM    DATA     BIT       T2CM
      000000DFH   SFRSYM    DATA     BYTE      ADCON0
      000000DEH   SFRSYM    DATA     BYTE      ADCON1
      000000E9H   SFRSYM    DATA     BYTE      ADCON2
      000000B8H   SFRSYM    DATA     BYTE      IP
      000000CEH   SFRSYM    DATA     BYTE      CCEN
      000000D0H.7 SFRSYM    DATA     BIT       CY
      000000D2H   SFRSYM    DATA     BYTE      T34MOD
      00000093H   SFRSYM    DATA     BYTE      DPX0
      00000095H   SFRSYM    DATA     BYTE      DPX1
      000000F4H   SFRSYM    DATA     BYTE      I2CMSA
      000000F5H   SFRSYM    DATA     BYTE      I2CMCR
      00000081H   SFRSYM    DATA     BYTE      SP
      000000D0H.2 SFRSYM    DATA     BIT       OV
      000000F2H   SFRSYM    DATA     BYTE      I2CSCR
      000000C8H.7 SFRSYM    DATA     BIT       T2PS
      000000D1H   SFRSYM    DATA     BYTE      ADCMPC
      000000CBH   SFRSYM    DATA     BYTE      RLDH
      000000D5H   SFRSYM    DATA     BYTE      ADCMPH
      000000CAH   SFRSYM    DATA     BYTE      RLDL
      00000080H   SFRSYM    DATA     BIT       P00
      00000090H   SFRSYM    DATA     BIT       P10
      00000080H.1 SFRSYM    DATA     BIT       P01
      000000F7H   SFRSYM    DATA     BYTE      I2CMTP
      00000099H   SFRSYM    DATA     BYTE      SBUF
      00000087H   SFRSYM    DATA     BYTE      PCON
      000000A0H   SFRSYM    DATA     BIT       P20
      00000090H.1 SFRSYM    DATA     BIT       P11
      00000080H.2 SFRSYM    DATA     BIT       P02
      000000F5H   SFRSYM    DATA     BYTE      I2CMSR
      000000B0H   SFRSYM    DATA     BIT       P30
      000000A0H.1 SFRSYM    DATA     BIT       P21
      00000090H.2 SFRSYM    DATA     BIT       P12
      00000080H.3 SFRSYM    DATA     BIT       P03
      000000D4H   SFRSYM    DATA     BYTE      ADCMPL
      000000B0H.1 SFRSYM    DATA     BIT       P31
      000000A0H.2 SFRSYM    DATA     BIT       P22
      00000090H.3 SFRSYM    DATA     BIT       P13
      00000080H.4 SFRSYM    DATA     BIT       P04
      000000B0H.2 SFRSYM    DATA     BIT       P32
      000000A0H.3 SFRSYM    DATA     BIT       P23
      00000090H.4 SFRSYM    DATA     BIT       P14
      00000080H.5 SFRSYM    DATA     BIT       P05
LX51 LINKER/LOCATER V4.66.1.0                                                         09/07/2023  18:22:32  PAGE 78


      00000089H   SFRSYM    DATA     BYTE      TMOD
      00000088H   SFRSYM    DATA     BYTE      TCON
      000000B0H.3 SFRSYM    DATA     BIT       P33
      000000A0H.4 SFRSYM    DATA     BIT       P24
      00000090H.5 SFRSYM    DATA     BIT       P15
      00000080H.6 SFRSYM    DATA     BIT       P06
      000000B0H.4 SFRSYM    DATA     BIT       P34
      000000A0H.5 SFRSYM    DATA     BIT       P25
      00000090H.6 SFRSYM    DATA     BIT       P16
      00000080H.7 SFRSYM    DATA     BIT       P07
      000000B0H.5 SFRSYM    DATA     BIT       P35
      000000A0H.6 SFRSYM    DATA     BIT       P26
      00000090H.7 SFRSYM    DATA     BIT       P17
      000000F2H   SFRSYM    DATA     BYTE      I2CSSR
      000000B0H.6 SFRSYM    DATA     BIT       P36
      000000A0H.7 SFRSYM    DATA     BIT       P27
      000000ECH   SFRSYM    DATA     BYTE      SPCR
      000000DDH   SFRSYM    DATA     BYTE      ADRESH
      000000B0H.7 SFRSYM    DATA     BIT       P37
      000000EEH   SFRSYM    DATA     BYTE      SPDR
      000000EFH   SFRSYM    DATA     BYTE      SSCR
      000000D3H   SFRSYM    DATA     BYTE      ADDLYL
      000000DCH   SFRSYM    DATA     BYTE      ADRESL
      00000088H.1 SFRSYM    DATA     BIT       IE0
      00000088H.3 SFRSYM    DATA     BIT       IE1
      0000008FH   SFRSYM    DATA     BYTE      CLKDIV
      000000F0H   SFRSYM    DATA     BYTE      B
      00000091H   SFRSYM    DATA     BYTE      FUNCCR
      0000009AH   SFRSYM    DATA     BYTE      P0TRIS
      000000A1H   SFRSYM    DATA     BYTE      P1TRIS
      000000A2H   SFRSYM    DATA     BYTE      P2TRIS
      000000E0H   SFRSYM    DATA     BYTE      ACC
      000000A3H   SFRSYM    DATA     BYTE      P3TRIS
      000000A8H.4 SFRSYM    DATA     BIT       ES0
      000000A8H.6 SFRSYM    DATA     BIT       ES1
      000000A8H.1 SFRSYM    DATA     BIT       ET0
      000000EDH   SFRSYM    DATA     BYTE      SPSR
      000000A8H.3 SFRSYM    DATA     BIT       ET1
      00000088H.5 SFRSYM    DATA     BIT       TF0
      000000A8H.5 SFRSYM    DATA     BIT       ET2
      00000098H   SFRSYM    DATA     BIT       RI0
      00000088H.7 SFRSYM    DATA     BIT       TF1
      0000008CH   SFRSYM    DATA     BYTE      TH0
      000000A8H   SFRSYM    DATA     BIT       EX0
      00000098H.1 SFRSYM    DATA     BIT       TI0
      00000088H   SFRSYM    DATA     BIT       IT0
      0000008DH   SFRSYM    DATA     BYTE      TH1
      000000A8H.2 SFRSYM    DATA     BIT       EX1
      00000088H.2 SFRSYM    DATA     BIT       IT1
      000000CDH   SFRSYM    DATA     BYTE      TH2
      000000D0H   SFRSYM    DATA     BIT       P
      000000DBH   SFRSYM    DATA     BYTE      TH3
      000000E3H   SFRSYM    DATA     BYTE      TH4
      0000008AH   SFRSYM    DATA     BYTE      TL0
      0000008BH   SFRSYM    DATA     BYTE      TL1
      00000098H.2 SFRSYM    DATA     BIT       U0RB8
      000000CCH   SFRSYM    DATA     BYTE      TL2
      000000B8H.4 SFRSYM    DATA     BIT       PS0
      000000DAH   SFRSYM    DATA     BYTE      TL3
      000000BFH   SFRSYM    DATA     BYTE      BUZCON
      000000B8H.6 SFRSYM    DATA     BIT       PS1
      000000B8H.1 SFRSYM    DATA     BIT       PT0
      00000098H.3 SFRSYM    DATA     BIT       U0TB8
      000000E2H   SFRSYM    DATA     BYTE      TL4
      000000D0H.3 SFRSYM    DATA     BIT       RS0
LX51 LINKER/LOCATER V4.66.1.0                                                         09/07/2023  18:22:32  PAGE 79


      000000B8H.3 SFRSYM    DATA     BIT       PT1
      000000D0H.4 SFRSYM    DATA     BIT       RS1
      000000B8H.5 SFRSYM    DATA     BIT       PT2
      00000098H.7 SFRSYM    DATA     BIT       U0SM0
      00000088H.4 SFRSYM    DATA     BIT       TR0
      000000BEH   SFRSYM    DATA     BYTE      BUZDIV
      00000098H.6 SFRSYM    DATA     BIT       U0SM1
      00000088H.6 SFRSYM    DATA     BIT       TR1
      000000B8H   SFRSYM    DATA     BIT       PX0
      00000098H.5 SFRSYM    DATA     BIT       U0SM2
      000000B8H.2 SFRSYM    DATA     BIT       PX1
      000000BDH   SFRSYM    DATA     BYTE      WUTCRH
      00000099H   SFRSYM    DATA     BYTE      SBUF0
      000000EBH   SFRSYM    DATA     BYTE      SBUF1
      000000BCH   SFRSYM    DATA     BYTE      WUTCRL
      00000098H   SFRSYM    DATA     BYTE      SCON0
      000000EAH   SFRSYM    DATA     BYTE      SCON1
      000000C8H   SFRSYM    DATA     BYTE      T2CON
      00000086H   SFRSYM    DATA     BYTE      DPS
      000000FEH   SFRSYM    DATA     BYTE      MDATA
      000000F6H   SFRSYM    DATA     BYTE      I2CMBUF
      000000F1H   SFRSYM    DATA     BYTE      I2CSADR
      00000098H.4 SFRSYM    DATA     BIT       U0REN
      000000C8H.5 SFRSYM    DATA     BIT       CAPES
      000000FDH   SFRSYM    DATA     BYTE      MADRH
      0000008EH   SFRSYM    DATA     BYTE      CKCON
      000000F3H   SFRSYM    DATA     BYTE      I2CSBUF
      000000FCH   SFRSYM    DATA     BYTE      MADRL
      000000D0H.5 SFRSYM    DATA     BIT       F0
      000000FBH   SFRSYM    DATA     BYTE      MLOCK
      000000D0H   SFRSYM    DATA     BYTE      PSW
      00000097H   SFRSYM    DATA     BYTE      WDCON

      01000609H   BLOCK     CODE     ---       LVL=0
      00000007H   SYMBOL    DATA     BYTE      Port
      00000005H   SYMBOL    DATA     BYTE      PinMSK
      00000003H   SYMBOL    DATA     BYTE      PinMode
      01000609H   LINE      CODE     ---       #77
      01000609H   LINE      CODE     ---       #78
      01000609H   LINE      CODE     ---       #79
      0100061DH   LINE      CODE     ---       #80
      0100061DH   LINE      CODE     ---       #81
      0100061DH   LINE      CODE     ---       #82
      0100061DH   LINE      CODE     ---       #83
      01000621H   LINE      CODE     ---       #84
      01000621H   LINE      CODE     ---       #85
      01000627H   LINE      CODE     ---       #86
      01000627H   LINE      CODE     ---       #87
      0100062BH   LINE      CODE     ---       #88
      0100062BH   LINE      CODE     ---       #89
      01000631H   LINE      CODE     ---       #90
      01000631H   LINE      CODE     ---       #91
      01000635H   LINE      CODE     ---       #92
      01000635H   LINE      CODE     ---       #93
      0100063BH   LINE      CODE     ---       #94
      0100063BH   LINE      CODE     ---       #95
      0100063FH   LINE      CODE     ---       #96
      0100063FH   LINE      CODE     ---       #97
      01000645H   LINE      CODE     ---       #98
      01000645H   LINE      CODE     ---       #99
      0100064CH   LINE      CODE     ---       #100
      0100064CH   LINE      CODE     ---       #101
      0100064FH   LINE      CODE     ---       #102
      0100064FH   LINE      CODE     ---       #103
      0100064FH   LINE      CODE     ---       #104
LX51 LINKER/LOCATER V4.66.1.0                                                         09/07/2023  18:22:32  PAGE 80


      01000652H   LINE      CODE     ---       #105
      01000652H   LINE      CODE     ---       #106
      01000652H   LINE      CODE     ---       #107
      01000656H   LINE      CODE     ---       #108
      01000656H   LINE      CODE     ---       #109
      0100065CH   LINE      CODE     ---       #110
      0100065CH   LINE      CODE     ---       #111
      01000660H   LINE      CODE     ---       #112
      01000660H   LINE      CODE     ---       #113
      01000666H   LINE      CODE     ---       #114
      01000666H   LINE      CODE     ---       #115
      0100066AH   LINE      CODE     ---       #116
      0100066AH   LINE      CODE     ---       #117
      01000670H   LINE      CODE     ---       #118
      01000670H   LINE      CODE     ---       #119
      01000674H   LINE      CODE     ---       #120
      01000674H   LINE      CODE     ---       #121
      0100067AH   LINE      CODE     ---       #122
      0100067AH   LINE      CODE     ---       #123
      0100067EH   LINE      CODE     ---       #124
      0100067EH   LINE      CODE     ---       #125
      01000681H   LINE      CODE     ---       #126
      01000681H   LINE      CODE     ---       #127
      01000681H   LINE      CODE     ---       #128
      01000683H   LINE      CODE     ---       #129
      01000683H   LINE      CODE     ---       #130
      01000683H   LINE      CODE     ---       #131
      01000687H   LINE      CODE     ---       #132
      01000687H   LINE      CODE     ---       #133
      0100068DH   LINE      CODE     ---       #134
      0100068DH   LINE      CODE     ---       #135
      01000691H   LINE      CODE     ---       #136
      01000691H   LINE      CODE     ---       #137
      01000697H   LINE      CODE     ---       #138
      01000697H   LINE      CODE     ---       #139
      0100069BH   LINE      CODE     ---       #140
      0100069BH   LINE      CODE     ---       #141
      010006A1H   LINE      CODE     ---       #142
      010006A1H   LINE      CODE     ---       #143
      010006A5H   LINE      CODE     ---       #144
      010006A5H   LINE      CODE     ---       #145
      010006ABH   LINE      CODE     ---       #146
      010006ABH   LINE      CODE     ---       #147
      010006AFH   LINE      CODE     ---       #148
      010006AFH   LINE      CODE     ---       #149
      010006B2H   LINE      CODE     ---       #150
      010006B2H   LINE      CODE     ---       #151
      010006B2H   LINE      CODE     ---       #152
      010006B4H   LINE      CODE     ---       #153
      010006B4H   LINE      CODE     ---       #154
      010006B4H   LINE      CODE     ---       #155
      010006B8H   LINE      CODE     ---       #156
      010006B8H   LINE      CODE     ---       #157
      010006BEH   LINE      CODE     ---       #158
      010006BEH   LINE      CODE     ---       #159
      010006C2H   LINE      CODE     ---       #160
      010006C2H   LINE      CODE     ---       #161
      010006C8H   LINE      CODE     ---       #162
      010006C8H   LINE      CODE     ---       #163
      010006CCH   LINE      CODE     ---       #164
      010006CCH   LINE      CODE     ---       #165
      010006D2H   LINE      CODE     ---       #166
      010006D2H   LINE      CODE     ---       #167
      010006D6H   LINE      CODE     ---       #168
      010006D6H   LINE      CODE     ---       #169
LX51 LINKER/LOCATER V4.66.1.0                                                         09/07/2023  18:22:32  PAGE 81


      010006DCH   LINE      CODE     ---       #170
      010006DCH   LINE      CODE     ---       #171
      010006E0H   LINE      CODE     ---       #172
      010006E0H   LINE      CODE     ---       #173
      010006E6H   LINE      CODE     ---       #174
      010006E6H   LINE      CODE     ---       #175
      010006E6H   LINE      CODE     ---       #176
      010006E6H   LINE      CODE     ---       #177
      010006E6H   LINE      CODE     ---       #178
      010006E6H   LINE      CODE     ---       #179
      010006E6H   LINE      CODE     ---       #180
      ---         BLOCKEND  ---      ---       LVL=0

      010015BDH   BLOCK     CODE     ---       LVL=0
      00000007H   SYMBOL    DATA     BYTE      Port
      00000005H   SYMBOL    DATA     BYTE      PinMSK
      010015BDH   LINE      CODE     ---       #194
      010015BDH   LINE      CODE     ---       #195
      010015BDH   LINE      CODE     ---       #196
      010015CBH   LINE      CODE     ---       #197
      010015CBH   LINE      CODE     ---       #198
      010015CBH   LINE      CODE     ---       #199
      010015CEH   LINE      CODE     ---       #200
      010015CFH   LINE      CODE     ---       #201
      010015CFH   LINE      CODE     ---       #202
      010015D2H   LINE      CODE     ---       #203
      010015D3H   LINE      CODE     ---       #204
      010015D3H   LINE      CODE     ---       #205
      010015D6H   LINE      CODE     ---       #206
      010015D7H   LINE      CODE     ---       #207
      010015D7H   LINE      CODE     ---       #208
      010015DAH   LINE      CODE     ---       #209
      010015DAH   LINE      CODE     ---       #210
      010015DAH   LINE      CODE     ---       #211
      010015DAH   LINE      CODE     ---       #212
      010015DAH   LINE      CODE     ---       #213
      ---         BLOCKEND  ---      ---       LVL=0

      010013E6H   BLOCK     CODE     ---       LVL=0
      00000007H   SYMBOL    DATA     BYTE      Port
      00000005H   SYMBOL    DATA     BYTE      PinMSK
      010013E6H   LINE      CODE     ---       #226
      010013E6H   LINE      CODE     ---       #227
      010013E6H   LINE      CODE     ---       #228
      010013F4H   LINE      CODE     ---       #229
      010013F4H   LINE      CODE     ---       #230
      010013F4H   LINE      CODE     ---       #231
      010013F8H   LINE      CODE     ---       #232
      010013F9H   LINE      CODE     ---       #233
      010013F9H   LINE      CODE     ---       #234
      010013FDH   LINE      CODE     ---       #235
      010013FEH   LINE      CODE     ---       #236
      010013FEH   LINE      CODE     ---       #237
      01001402H   LINE      CODE     ---       #238
      01001403H   LINE      CODE     ---       #239
      01001403H   LINE      CODE     ---       #240
      01001407H   LINE      CODE     ---       #241
      01001407H   LINE      CODE     ---       #242
      01001407H   LINE      CODE     ---       #243
      01001407H   LINE      CODE     ---       #244
      01001407H   LINE      CODE     ---       #245
      ---         BLOCKEND  ---      ---       LVL=0

      01000E07H   BLOCK     CODE     ---       LVL=0
      00000007H   SYMBOL    DATA     BYTE      Port
LX51 LINKER/LOCATER V4.66.1.0                                                         09/07/2023  18:22:32  PAGE 82


      00000005H   SYMBOL    DATA     BYTE      PinNum
      01000E07H   BLOCK     CODE     NEAR LAB  LVL=1
      00000006H   SYMBOL    DATA     BYTE      PinIntFlag
      ---         BLOCKEND  ---      ---       LVL=1
      01000E07H   LINE      CODE     ---       #260
      01000E07H   LINE      CODE     ---       #261
      01000E07H   LINE      CODE     ---       #262
      01000E09H   LINE      CODE     ---       #263
      01000E17H   LINE      CODE     ---       #264
      01000E17H   LINE      CODE     ---       #265
      01000E17H   LINE      CODE     ---       #266
      01000E25H   LINE      CODE     ---       #267
      01000E27H   LINE      CODE     ---       #268
      01000E27H   LINE      CODE     ---       #269
      01000E35H   LINE      CODE     ---       #270
      01000E37H   LINE      CODE     ---       #271
      01000E37H   LINE      CODE     ---       #272
      01000E45H   LINE      CODE     ---       #273
      01000E47H   LINE      CODE     ---       #274
      01000E47H   LINE      CODE     ---       #275
      01000E57H   LINE      CODE     ---       #276
      01000E57H   LINE      CODE     ---       #277
      01000E57H   LINE      CODE     ---       #278
      01000E57H   LINE      CODE     ---       #279
      01000E57H   LINE      CODE     ---       #280
      01000E5EH   LINE      CODE     ---       #281
      ---         BLOCKEND  ---      ---       LVL=0

      01000E5FH   BLOCK     CODE     ---       LVL=0
      00000007H   SYMBOL    DATA     BYTE      Port
      00000005H   SYMBOL    DATA     BYTE      PinNum
      01000E5FH   LINE      CODE     ---       #294
      01000E5FH   LINE      CODE     ---       #295
      01000E5FH   LINE      CODE     ---       #296
      01000E6DH   LINE      CODE     ---       #297
      01000E6DH   LINE      CODE     ---       #298
      01000E6DH   LINE      CODE     ---       #299
      01000E7BH   LINE      CODE     ---       #300
      01000E7CH   LINE      CODE     ---       #301
      01000E7CH   LINE      CODE     ---       #302
      01000E8AH   LINE      CODE     ---       #303
      01000E8BH   LINE      CODE     ---       #304
      01000E8BH   LINE      CODE     ---       #305
      01000E99H   LINE      CODE     ---       #306
      01000E9AH   LINE      CODE     ---       #307
      01000E9AH   LINE      CODE     ---       #308
      01000EAAH   LINE      CODE     ---       #309
      01000EAAH   LINE      CODE     ---       #310
      01000EAAH   LINE      CODE     ---       #311
      01000EAAH   LINE      CODE     ---       #312
      01000EAAH   LINE      CODE     ---       #313
      ---         BLOCKEND  ---      ---       LVL=0

      ---         MODULE    ---      ---       I2C
      010000AEH   PUBLIC    CODE     ---       I2C_ClearMasterIntFlag
      01001D8BH   PUBLIC    CODE     ---       I2C_GetMasterIntFlag
      010000A6H   PUBLIC    CODE     ---       I2C_DisableInt
      0100009EH   PUBLIC    CODE     ---       I2C_EnableInt
      01001D81H   PUBLIC    CODE     ---       I2C_GetMasterIdleFlag
      01001D77H   PUBLIC    CODE     ---       I2C_GetI2CBusBusyFlag
      01001D6DH   PUBLIC    CODE     ---       I2C_GetMasterBusyFlag
      01001D63H   PUBLIC    CODE     ---       I2C_GetMasterErrorFlag
      01001D59H   PUBLIC    CODE     ---       I2C_GetBusArbitrationFlag
      01001D4FH   PUBLIC    CODE     ---       I2C_GetMasterSendAddrFlag
      01001F94H   PUBLIC    CODE     ---       I2C_DisableMasterMode
LX51 LINKER/LOCATER V4.66.1.0                                                         09/07/2023  18:22:32  PAGE 83


      01001F1DH   PUBLIC    CODE     ---       I2C_EnableMasterMode
      01001F88H   PUBLIC    CODE     ---       _I2C_ConfigCLK
      000000C8H   SFRSYM    DATA     BIT       T2I0
      000000C3H   SFRSYM    DATA     BYTE      CCH1
      00000080H   SFRSYM    DATA     BYTE      P0
      000000C8H.1 SFRSYM    DATA     BIT       T2I1
      000000C5H   SFRSYM    DATA     BYTE      CCH2
      00000090H   SFRSYM    DATA     BYTE      P1
      000000C7H   SFRSYM    DATA     BYTE      CCH3
      000000ACH   SFRSYM    DATA     BYTE      P0EXTIE
      000000A0H   SFRSYM    DATA     BYTE      P2
      000000B4H   SFRSYM    DATA     BYTE      P0EXTIF
      000000B0H   SFRSYM    DATA     BYTE      P3
      000000ADH   SFRSYM    DATA     BYTE      P1EXTIE
      000000D0H.6 SFRSYM    DATA     BIT       AC
      000000FFH   SFRSYM    DATA     BYTE      MCTRL
      000000C2H   SFRSYM    DATA     BYTE      CCL1
      000000B5H   SFRSYM    DATA     BYTE      P1EXTIF
      000000AEH   SFRSYM    DATA     BYTE      P2EXTIE
      000000C4H   SFRSYM    DATA     BYTE      CCL2
      000000B6H   SFRSYM    DATA     BYTE      P2EXTIF
      000000AFH   SFRSYM    DATA     BYTE      P3EXTIE
      000000A8H.7 SFRSYM    DATA     BIT       EA
      000000C6H   SFRSYM    DATA     BYTE      CCL3
      000000B7H   SFRSYM    DATA     BYTE      P3EXTIF
      000000AAH   SFRSYM    DATA     BYTE      EIE2
      000000B2H   SFRSYM    DATA     BYTE      EIF2
      000000C8H.3 SFRSYM    DATA     BIT       T2R0
      000000C8H.4 SFRSYM    DATA     BIT       T2R1
      00000083H   SFRSYM    DATA     BYTE      DPH0
      000000A8H   SFRSYM    DATA     BYTE      IE
      00000085H   SFRSYM    DATA     BYTE      DPH1
      000000B9H   SFRSYM    DATA     BYTE      EIP1
      000000BAH   SFRSYM    DATA     BYTE      EIP2
      00000082H   SFRSYM    DATA     BYTE      DPL0
      00000084H   SFRSYM    DATA     BYTE      DPL1
      000000C8H.6 SFRSYM    DATA     BIT       I3FR
      000000CFH   SFRSYM    DATA     BYTE      T2IE
      00000096H   SFRSYM    DATA     BYTE      TA
      000000C9H   SFRSYM    DATA     BYTE      T2IF
      000000C8H.2 SFRSYM    DATA     BIT       T2CM
      000000DFH   SFRSYM    DATA     BYTE      ADCON0
      000000DEH   SFRSYM    DATA     BYTE      ADCON1
      000000E9H   SFRSYM    DATA     BYTE      ADCON2
      000000B8H   SFRSYM    DATA     BYTE      IP
      000000CEH   SFRSYM    DATA     BYTE      CCEN
      000000D0H.7 SFRSYM    DATA     BIT       CY
      000000D2H   SFRSYM    DATA     BYTE      T34MOD
      00000093H   SFRSYM    DATA     BYTE      DPX0
      00000095H   SFRSYM    DATA     BYTE      DPX1
      000000F4H   SFRSYM    DATA     BYTE      I2CMSA
      000000F5H   SFRSYM    DATA     BYTE      I2CMCR
      00000081H   SFRSYM    DATA     BYTE      SP
      000000D0H.2 SFRSYM    DATA     BIT       OV
      000000F2H   SFRSYM    DATA     BYTE      I2CSCR
      000000C8H.7 SFRSYM    DATA     BIT       T2PS
      000000D1H   SFRSYM    DATA     BYTE      ADCMPC
      000000CBH   SFRSYM    DATA     BYTE      RLDH
      000000D5H   SFRSYM    DATA     BYTE      ADCMPH
      000000CAH   SFRSYM    DATA     BYTE      RLDL
      00000080H   SFRSYM    DATA     BIT       P00
      00000090H   SFRSYM    DATA     BIT       P10
      00000080H.1 SFRSYM    DATA     BIT       P01
      000000F7H   SFRSYM    DATA     BYTE      I2CMTP
      00000099H   SFRSYM    DATA     BYTE      SBUF
LX51 LINKER/LOCATER V4.66.1.0                                                         09/07/2023  18:22:32  PAGE 84


      00000087H   SFRSYM    DATA     BYTE      PCON
      000000A0H   SFRSYM    DATA     BIT       P20
      00000090H.1 SFRSYM    DATA     BIT       P11
      00000080H.2 SFRSYM    DATA     BIT       P02
      000000F5H   SFRSYM    DATA     BYTE      I2CMSR
      000000B0H   SFRSYM    DATA     BIT       P30
      000000A0H.1 SFRSYM    DATA     BIT       P21
      00000090H.2 SFRSYM    DATA     BIT       P12
      00000080H.3 SFRSYM    DATA     BIT       P03
      000000D4H   SFRSYM    DATA     BYTE      ADCMPL
      000000B0H.1 SFRSYM    DATA     BIT       P31
      000000A0H.2 SFRSYM    DATA     BIT       P22
      00000090H.3 SFRSYM    DATA     BIT       P13
      00000080H.4 SFRSYM    DATA     BIT       P04
      000000B0H.2 SFRSYM    DATA     BIT       P32
      000000A0H.3 SFRSYM    DATA     BIT       P23
      00000090H.4 SFRSYM    DATA     BIT       P14
      00000080H.5 SFRSYM    DATA     BIT       P05
      00000089H   SFRSYM    DATA     BYTE      TMOD
      00000088H   SFRSYM    DATA     BYTE      TCON
      000000B0H.3 SFRSYM    DATA     BIT       P33
      000000A0H.4 SFRSYM    DATA     BIT       P24
      00000090H.5 SFRSYM    DATA     BIT       P15
      00000080H.6 SFRSYM    DATA     BIT       P06
      000000B0H.4 SFRSYM    DATA     BIT       P34
      000000A0H.5 SFRSYM    DATA     BIT       P25
      00000090H.6 SFRSYM    DATA     BIT       P16
      00000080H.7 SFRSYM    DATA     BIT       P07
      000000B0H.5 SFRSYM    DATA     BIT       P35
      000000A0H.6 SFRSYM    DATA     BIT       P26
      00000090H.7 SFRSYM    DATA     BIT       P17
      000000F2H   SFRSYM    DATA     BYTE      I2CSSR
      000000B0H.6 SFRSYM    DATA     BIT       P36
      000000A0H.7 SFRSYM    DATA     BIT       P27
      000000ECH   SFRSYM    DATA     BYTE      SPCR
      000000DDH   SFRSYM    DATA     BYTE      ADRESH
      000000B0H.7 SFRSYM    DATA     BIT       P37
      000000EEH   SFRSYM    DATA     BYTE      SPDR
      000000EFH   SFRSYM    DATA     BYTE      SSCR
      000000D3H   SFRSYM    DATA     BYTE      ADDLYL
      000000DCH   SFRSYM    DATA     BYTE      ADRESL
      00000088H.1 SFRSYM    DATA     BIT       IE0
      00000088H.3 SFRSYM    DATA     BIT       IE1
      0000008FH   SFRSYM    DATA     BYTE      CLKDIV
      000000F0H   SFRSYM    DATA     BYTE      B
      00000091H   SFRSYM    DATA     BYTE      FUNCCR
      0000009AH   SFRSYM    DATA     BYTE      P0TRIS
      000000A1H   SFRSYM    DATA     BYTE      P1TRIS
      000000A2H   SFRSYM    DATA     BYTE      P2TRIS
      000000E0H   SFRSYM    DATA     BYTE      ACC
      000000A3H   SFRSYM    DATA     BYTE      P3TRIS
      000000A8H.4 SFRSYM    DATA     BIT       ES0
      000000A8H.6 SFRSYM    DATA     BIT       ES1
      000000A8H.1 SFRSYM    DATA     BIT       ET0
      000000EDH   SFRSYM    DATA     BYTE      SPSR
      000000A8H.3 SFRSYM    DATA     BIT       ET1
      00000088H.5 SFRSYM    DATA     BIT       TF0
      000000A8H.5 SFRSYM    DATA     BIT       ET2
      00000098H   SFRSYM    DATA     BIT       RI0
      00000088H.7 SFRSYM    DATA     BIT       TF1
      0000008CH   SFRSYM    DATA     BYTE      TH0
      000000A8H   SFRSYM    DATA     BIT       EX0
      00000098H.1 SFRSYM    DATA     BIT       TI0
      00000088H   SFRSYM    DATA     BIT       IT0
      0000008DH   SFRSYM    DATA     BYTE      TH1
LX51 LINKER/LOCATER V4.66.1.0                                                         09/07/2023  18:22:32  PAGE 85


      000000A8H.2 SFRSYM    DATA     BIT       EX1
      00000088H.2 SFRSYM    DATA     BIT       IT1
      000000CDH   SFRSYM    DATA     BYTE      TH2
      000000D0H   SFRSYM    DATA     BIT       P
      000000DBH   SFRSYM    DATA     BYTE      TH3
      000000E3H   SFRSYM    DATA     BYTE      TH4
      0000008AH   SFRSYM    DATA     BYTE      TL0
      0000008BH   SFRSYM    DATA     BYTE      TL1
      00000098H.2 SFRSYM    DATA     BIT       U0RB8
      000000CCH   SFRSYM    DATA     BYTE      TL2
      000000B8H.4 SFRSYM    DATA     BIT       PS0
      000000DAH   SFRSYM    DATA     BYTE      TL3
      000000BFH   SFRSYM    DATA     BYTE      BUZCON
      000000B8H.6 SFRSYM    DATA     BIT       PS1
      000000B8H.1 SFRSYM    DATA     BIT       PT0
      00000098H.3 SFRSYM    DATA     BIT       U0TB8
      000000E2H   SFRSYM    DATA     BYTE      TL4
      000000D0H.3 SFRSYM    DATA     BIT       RS0
      000000B8H.3 SFRSYM    DATA     BIT       PT1
      000000D0H.4 SFRSYM    DATA     BIT       RS1
      000000B8H.5 SFRSYM    DATA     BIT       PT2
      00000098H.7 SFRSYM    DATA     BIT       U0SM0
      00000088H.4 SFRSYM    DATA     BIT       TR0
      000000BEH   SFRSYM    DATA     BYTE      BUZDIV
      00000098H.6 SFRSYM    DATA     BIT       U0SM1
      00000088H.6 SFRSYM    DATA     BIT       TR1
      000000B8H   SFRSYM    DATA     BIT       PX0
      00000098H.5 SFRSYM    DATA     BIT       U0SM2
      000000B8H.2 SFRSYM    DATA     BIT       PX1
      000000BDH   SFRSYM    DATA     BYTE      WUTCRH
      00000099H   SFRSYM    DATA     BYTE      SBUF0
      000000EBH   SFRSYM    DATA     BYTE      SBUF1
      000000BCH   SFRSYM    DATA     BYTE      WUTCRL
      00000098H   SFRSYM    DATA     BYTE      SCON0
      000000EAH   SFRSYM    DATA     BYTE      SCON1
      000000C8H   SFRSYM    DATA     BYTE      T2CON
      00000086H   SFRSYM    DATA     BYTE      DPS
      000000FEH   SFRSYM    DATA     BYTE      MDATA
      000000F6H   SFRSYM    DATA     BYTE      I2CMBUF
      000000F1H   SFRSYM    DATA     BYTE      I2CSADR
      00000098H.4 SFRSYM    DATA     BIT       U0REN
      000000C8H.5 SFRSYM    DATA     BIT       CAPES
      000000FDH   SFRSYM    DATA     BYTE      MADRH
      0000008EH   SFRSYM    DATA     BYTE      CKCON
      000000F3H   SFRSYM    DATA     BYTE      I2CSBUF
      000000FCH   SFRSYM    DATA     BYTE      MADRL
      000000D0H.5 SFRSYM    DATA     BIT       F0
      000000FBH   SFRSYM    DATA     BYTE      MLOCK
      000000D0H   SFRSYM    DATA     BYTE      PSW
      00000097H   SFRSYM    DATA     BYTE      WDCON

      01001F88H   BLOCK     CODE     ---       LVL=0
      00000007H   SYMBOL    DATA     BYTE      I2CMtp
      01001F88H   LINE      CODE     ---       #68
      01001F88H   LINE      CODE     ---       #69
      01001F88H   LINE      CODE     ---       #70
      01001F8AH   LINE      CODE     ---       #71
      ---         BLOCKEND  ---      ---       LVL=0

      01001F1DH   BLOCK     CODE     ---       LVL=0
      01001F1DH   LINE      CODE     ---       #79
      01001F1DH   LINE      CODE     ---       #80
      01001F1DH   LINE      CODE     ---       #81
      01001F20H   LINE      CODE     ---       #82
      01001F22H   LINE      CODE     ---       #83
LX51 LINKER/LOCATER V4.66.1.0                                                         09/07/2023  18:22:32  PAGE 86


      ---         BLOCKEND  ---      ---       LVL=0

      01001F94H   BLOCK     CODE     ---       LVL=0
      01001F94H   LINE      CODE     ---       #91
      01001F94H   LINE      CODE     ---       #92
      01001F94H   LINE      CODE     ---       #94
      ---         BLOCKEND  ---      ---       LVL=0

      01001D4FH   BLOCK     CODE     ---       LVL=0
      01001D4FH   LINE      CODE     ---       #103
      01001D4FH   LINE      CODE     ---       #104
      01001D4FH   LINE      CODE     ---       #105
      01001D58H   LINE      CODE     ---       #106
      ---         BLOCKEND  ---      ---       LVL=0

      01001D59H   BLOCK     CODE     ---       LVL=0
      01001D59H   LINE      CODE     ---       #115
      01001D59H   LINE      CODE     ---       #116
      01001D59H   LINE      CODE     ---       #117
      01001D62H   LINE      CODE     ---       #118
      ---         BLOCKEND  ---      ---       LVL=0

      01001D63H   BLOCK     CODE     ---       LVL=0
      01001D63H   LINE      CODE     ---       #127
      01001D63H   LINE      CODE     ---       #128
      01001D63H   LINE      CODE     ---       #129
      01001D6CH   LINE      CODE     ---       #130
      ---         BLOCKEND  ---      ---       LVL=0

      01001D6DH   BLOCK     CODE     ---       LVL=0
      01001D6DH   LINE      CODE     ---       #138
      01001D6DH   LINE      CODE     ---       #139
      01001D6DH   LINE      CODE     ---       #140
      01001D76H   LINE      CODE     ---       #141
      ---         BLOCKEND  ---      ---       LVL=0

      01001D77H   BLOCK     CODE     ---       LVL=0
      01001D77H   LINE      CODE     ---       #149
      01001D77H   LINE      CODE     ---       #150
      01001D77H   LINE      CODE     ---       #151
      01001D80H   LINE      CODE     ---       #152
      ---         BLOCKEND  ---      ---       LVL=0

      01001D81H   BLOCK     CODE     ---       LVL=0
      01001D81H   LINE      CODE     ---       #160
      01001D81H   LINE      CODE     ---       #161
      01001D81H   LINE      CODE     ---       #162
      01001D8AH   LINE      CODE     ---       #163
      ---         BLOCKEND  ---      ---       LVL=0

      0100009EH   BLOCK     CODE     ---       LVL=0
      0100009EH   LINE      CODE     ---       #172
      0100009EH   LINE      CODE     ---       #173
      0100009EH   LINE      CODE     ---       #174
      010000A1H   LINE      CODE     ---       #175
      ---         BLOCKEND  ---      ---       LVL=0

      010000A6H   BLOCK     CODE     ---       LVL=0
      010000A6H   LINE      CODE     ---       #183
      010000A6H   LINE      CODE     ---       #184
      010000A6H   LINE      CODE     ---       #185
      010000A9H   LINE      CODE     ---       #186
      ---         BLOCKEND  ---      ---       LVL=0

      01001D8BH   BLOCK     CODE     ---       LVL=0
LX51 LINKER/LOCATER V4.66.1.0                                                         09/07/2023  18:22:32  PAGE 87


      01001D8BH   LINE      CODE     ---       #194
      01001D8BH   LINE      CODE     ---       #195
      01001D8BH   LINE      CODE     ---       #196
      01001D94H   LINE      CODE     ---       #197
      ---         BLOCKEND  ---      ---       LVL=0

      010000AEH   BLOCK     CODE     ---       LVL=0
      010000AEH   LINE      CODE     ---       #205
      010000AEH   LINE      CODE     ---       #206
      010000AEH   LINE      CODE     ---       #207
      010000B1H   LINE      CODE     ---       #208
      ---         BLOCKEND  ---      ---       LVL=0

      ---         MODULE    ---      ---       LSE
      01001C4DH   PUBLIC    CODE     ---       LSE_GetLSEState
      01001E78H   PUBLIC    CODE     ---       LSE_ClearLSEIntFlag
      01001C41H   PUBLIC    CODE     ---       LSE_GetLSEIntFlag
      01001E70H   PUBLIC    CODE     ---       LSE_DisableLSEInt
      01001E68H   PUBLIC    CODE     ---       LSE_EnableLSEInt
      01001E60H   PUBLIC    CODE     ---       LSE_DisableLSEWakeup
      01001E58H   PUBLIC    CODE     ---       LSE_EnableLSEWakeup
      01001B7DH   PUBLIC    CODE     ---       _LSE_ConfigLSE
      01001E50H   PUBLIC    CODE     ---       LSE_Stop
      01001E48H   PUBLIC    CODE     ---       LSE_Start
      01001E40H   PUBLIC    CODE     ---       LSE_DisableLSE
      01001E38H   PUBLIC    CODE     ---       LSE_EnableLSE
      000000C8H   SFRSYM    DATA     BIT       T2I0
      000000C3H   SFRSYM    DATA     BYTE      CCH1
      00000080H   SFRSYM    DATA     BYTE      P0
      000000C8H.1 SFRSYM    DATA     BIT       T2I1
      000000C5H   SFRSYM    DATA     BYTE      CCH2
      00000090H   SFRSYM    DATA     BYTE      P1
      000000C7H   SFRSYM    DATA     BYTE      CCH3
      000000ACH   SFRSYM    DATA     BYTE      P0EXTIE
      000000A0H   SFRSYM    DATA     BYTE      P2
      000000B4H   SFRSYM    DATA     BYTE      P0EXTIF
      000000B0H   SFRSYM    DATA     BYTE      P3
      000000ADH   SFRSYM    DATA     BYTE      P1EXTIE
      000000D0H.6 SFRSYM    DATA     BIT       AC
      000000FFH   SFRSYM    DATA     BYTE      MCTRL
      000000C2H   SFRSYM    DATA     BYTE      CCL1
      000000B5H   SFRSYM    DATA     BYTE      P1EXTIF
      000000AEH   SFRSYM    DATA     BYTE      P2EXTIE
      000000C4H   SFRSYM    DATA     BYTE      CCL2
      000000B6H   SFRSYM    DATA     BYTE      P2EXTIF
      000000AFH   SFRSYM    DATA     BYTE      P3EXTIE
      000000A8H.7 SFRSYM    DATA     BIT       EA
      000000C6H   SFRSYM    DATA     BYTE      CCL3
      000000B7H   SFRSYM    DATA     BYTE      P3EXTIF
      000000AAH   SFRSYM    DATA     BYTE      EIE2
      000000B2H   SFRSYM    DATA     BYTE      EIF2
      000000C8H.3 SFRSYM    DATA     BIT       T2R0
      000000C8H.4 SFRSYM    DATA     BIT       T2R1
      00000083H   SFRSYM    DATA     BYTE      DPH0
      000000A8H   SFRSYM    DATA     BYTE      IE
      00000085H   SFRSYM    DATA     BYTE      DPH1
      000000B9H   SFRSYM    DATA     BYTE      EIP1
      000000BAH   SFRSYM    DATA     BYTE      EIP2
      00000082H   SFRSYM    DATA     BYTE      DPL0
      00000084H   SFRSYM    DATA     BYTE      DPL1
      000000C8H.6 SFRSYM    DATA     BIT       I3FR
      000000CFH   SFRSYM    DATA     BYTE      T2IE
      00000096H   SFRSYM    DATA     BYTE      TA
      000000C9H   SFRSYM    DATA     BYTE      T2IF
      000000C8H.2 SFRSYM    DATA     BIT       T2CM
LX51 LINKER/LOCATER V4.66.1.0                                                         09/07/2023  18:22:32  PAGE 88


      000000DFH   SFRSYM    DATA     BYTE      ADCON0
      000000DEH   SFRSYM    DATA     BYTE      ADCON1
      000000E9H   SFRSYM    DATA     BYTE      ADCON2
      000000B8H   SFRSYM    DATA     BYTE      IP
      000000CEH   SFRSYM    DATA     BYTE      CCEN
      000000D0H.7 SFRSYM    DATA     BIT       CY
      000000D2H   SFRSYM    DATA     BYTE      T34MOD
      00000093H   SFRSYM    DATA     BYTE      DPX0
      00000095H   SFRSYM    DATA     BYTE      DPX1
      000000F4H   SFRSYM    DATA     BYTE      I2CMSA
      000000F5H   SFRSYM    DATA     BYTE      I2CMCR
      00000081H   SFRSYM    DATA     BYTE      SP
      000000D0H.2 SFRSYM    DATA     BIT       OV
      000000F2H   SFRSYM    DATA     BYTE      I2CSCR
      000000C8H.7 SFRSYM    DATA     BIT       T2PS
      000000D1H   SFRSYM    DATA     BYTE      ADCMPC
      000000CBH   SFRSYM    DATA     BYTE      RLDH
      000000D5H   SFRSYM    DATA     BYTE      ADCMPH
      000000CAH   SFRSYM    DATA     BYTE      RLDL
      00000080H   SFRSYM    DATA     BIT       P00
      00000090H   SFRSYM    DATA     BIT       P10
      00000080H.1 SFRSYM    DATA     BIT       P01
      000000F7H   SFRSYM    DATA     BYTE      I2CMTP
      00000099H   SFRSYM    DATA     BYTE      SBUF
      00000087H   SFRSYM    DATA     BYTE      PCON
      000000A0H   SFRSYM    DATA     BIT       P20
      00000090H.1 SFRSYM    DATA     BIT       P11
      00000080H.2 SFRSYM    DATA     BIT       P02
      000000F5H   SFRSYM    DATA     BYTE      I2CMSR
      000000B0H   SFRSYM    DATA     BIT       P30
      000000A0H.1 SFRSYM    DATA     BIT       P21
      00000090H.2 SFRSYM    DATA     BIT       P12
      00000080H.3 SFRSYM    DATA     BIT       P03
      000000D4H   SFRSYM    DATA     BYTE      ADCMPL
      000000B0H.1 SFRSYM    DATA     BIT       P31
      000000A0H.2 SFRSYM    DATA     BIT       P22
      00000090H.3 SFRSYM    DATA     BIT       P13
      00000080H.4 SFRSYM    DATA     BIT       P04
      000000B0H.2 SFRSYM    DATA     BIT       P32
      000000A0H.3 SFRSYM    DATA     BIT       P23
      00000090H.4 SFRSYM    DATA     BIT       P14
      00000080H.5 SFRSYM    DATA     BIT       P05
      00000089H   SFRSYM    DATA     BYTE      TMOD
      00000088H   SFRSYM    DATA     BYTE      TCON
      000000B0H.3 SFRSYM    DATA     BIT       P33
      000000A0H.4 SFRSYM    DATA     BIT       P24
      00000090H.5 SFRSYM    DATA     BIT       P15
      00000080H.6 SFRSYM    DATA     BIT       P06
      000000B0H.4 SFRSYM    DATA     BIT       P34
      000000A0H.5 SFRSYM    DATA     BIT       P25
      00000090H.6 SFRSYM    DATA     BIT       P16
      00000080H.7 SFRSYM    DATA     BIT       P07
      000000B0H.5 SFRSYM    DATA     BIT       P35
      000000A0H.6 SFRSYM    DATA     BIT       P26
      00000090H.7 SFRSYM    DATA     BIT       P17
      000000F2H   SFRSYM    DATA     BYTE      I2CSSR
      000000B0H.6 SFRSYM    DATA     BIT       P36
      000000A0H.7 SFRSYM    DATA     BIT       P27
      000000ECH   SFRSYM    DATA     BYTE      SPCR
      000000DDH   SFRSYM    DATA     BYTE      ADRESH
      000000B0H.7 SFRSYM    DATA     BIT       P37
      000000EEH   SFRSYM    DATA     BYTE      SPDR
      000000EFH   SFRSYM    DATA     BYTE      SSCR
      000000D3H   SFRSYM    DATA     BYTE      ADDLYL
      000000DCH   SFRSYM    DATA     BYTE      ADRESL
LX51 LINKER/LOCATER V4.66.1.0                                                         09/07/2023  18:22:32  PAGE 89


      00000088H.1 SFRSYM    DATA     BIT       IE0
      00000088H.3 SFRSYM    DATA     BIT       IE1
      0000008FH   SFRSYM    DATA     BYTE      CLKDIV
      000000F0H   SFRSYM    DATA     BYTE      B
      00000091H   SFRSYM    DATA     BYTE      FUNCCR
      0000009AH   SFRSYM    DATA     BYTE      P0TRIS
      000000A1H   SFRSYM    DATA     BYTE      P1TRIS
      000000A2H   SFRSYM    DATA     BYTE      P2TRIS
      000000E0H   SFRSYM    DATA     BYTE      ACC
      000000A3H   SFRSYM    DATA     BYTE      P3TRIS
      000000A8H.4 SFRSYM    DATA     BIT       ES0
      000000A8H.6 SFRSYM    DATA     BIT       ES1
      000000A8H.1 SFRSYM    DATA     BIT       ET0
      000000EDH   SFRSYM    DATA     BYTE      SPSR
      000000A8H.3 SFRSYM    DATA     BIT       ET1
      00000088H.5 SFRSYM    DATA     BIT       TF0
      000000A8H.5 SFRSYM    DATA     BIT       ET2
      00000098H   SFRSYM    DATA     BIT       RI0
      00000088H.7 SFRSYM    DATA     BIT       TF1
      0000008CH   SFRSYM    DATA     BYTE      TH0
      000000A8H   SFRSYM    DATA     BIT       EX0
      00000098H.1 SFRSYM    DATA     BIT       TI0
      00000088H   SFRSYM    DATA     BIT       IT0
      0000008DH   SFRSYM    DATA     BYTE      TH1
      000000A8H.2 SFRSYM    DATA     BIT       EX1
      00000088H.2 SFRSYM    DATA     BIT       IT1
      000000CDH   SFRSYM    DATA     BYTE      TH2
      000000D0H   SFRSYM    DATA     BIT       P
      000000DBH   SFRSYM    DATA     BYTE      TH3
      000000E3H   SFRSYM    DATA     BYTE      TH4
      0000008AH   SFRSYM    DATA     BYTE      TL0
      0000008BH   SFRSYM    DATA     BYTE      TL1
      00000098H.2 SFRSYM    DATA     BIT       U0RB8
      000000CCH   SFRSYM    DATA     BYTE      TL2
      000000B8H.4 SFRSYM    DATA     BIT       PS0
      000000DAH   SFRSYM    DATA     BYTE      TL3
      000000BFH   SFRSYM    DATA     BYTE      BUZCON
      000000B8H.6 SFRSYM    DATA     BIT       PS1
      000000B8H.1 SFRSYM    DATA     BIT       PT0
      00000098H.3 SFRSYM    DATA     BIT       U0TB8
      000000E2H   SFRSYM    DATA     BYTE      TL4
      000000D0H.3 SFRSYM    DATA     BIT       RS0
      000000B8H.3 SFRSYM    DATA     BIT       PT1
      000000D0H.4 SFRSYM    DATA     BIT       RS1
      000000B8H.5 SFRSYM    DATA     BIT       PT2
      00000098H.7 SFRSYM    DATA     BIT       U0SM0
      00000088H.4 SFRSYM    DATA     BIT       TR0
      000000BEH   SFRSYM    DATA     BYTE      BUZDIV
      00000098H.6 SFRSYM    DATA     BIT       U0SM1
      00000088H.6 SFRSYM    DATA     BIT       TR1
      000000B8H   SFRSYM    DATA     BIT       PX0
      00000098H.5 SFRSYM    DATA     BIT       U0SM2
      000000B8H.2 SFRSYM    DATA     BIT       PX1
      000000BDH   SFRSYM    DATA     BYTE      WUTCRH
      00000099H   SFRSYM    DATA     BYTE      SBUF0
      000000EBH   SFRSYM    DATA     BYTE      SBUF1
      000000BCH   SFRSYM    DATA     BYTE      WUTCRL
      00000098H   SFRSYM    DATA     BYTE      SCON0
      000000EAH   SFRSYM    DATA     BYTE      SCON1
      000000C8H   SFRSYM    DATA     BYTE      T2CON
      00000086H   SFRSYM    DATA     BYTE      DPS
      000000FEH   SFRSYM    DATA     BYTE      MDATA
      000000F6H   SFRSYM    DATA     BYTE      I2CMBUF
      000000F1H   SFRSYM    DATA     BYTE      I2CSADR
      00000098H.4 SFRSYM    DATA     BIT       U0REN
LX51 LINKER/LOCATER V4.66.1.0                                                         09/07/2023  18:22:32  PAGE 90


      000000C8H.5 SFRSYM    DATA     BIT       CAPES
      000000FDH   SFRSYM    DATA     BYTE      MADRH
      0000008EH   SFRSYM    DATA     BYTE      CKCON
      000000F3H   SFRSYM    DATA     BYTE      I2CSBUF
      000000FCH   SFRSYM    DATA     BYTE      MADRL
      000000D0H.5 SFRSYM    DATA     BIT       F0
      000000FBH   SFRSYM    DATA     BYTE      MLOCK
      000000D0H   SFRSYM    DATA     BYTE      PSW
      00000097H   SFRSYM    DATA     BYTE      WDCON

      01001E38H   BLOCK     CODE     ---       LVL=0
      01001E38H   LINE      CODE     ---       #69
      01001E38H   LINE      CODE     ---       #70
      01001E38H   LINE      CODE     ---       #71
      01001E3FH   LINE      CODE     ---       #72
      ---         BLOCKEND  ---      ---       LVL=0

      01001E40H   BLOCK     CODE     ---       LVL=0
      01001E40H   LINE      CODE     ---       #80
      01001E40H   LINE      CODE     ---       #81
      01001E40H   LINE      CODE     ---       #82
      01001E47H   LINE      CODE     ---       #83
      ---         BLOCKEND  ---      ---       LVL=0

      01001E48H   BLOCK     CODE     ---       LVL=0
      01001E48H   LINE      CODE     ---       #92
      01001E48H   LINE      CODE     ---       #93
      01001E48H   LINE      CODE     ---       #94
      01001E4FH   LINE      CODE     ---       #95
      ---         BLOCKEND  ---      ---       LVL=0

      01001E50H   BLOCK     CODE     ---       LVL=0
      01001E50H   LINE      CODE     ---       #103
      01001E50H   LINE      CODE     ---       #104
      01001E50H   LINE      CODE     ---       #105
      01001E57H   LINE      CODE     ---       #106
      ---         BLOCKEND  ---      ---       LVL=0

      01001B7DH   BLOCK     CODE     ---       LVL=0
      00000004H   SYMBOL    DATA     WORD      Time
      01001B7DH   LINE      CODE     ---       #115
      01001B7FH   LINE      CODE     ---       #116
      01001B7FH   LINE      CODE     ---       #117
      01001B84H   LINE      CODE     ---       #118
      01001B89H   LINE      CODE     ---       #119
      ---         BLOCKEND  ---      ---       LVL=0

      01001E58H   BLOCK     CODE     ---       LVL=0
      01001E58H   LINE      CODE     ---       #128
      01001E58H   LINE      CODE     ---       #129
      01001E58H   LINE      CODE     ---       #130
      01001E5FH   LINE      CODE     ---       #131
      ---         BLOCKEND  ---      ---       LVL=0

      01001E60H   BLOCK     CODE     ---       LVL=0
      01001E60H   LINE      CODE     ---       #140
      01001E60H   LINE      CODE     ---       #141
      01001E60H   LINE      CODE     ---       #142
      01001E67H   LINE      CODE     ---       #143
      ---         BLOCKEND  ---      ---       LVL=0

      01001E68H   BLOCK     CODE     ---       LVL=0
      01001E68H   LINE      CODE     ---       #152
      01001E68H   LINE      CODE     ---       #153
      01001E68H   LINE      CODE     ---       #154
LX51 LINKER/LOCATER V4.66.1.0                                                         09/07/2023  18:22:32  PAGE 91


      01001E6FH   LINE      CODE     ---       #155
      ---         BLOCKEND  ---      ---       LVL=0

      01001E70H   BLOCK     CODE     ---       LVL=0
      01001E70H   LINE      CODE     ---       #163
      01001E70H   LINE      CODE     ---       #164
      01001E70H   LINE      CODE     ---       #165
      01001E77H   LINE      CODE     ---       #166
      ---         BLOCKEND  ---      ---       LVL=0

      01001C41H   BLOCK     CODE     ---       LVL=0
      01001C41H   LINE      CODE     ---       #174
      01001C41H   LINE      CODE     ---       #175
      01001C41H   LINE      CODE     ---       #176
      01001C4CH   LINE      CODE     ---       #177
      ---         BLOCKEND  ---      ---       LVL=0

      01001E78H   BLOCK     CODE     ---       LVL=0
      01001E78H   LINE      CODE     ---       #185
      01001E78H   LINE      CODE     ---       #186
      01001E78H   LINE      CODE     ---       #187
      01001E7FH   LINE      CODE     ---       #188
      ---         BLOCKEND  ---      ---       LVL=0

      01001C4DH   BLOCK     CODE     ---       LVL=0
      01001C4DH   LINE      CODE     ---       #196
      01001C4DH   LINE      CODE     ---       #197
      01001C4DH   LINE      CODE     ---       #198
      01001C58H   LINE      CODE     ---       #199
      ---         BLOCKEND  ---      ---       LVL=0

      ---         MODULE    ---      ---       OPA
      010006E7H   PUBLIC    CODE     ---       _OPA_GetOffsetAdjValue
      01001191H   PUBLIC    CODE     ---       _OPA_ConfigOffsetAdj
      010013A0H   PUBLIC    CODE     ---       _OPA_GetResult
      01001942H   PUBLIC    CODE     ---       _OPA_Stop
      0100192DH   PUBLIC    CODE     ---       _OPA_Start
      01001918H   PUBLIC    CODE     ---       _OPA_DisableOutput
      01001903H   PUBLIC    CODE     ---       _OPA_EnableOutput
      0100129AH   PUBLIC    CODE     ---       _OPA_ConfigNegative
      01001429H   PUBLIC    CODE     ---       _OPA_ConfigPositive
      01001271H   PUBLIC    CODE     ---       _OPA_SetRunMode
      000000C8H   SFRSYM    DATA     BIT       T2I0
      000000C3H   SFRSYM    DATA     BYTE      CCH1
      00000080H   SFRSYM    DATA     BYTE      P0
      000000C8H.1 SFRSYM    DATA     BIT       T2I1
      000000C5H   SFRSYM    DATA     BYTE      CCH2
      00000090H   SFRSYM    DATA     BYTE      P1
      000000C7H   SFRSYM    DATA     BYTE      CCH3
      000000ACH   SFRSYM    DATA     BYTE      P0EXTIE
      000000A0H   SFRSYM    DATA     BYTE      P2
      000000B4H   SFRSYM    DATA     BYTE      P0EXTIF
      000000B0H   SFRSYM    DATA     BYTE      P3
      000000ADH   SFRSYM    DATA     BYTE      P1EXTIE
      000000D0H.6 SFRSYM    DATA     BIT       AC
      000000FFH   SFRSYM    DATA     BYTE      MCTRL
      000000C2H   SFRSYM    DATA     BYTE      CCL1
      000000B5H   SFRSYM    DATA     BYTE      P1EXTIF
      000000AEH   SFRSYM    DATA     BYTE      P2EXTIE
      000000C4H   SFRSYM    DATA     BYTE      CCL2
      000000B6H   SFRSYM    DATA     BYTE      P2EXTIF
      000000AFH   SFRSYM    DATA     BYTE      P3EXTIE
      000000A8H.7 SFRSYM    DATA     BIT       EA
      000000C6H   SFRSYM    DATA     BYTE      CCL3
      000000B7H   SFRSYM    DATA     BYTE      P3EXTIF
LX51 LINKER/LOCATER V4.66.1.0                                                         09/07/2023  18:22:32  PAGE 92


      000000AAH   SFRSYM    DATA     BYTE      EIE2
      000000B2H   SFRSYM    DATA     BYTE      EIF2
      000000C8H.3 SFRSYM    DATA     BIT       T2R0
      000000C8H.4 SFRSYM    DATA     BIT       T2R1
      00000083H   SFRSYM    DATA     BYTE      DPH0
      000000A8H   SFRSYM    DATA     BYTE      IE
      00000085H   SFRSYM    DATA     BYTE      DPH1
      000000B9H   SFRSYM    DATA     BYTE      EIP1
      000000BAH   SFRSYM    DATA     BYTE      EIP2
      00000082H   SFRSYM    DATA     BYTE      DPL0
      00000084H   SFRSYM    DATA     BYTE      DPL1
      000000C8H.6 SFRSYM    DATA     BIT       I3FR
      000000CFH   SFRSYM    DATA     BYTE      T2IE
      00000096H   SFRSYM    DATA     BYTE      TA
      000000C9H   SFRSYM    DATA     BYTE      T2IF
      000000C8H.2 SFRSYM    DATA     BIT       T2CM
      000000DFH   SFRSYM    DATA     BYTE      ADCON0
      000000DEH   SFRSYM    DATA     BYTE      ADCON1
      000000E9H   SFRSYM    DATA     BYTE      ADCON2
      000000B8H   SFRSYM    DATA     BYTE      IP
      000000CEH   SFRSYM    DATA     BYTE      CCEN
      000000D0H.7 SFRSYM    DATA     BIT       CY
      000000D2H   SFRSYM    DATA     BYTE      T34MOD
      00000093H   SFRSYM    DATA     BYTE      DPX0
      00000095H   SFRSYM    DATA     BYTE      DPX1
      000000F4H   SFRSYM    DATA     BYTE      I2CMSA
      000000F5H   SFRSYM    DATA     BYTE      I2CMCR
      00000081H   SFRSYM    DATA     BYTE      SP
      000000D0H.2 SFRSYM    DATA     BIT       OV
      000000F2H   SFRSYM    DATA     BYTE      I2CSCR
      000000C8H.7 SFRSYM    DATA     BIT       T2PS
      000000D1H   SFRSYM    DATA     BYTE      ADCMPC
      000000CBH   SFRSYM    DATA     BYTE      RLDH
      000000D5H   SFRSYM    DATA     BYTE      ADCMPH
      000000CAH   SFRSYM    DATA     BYTE      RLDL
      00000080H   SFRSYM    DATA     BIT       P00
      00000090H   SFRSYM    DATA     BIT       P10
      00000080H.1 SFRSYM    DATA     BIT       P01
      000000F7H   SFRSYM    DATA     BYTE      I2CMTP
      00000099H   SFRSYM    DATA     BYTE      SBUF
      00000087H   SFRSYM    DATA     BYTE      PCON
      000000A0H   SFRSYM    DATA     BIT       P20
      00000090H.1 SFRSYM    DATA     BIT       P11
      00000080H.2 SFRSYM    DATA     BIT       P02
      000000F5H   SFRSYM    DATA     BYTE      I2CMSR
      000000B0H   SFRSYM    DATA     BIT       P30
      000000A0H.1 SFRSYM    DATA     BIT       P21
      00000090H.2 SFRSYM    DATA     BIT       P12
      00000080H.3 SFRSYM    DATA     BIT       P03
      000000D4H   SFRSYM    DATA     BYTE      ADCMPL
      000000B0H.1 SFRSYM    DATA     BIT       P31
      000000A0H.2 SFRSYM    DATA     BIT       P22
      00000090H.3 SFRSYM    DATA     BIT       P13
      00000080H.4 SFRSYM    DATA     BIT       P04
      000000B0H.2 SFRSYM    DATA     BIT       P32
      000000A0H.3 SFRSYM    DATA     BIT       P23
      00000090H.4 SFRSYM    DATA     BIT       P14
      00000080H.5 SFRSYM    DATA     BIT       P05
      00000089H   SFRSYM    DATA     BYTE      TMOD
      00000088H   SFRSYM    DATA     BYTE      TCON
      000000B0H.3 SFRSYM    DATA     BIT       P33
      000000A0H.4 SFRSYM    DATA     BIT       P24
      00000090H.5 SFRSYM    DATA     BIT       P15
      00000080H.6 SFRSYM    DATA     BIT       P06
      000000B0H.4 SFRSYM    DATA     BIT       P34
LX51 LINKER/LOCATER V4.66.1.0                                                         09/07/2023  18:22:32  PAGE 93


      000000A0H.5 SFRSYM    DATA     BIT       P25
      00000090H.6 SFRSYM    DATA     BIT       P16
      00000080H.7 SFRSYM    DATA     BIT       P07
      000000B0H.5 SFRSYM    DATA     BIT       P35
      000000A0H.6 SFRSYM    DATA     BIT       P26
      00000090H.7 SFRSYM    DATA     BIT       P17
      000000F2H   SFRSYM    DATA     BYTE      I2CSSR
      000000B0H.6 SFRSYM    DATA     BIT       P36
      000000A0H.7 SFRSYM    DATA     BIT       P27
      000000ECH   SFRSYM    DATA     BYTE      SPCR
      000000DDH   SFRSYM    DATA     BYTE      ADRESH
      000000B0H.7 SFRSYM    DATA     BIT       P37
      000000EEH   SFRSYM    DATA     BYTE      SPDR
      000000EFH   SFRSYM    DATA     BYTE      SSCR
      000000D3H   SFRSYM    DATA     BYTE      ADDLYL
      000000DCH   SFRSYM    DATA     BYTE      ADRESL
      00000088H.1 SFRSYM    DATA     BIT       IE0
      00000088H.3 SFRSYM    DATA     BIT       IE1
      0000008FH   SFRSYM    DATA     BYTE      CLKDIV
      000000F0H   SFRSYM    DATA     BYTE      B
      00000091H   SFRSYM    DATA     BYTE      FUNCCR
      0000009AH   SFRSYM    DATA     BYTE      P0TRIS
      000000A1H   SFRSYM    DATA     BYTE      P1TRIS
      000000A2H   SFRSYM    DATA     BYTE      P2TRIS
      000000E0H   SFRSYM    DATA     BYTE      ACC
      000000A3H   SFRSYM    DATA     BYTE      P3TRIS
      000000A8H.4 SFRSYM    DATA     BIT       ES0
      000000A8H.6 SFRSYM    DATA     BIT       ES1
      000000A8H.1 SFRSYM    DATA     BIT       ET0
      000000EDH   SFRSYM    DATA     BYTE      SPSR
      000000A8H.3 SFRSYM    DATA     BIT       ET1
      00000088H.5 SFRSYM    DATA     BIT       TF0
      000000A8H.5 SFRSYM    DATA     BIT       ET2
      00000098H   SFRSYM    DATA     BIT       RI0
      00000088H.7 SFRSYM    DATA     BIT       TF1
      0000008CH   SFRSYM    DATA     BYTE      TH0
      000000A8H   SFRSYM    DATA     BIT       EX0
      00000098H.1 SFRSYM    DATA     BIT       TI0
      00000088H   SFRSYM    DATA     BIT       IT0
      0000008DH   SFRSYM    DATA     BYTE      TH1
      000000A8H.2 SFRSYM    DATA     BIT       EX1
      00000088H.2 SFRSYM    DATA     BIT       IT1
      000000CDH   SFRSYM    DATA     BYTE      TH2
      000000D0H   SFRSYM    DATA     BIT       P
      000000DBH   SFRSYM    DATA     BYTE      TH3
      000000E3H   SFRSYM    DATA     BYTE      TH4
      0000008AH   SFRSYM    DATA     BYTE      TL0
      0000008BH   SFRSYM    DATA     BYTE      TL1
      00000098H.2 SFRSYM    DATA     BIT       U0RB8
      000000CCH   SFRSYM    DATA     BYTE      TL2
      000000B8H.4 SFRSYM    DATA     BIT       PS0
      000000DAH   SFRSYM    DATA     BYTE      TL3
      000000BFH   SFRSYM    DATA     BYTE      BUZCON
      000000B8H.6 SFRSYM    DATA     BIT       PS1
      000000B8H.1 SFRSYM    DATA     BIT       PT0
      00000098H.3 SFRSYM    DATA     BIT       U0TB8
      000000E2H   SFRSYM    DATA     BYTE      TL4
      000000D0H.3 SFRSYM    DATA     BIT       RS0
      000000B8H.3 SFRSYM    DATA     BIT       PT1
      000000D0H.4 SFRSYM    DATA     BIT       RS1
      000000B8H.5 SFRSYM    DATA     BIT       PT2
      00000098H.7 SFRSYM    DATA     BIT       U0SM0
      00000088H.4 SFRSYM    DATA     BIT       TR0
      000000BEH   SFRSYM    DATA     BYTE      BUZDIV
      00000098H.6 SFRSYM    DATA     BIT       U0SM1
LX51 LINKER/LOCATER V4.66.1.0                                                         09/07/2023  18:22:32  PAGE 94


      00000088H.6 SFRSYM    DATA     BIT       TR1
      000000B8H   SFRSYM    DATA     BIT       PX0
      00000098H.5 SFRSYM    DATA     BIT       U0SM2
      000000B8H.2 SFRSYM    DATA     BIT       PX1
      000000BDH   SFRSYM    DATA     BYTE      WUTCRH
      00000099H   SFRSYM    DATA     BYTE      SBUF0
      000000EBH   SFRSYM    DATA     BYTE      SBUF1
      000000BCH   SFRSYM    DATA     BYTE      WUTCRL
      00000098H   SFRSYM    DATA     BYTE      SCON0
      000000EAH   SFRSYM    DATA     BYTE      SCON1
      000000C8H   SFRSYM    DATA     BYTE      T2CON
      00000086H   SFRSYM    DATA     BYTE      DPS
      000000FEH   SFRSYM    DATA     BYTE      MDATA
      000000F6H   SFRSYM    DATA     BYTE      I2CMBUF
      000000F1H   SFRSYM    DATA     BYTE      I2CSADR
      00000098H.4 SFRSYM    DATA     BIT       U0REN
      000000C8H.5 SFRSYM    DATA     BIT       CAPES
      000000FDH   SFRSYM    DATA     BYTE      MADRH
      0000008EH   SFRSYM    DATA     BYTE      CKCON
      000000F3H   SFRSYM    DATA     BYTE      I2CSBUF
      000000FCH   SFRSYM    DATA     BYTE      MADRL
      000000D0H.5 SFRSYM    DATA     BIT       F0
      000000FBH   SFRSYM    DATA     BYTE      MLOCK
      000000D0H   SFRSYM    DATA     BYTE      PSW
      00000097H   SFRSYM    DATA     BYTE      WDCON
      01001C59H   SYMBOL    CODE     ---       OPA_Delay

      01001271H   BLOCK     CODE     ---       LVL=0
      00000007H   SYMBOL    DATA     BYTE      OPAn
      00000005H   SYMBOL    DATA     BYTE      OpaMode
      01001271H   BLOCK     CODE     NEAR LAB  LVL=1
      00000006H   SYMBOL    DATA     BYTE      Temp
      ---         BLOCKEND  ---      ---       LVL=1
      01001271H   LINE      CODE     ---       #70
      01001271H   LINE      CODE     ---       #71
      01001271H   LINE      CODE     ---       #72
      01001271H   LINE      CODE     ---       #74
      01001274H   LINE      CODE     ---       #75
      01001274H   LINE      CODE     ---       #76
      01001279H   LINE      CODE     ---       #77
      0100127CH   LINE      CODE     ---       #78
      01001283H   LINE      CODE     ---       #79
      01001285H   LINE      CODE     ---       #80
      01001285H   LINE      CODE     ---       #81
      01001288H   LINE      CODE     ---       #82
      01001288H   LINE      CODE     ---       #83
      0100128DH   LINE      CODE     ---       #84
      01001290H   LINE      CODE     ---       #85
      01001297H   LINE      CODE     ---       #86
      01001299H   LINE      CODE     ---       #87
      01001299H   LINE      CODE     ---       #88
      ---         BLOCKEND  ---      ---       LVL=0

      01001429H   BLOCK     CODE     ---       LVL=0
      00000007H   SYMBOL    DATA     BYTE      OPAn
      00000005H   SYMBOL    DATA     BYTE      PositiveSource
      01001429H   BLOCK     CODE     NEAR LAB  LVL=1
      00000006H   SYMBOL    DATA     BYTE      Temp
      ---         BLOCKEND  ---      ---       LVL=1
      01001429H   LINE      CODE     ---       #99
      01001429H   LINE      CODE     ---       #100
      01001429H   LINE      CODE     ---       #101
      01001429H   LINE      CODE     ---       #103
      0100142CH   LINE      CODE     ---       #104
      0100142CH   LINE      CODE     ---       #105
LX51 LINKER/LOCATER V4.66.1.0                                                         09/07/2023  18:22:32  PAGE 95


      01001431H   LINE      CODE     ---       #106
      01001434H   LINE      CODE     ---       #107
      01001437H   LINE      CODE     ---       #108
      01001439H   LINE      CODE     ---       #109
      01001439H   LINE      CODE     ---       #110
      0100143CH   LINE      CODE     ---       #111
      0100143CH   LINE      CODE     ---       #112
      01001441H   LINE      CODE     ---       #113
      01001444H   LINE      CODE     ---       #114
      01001447H   LINE      CODE     ---       #115
      01001449H   LINE      CODE     ---       #116
      01001449H   LINE      CODE     ---       #117
      ---         BLOCKEND  ---      ---       LVL=0

      0100129AH   BLOCK     CODE     ---       LVL=0
      00000007H   SYMBOL    DATA     BYTE      OPAn
      00000005H   SYMBOL    DATA     BYTE      NegativeSource
      0100129AH   BLOCK     CODE     NEAR LAB  LVL=1
      00000006H   SYMBOL    DATA     BYTE      Temp
      ---         BLOCKEND  ---      ---       LVL=1
      0100129AH   LINE      CODE     ---       #127
      0100129AH   LINE      CODE     ---       #128
      0100129AH   LINE      CODE     ---       #129
      0100129AH   LINE      CODE     ---       #131
      0100129DH   LINE      CODE     ---       #132
      0100129DH   LINE      CODE     ---       #133
      010012A2H   LINE      CODE     ---       #134
      010012A5H   LINE      CODE     ---       #135
      010012ACH   LINE      CODE     ---       #136
      010012AEH   LINE      CODE     ---       #137
      010012AEH   LINE      CODE     ---       #138
      010012B1H   LINE      CODE     ---       #139
      010012B1H   LINE      CODE     ---       #140
      010012B6H   LINE      CODE     ---       #141
      010012B9H   LINE      CODE     ---       #142
      010012C0H   LINE      CODE     ---       #143
      010012C2H   LINE      CODE     ---       #144
      010012C2H   LINE      CODE     ---       #146
      ---         BLOCKEND  ---      ---       LVL=0

      01001903H   BLOCK     CODE     ---       LVL=0
      00000007H   SYMBOL    DATA     BYTE      OPAn
      01001903H   LINE      CODE     ---       #155
      01001903H   LINE      CODE     ---       #156
      01001903H   LINE      CODE     ---       #157
      01001906H   LINE      CODE     ---       #158
      01001906H   LINE      CODE     ---       #159
      0100190DH   LINE      CODE     ---       #160
      0100190DH   LINE      CODE     ---       #161
      01001910H   LINE      CODE     ---       #162
      01001910H   LINE      CODE     ---       #163
      01001917H   LINE      CODE     ---       #164
      01001917H   LINE      CODE     ---       #165
      ---         BLOCKEND  ---      ---       LVL=0

      01001918H   BLOCK     CODE     ---       LVL=0
      00000007H   SYMBOL    DATA     BYTE      OPAn
      01001918H   LINE      CODE     ---       #174
      01001918H   LINE      CODE     ---       #175
      01001918H   LINE      CODE     ---       #176
      0100191BH   LINE      CODE     ---       #177
      0100191BH   LINE      CODE     ---       #178
      01001922H   LINE      CODE     ---       #179
      01001922H   LINE      CODE     ---       #180
      01001925H   LINE      CODE     ---       #181
LX51 LINKER/LOCATER V4.66.1.0                                                         09/07/2023  18:22:32  PAGE 96


      01001925H   LINE      CODE     ---       #182
      0100192CH   LINE      CODE     ---       #183
      0100192CH   LINE      CODE     ---       #184
      ---         BLOCKEND  ---      ---       LVL=0

      0100192DH   BLOCK     CODE     ---       LVL=0
      00000007H   SYMBOL    DATA     BYTE      OPAn
      0100192DH   LINE      CODE     ---       #195
      0100192DH   LINE      CODE     ---       #196
      0100192DH   LINE      CODE     ---       #197
      01001930H   LINE      CODE     ---       #198
      01001930H   LINE      CODE     ---       #199
      01001937H   LINE      CODE     ---       #200
      01001937H   LINE      CODE     ---       #201
      0100193AH   LINE      CODE     ---       #202
      0100193AH   LINE      CODE     ---       #203
      01001941H   LINE      CODE     ---       #204
      01001941H   LINE      CODE     ---       #205
      ---         BLOCKEND  ---      ---       LVL=0

      01001942H   BLOCK     CODE     ---       LVL=0
      00000007H   SYMBOL    DATA     BYTE      OPAn
      01001942H   LINE      CODE     ---       #214
      01001942H   LINE      CODE     ---       #215
      01001942H   LINE      CODE     ---       #216
      01001945H   LINE      CODE     ---       #217
      01001945H   LINE      CODE     ---       #218
      0100194CH   LINE      CODE     ---       #219
      0100194CH   LINE      CODE     ---       #220
      0100194FH   LINE      CODE     ---       #221
      0100194FH   LINE      CODE     ---       #222
      01001956H   LINE      CODE     ---       #223
      01001956H   LINE      CODE     ---       #224
      ---         BLOCKEND  ---      ---       LVL=0

      010013A0H   BLOCK     CODE     ---       LVL=0
      00000006H   SYMBOL    DATA     BYTE      OPAn
      010013A0H   LINE      CODE     ---       #233
      010013A2H   LINE      CODE     ---       #234
      010013A2H   LINE      CODE     ---       #235
      010013A5H   LINE      CODE     ---       #236
      010013A5H   LINE      CODE     ---       #237
      010013B1H   LINE      CODE     ---       #238
      010013B1H   LINE      CODE     ---       #239
      010013B4H   LINE      CODE     ---       #240
      010013B4H   LINE      CODE     ---       #241
      010013C0H   LINE      CODE     ---       #242
      010013C0H   LINE      CODE     ---       #243
      010013C2H   LINE      CODE     ---       #244
      ---         BLOCKEND  ---      ---       LVL=0

      01001191H   BLOCK     CODE     ---       LVL=0
      00000007H   SYMBOL    DATA     BYTE      OPAn
      00000005H   SYMBOL    DATA     BYTE      OffsetAdj
      00000003H   SYMBOL    DATA     BYTE      AdjVlue
      01001191H   BLOCK     CODE     NEAR LAB  LVL=1
      00000006H   SYMBOL    DATA     BYTE      Temp
      ---         BLOCKEND  ---      ---       LVL=1
      01001191H   LINE      CODE     ---       #257
      01001191H   LINE      CODE     ---       #258
      01001191H   LINE      CODE     ---       #259
      01001191H   LINE      CODE     ---       #261
      01001194H   LINE      CODE     ---       #262
      01001194H   LINE      CODE     ---       #263
      01001199H   LINE      CODE     ---       #264
LX51 LINKER/LOCATER V4.66.1.0                                                         09/07/2023  18:22:32  PAGE 97


      0100119CH   LINE      CODE     ---       #265
      010011A1H   LINE      CODE     ---       #266
      010011A3H   LINE      CODE     ---       #267
      010011A8H   LINE      CODE     ---       #268
      010011A8H   LINE      CODE     ---       #269
      010011ABH   LINE      CODE     ---       #270
      010011ABH   LINE      CODE     ---       #271
      010011B0H   LINE      CODE     ---       #272
      010011B3H   LINE      CODE     ---       #273
      010011B8H   LINE      CODE     ---       #274
      010011BAH   LINE      CODE     ---       #275
      010011BFH   LINE      CODE     ---       #276
      010011BFH   LINE      CODE     ---       #277
      ---         BLOCKEND  ---      ---       LVL=0

      01001C59H   BLOCK     CODE     ---       LVL=0
      01001C59H   BLOCK     CODE     NEAR LAB  LVL=1
      00000033H   SYMBOL    DATA     BYTE      i
      ---         BLOCKEND  ---      ---       LVL=1
      01001C59H   LINE      CODE     ---       #285
      01001C59H   LINE      CODE     ---       #286
      01001C59H   LINE      CODE     ---       #288
      01001C5CH   LINE      CODE     ---       #289
      01001C64H   LINE      CODE     ---       #290
      ---         BLOCKEND  ---      ---       LVL=0

      010006E7H   BLOCK     CODE     ---       LVL=0
      00000034H   SYMBOL    DATA     BYTE      OPAn
      00000002H   SYMBOL    DATA     BYTE      OpaMode
      010006EBH   BLOCK     CODE     NEAR LAB  LVL=1
      00000004H   SYMBOL    DATA     BYTE      temp
      00000003H   SYMBOL    DATA     BYTE      OPAOut
      00000001H   SYMBOL    DATA     BYTE      Adjvalue
      ---         BLOCKEND  ---      ---       LVL=1
      010006E7H   LINE      CODE     ---       #300
      010006EBH   LINE      CODE     ---       #301
      010006EBH   LINE      CODE     ---       #303
      010006EDH   LINE      CODE     ---       #304
      010006F1H   LINE      CODE     ---       #305
      010006F1H   LINE      CODE     ---       #307
      010006F5H   LINE      CODE     ---       #308
      010006F8H   LINE      CODE     ---       #310
      010006FDH   LINE      CODE     ---       #311
      01000702H   LINE      CODE     ---       #313
      01000709H   LINE      CODE     ---       #315
      0100070DH   LINE      CODE     ---       #317
      01000713H   LINE      CODE     ---       #319
      01000718H   LINE      CODE     ---       #321
      0100071BH   LINE      CODE     ---       #322
      01000720H   LINE      CODE     ---       #323
      01000722H   LINE      CODE     ---       #324
      01000722H   LINE      CODE     ---       #325
      01000727H   LINE      CODE     ---       #326
      0100072AH   LINE      CODE     ---       #327
      01000733H   LINE      CODE     ---       #328
      01000733H   LINE      CODE     ---       #329
      01000735H   LINE      CODE     ---       #330
      01000737H   LINE      CODE     ---       #331
      01000737H   LINE      CODE     ---       #332
      0100073BH   LINE      CODE     ---       #334
      01000742H   LINE      CODE     ---       #335
      01000744H   LINE      CODE     ---       #336
      01000746H   LINE      CODE     ---       #337
      01000746H   LINE      CODE     ---       #339
      0100074CH   LINE      CODE     ---       #340
LX51 LINKER/LOCATER V4.66.1.0                                                         09/07/2023  18:22:32  PAGE 98


      0100074CH   LINE      CODE     ---       #342
      01000751H   LINE      CODE     ---       #343
      01000756H   LINE      CODE     ---       #345
      0100075BH   LINE      CODE     ---       #346
      01000760H   LINE      CODE     ---       #347
      01000767H   LINE      CODE     ---       #349
      0100076BH   LINE      CODE     ---       #351
      01000771H   LINE      CODE     ---       #353
      01000776H   LINE      CODE     ---       #355
      01000779H   LINE      CODE     ---       #356
      0100077EH   LINE      CODE     ---       #357
      01000780H   LINE      CODE     ---       #358
      01000780H   LINE      CODE     ---       #359
      01000785H   LINE      CODE     ---       #360
      01000788H   LINE      CODE     ---       #361
      01000791H   LINE      CODE     ---       #362
      01000791H   LINE      CODE     ---       #363
      01000793H   LINE      CODE     ---       #364
      01000795H   LINE      CODE     ---       #365
      01000795H   LINE      CODE     ---       #366
      01000799H   LINE      CODE     ---       #368
      010007A0H   LINE      CODE     ---       #369
      010007A5H   LINE      CODE     ---       #371
      010007A8H   LINE      CODE     ---       #372
      010007A8H   LINE      CODE     ---       #373
      010007AAH   LINE      CODE     ---       #374
      ---         BLOCKEND  ---      ---       LVL=0

      ---         MODULE    ---      ---       PGA
      01000C81H   PUBLIC    CODE     ---       _PGA_GetOffsetAdjValue
      01001EA8H   PUBLIC    CODE     ---       PGA_Stop
      01001EA0H   PUBLIC    CODE     ---       PGA_Start
      01001B02H   PUBLIC    CODE     ---       _PGA_ConfigSampleTime
      01001E98H   PUBLIC    CODE     ---       PGA_DisableSHA
      01001E90H   PUBLIC    CODE     ---       PGA_EnableSHA
      01001A30H   PUBLIC    CODE     ---       _PGA_ConfigOffsetAdj
      01001A1FH   PUBLIC    CODE     ---       _PGA_ConfigGain
      01001E88H   PUBLIC    CODE     ---       PGA_DisableOutput
      01001E80H   PUBLIC    CODE     ---       PGA_EnableOutput
      01001AF4H   PUBLIC    CODE     ---       _PGA_ConfigInput
      010017CAH   PUBLIC    CODE     ---       _PGA_EnableNormalMode
      000000C8H   SFRSYM    DATA     BIT       T2I0
      000000C3H   SFRSYM    DATA     BYTE      CCH1
      00000080H   SFRSYM    DATA     BYTE      P0
      000000C8H.1 SFRSYM    DATA     BIT       T2I1
      000000C5H   SFRSYM    DATA     BYTE      CCH2
      00000090H   SFRSYM    DATA     BYTE      P1
      000000C7H   SFRSYM    DATA     BYTE      CCH3
      000000ACH   SFRSYM    DATA     BYTE      P0EXTIE
      000000A0H   SFRSYM    DATA     BYTE      P2
      000000B4H   SFRSYM    DATA     BYTE      P0EXTIF
      000000B0H   SFRSYM    DATA     BYTE      P3
      000000ADH   SFRSYM    DATA     BYTE      P1EXTIE
      000000D0H.6 SFRSYM    DATA     BIT       AC
      000000FFH   SFRSYM    DATA     BYTE      MCTRL
      000000C2H   SFRSYM    DATA     BYTE      CCL1
      000000B5H   SFRSYM    DATA     BYTE      P1EXTIF
      000000AEH   SFRSYM    DATA     BYTE      P2EXTIE
      000000C4H   SFRSYM    DATA     BYTE      CCL2
      000000B6H   SFRSYM    DATA     BYTE      P2EXTIF
      000000AFH   SFRSYM    DATA     BYTE      P3EXTIE
      000000A8H.7 SFRSYM    DATA     BIT       EA
      000000C6H   SFRSYM    DATA     BYTE      CCL3
      000000B7H   SFRSYM    DATA     BYTE      P3EXTIF
      000000AAH   SFRSYM    DATA     BYTE      EIE2
LX51 LINKER/LOCATER V4.66.1.0                                                         09/07/2023  18:22:32  PAGE 99


      000000B2H   SFRSYM    DATA     BYTE      EIF2
      000000C8H.3 SFRSYM    DATA     BIT       T2R0
      000000C8H.4 SFRSYM    DATA     BIT       T2R1
      00000083H   SFRSYM    DATA     BYTE      DPH0
      000000A8H   SFRSYM    DATA     BYTE      IE
      00000085H   SFRSYM    DATA     BYTE      DPH1
      000000B9H   SFRSYM    DATA     BYTE      EIP1
      000000BAH   SFRSYM    DATA     BYTE      EIP2
      00000082H   SFRSYM    DATA     BYTE      DPL0
      00000084H   SFRSYM    DATA     BYTE      DPL1
      000000C8H.6 SFRSYM    DATA     BIT       I3FR
      000000CFH   SFRSYM    DATA     BYTE      T2IE
      00000096H   SFRSYM    DATA     BYTE      TA
      000000C9H   SFRSYM    DATA     BYTE      T2IF
      000000C8H.2 SFRSYM    DATA     BIT       T2CM
      000000DFH   SFRSYM    DATA     BYTE      ADCON0
      000000DEH   SFRSYM    DATA     BYTE      ADCON1
      000000E9H   SFRSYM    DATA     BYTE      ADCON2
      000000B8H   SFRSYM    DATA     BYTE      IP
      000000CEH   SFRSYM    DATA     BYTE      CCEN
      000000D0H.7 SFRSYM    DATA     BIT       CY
      000000D2H   SFRSYM    DATA     BYTE      T34MOD
      00000093H   SFRSYM    DATA     BYTE      DPX0
      00000095H   SFRSYM    DATA     BYTE      DPX1
      000000F4H   SFRSYM    DATA     BYTE      I2CMSA
      000000F5H   SFRSYM    DATA     BYTE      I2CMCR
      00000081H   SFRSYM    DATA     BYTE      SP
      000000D0H.2 SFRSYM    DATA     BIT       OV
      000000F2H   SFRSYM    DATA     BYTE      I2CSCR
      000000C8H.7 SFRSYM    DATA     BIT       T2PS
      000000D1H   SFRSYM    DATA     BYTE      ADCMPC
      000000CBH   SFRSYM    DATA     BYTE      RLDH
      000000D5H   SFRSYM    DATA     BYTE      ADCMPH
      000000CAH   SFRSYM    DATA     BYTE      RLDL
      00000080H   SFRSYM    DATA     BIT       P00
      00000090H   SFRSYM    DATA     BIT       P10
      00000080H.1 SFRSYM    DATA     BIT       P01
      000000F7H   SFRSYM    DATA     BYTE      I2CMTP
      00000099H   SFRSYM    DATA     BYTE      SBUF
      00000087H   SFRSYM    DATA     BYTE      PCON
      000000A0H   SFRSYM    DATA     BIT       P20
      00000090H.1 SFRSYM    DATA     BIT       P11
      00000080H.2 SFRSYM    DATA     BIT       P02
      000000F5H   SFRSYM    DATA     BYTE      I2CMSR
      000000B0H   SFRSYM    DATA     BIT       P30
      000000A0H.1 SFRSYM    DATA     BIT       P21
      00000090H.2 SFRSYM    DATA     BIT       P12
      00000080H.3 SFRSYM    DATA     BIT       P03
      000000D4H   SFRSYM    DATA     BYTE      ADCMPL
      000000B0H.1 SFRSYM    DATA     BIT       P31
      000000A0H.2 SFRSYM    DATA     BIT       P22
      00000090H.3 SFRSYM    DATA     BIT       P13
      00000080H.4 SFRSYM    DATA     BIT       P04
      000000B0H.2 SFRSYM    DATA     BIT       P32
      000000A0H.3 SFRSYM    DATA     BIT       P23
      00000090H.4 SFRSYM    DATA     BIT       P14
      00000080H.5 SFRSYM    DATA     BIT       P05
      00000089H   SFRSYM    DATA     BYTE      TMOD
      00000088H   SFRSYM    DATA     BYTE      TCON
      000000B0H.3 SFRSYM    DATA     BIT       P33
      000000A0H.4 SFRSYM    DATA     BIT       P24
      00000090H.5 SFRSYM    DATA     BIT       P15
      00000080H.6 SFRSYM    DATA     BIT       P06
      000000B0H.4 SFRSYM    DATA     BIT       P34
      000000A0H.5 SFRSYM    DATA     BIT       P25
LX51 LINKER/LOCATER V4.66.1.0                                                         09/07/2023  18:22:32  PAGE 100


      00000090H.6 SFRSYM    DATA     BIT       P16
      00000080H.7 SFRSYM    DATA     BIT       P07
      000000B0H.5 SFRSYM    DATA     BIT       P35
      000000A0H.6 SFRSYM    DATA     BIT       P26
      00000090H.7 SFRSYM    DATA     BIT       P17
      000000F2H   SFRSYM    DATA     BYTE      I2CSSR
      000000B0H.6 SFRSYM    DATA     BIT       P36
      000000A0H.7 SFRSYM    DATA     BIT       P27
      000000ECH   SFRSYM    DATA     BYTE      SPCR
      000000DDH   SFRSYM    DATA     BYTE      ADRESH
      000000B0H.7 SFRSYM    DATA     BIT       P37
      000000EEH   SFRSYM    DATA     BYTE      SPDR
      000000EFH   SFRSYM    DATA     BYTE      SSCR
      000000D3H   SFRSYM    DATA     BYTE      ADDLYL
      000000DCH   SFRSYM    DATA     BYTE      ADRESL
      00000088H.1 SFRSYM    DATA     BIT       IE0
      00000088H.3 SFRSYM    DATA     BIT       IE1
      0000008FH   SFRSYM    DATA     BYTE      CLKDIV
      000000F0H   SFRSYM    DATA     BYTE      B
      00000091H   SFRSYM    DATA     BYTE      FUNCCR
      0000009AH   SFRSYM    DATA     BYTE      P0TRIS
      000000A1H   SFRSYM    DATA     BYTE      P1TRIS
      000000A2H   SFRSYM    DATA     BYTE      P2TRIS
      000000E0H   SFRSYM    DATA     BYTE      ACC
      000000A3H   SFRSYM    DATA     BYTE      P3TRIS
      000000A8H.4 SFRSYM    DATA     BIT       ES0
      000000A8H.6 SFRSYM    DATA     BIT       ES1
      000000A8H.1 SFRSYM    DATA     BIT       ET0
      000000EDH   SFRSYM    DATA     BYTE      SPSR
      000000A8H.3 SFRSYM    DATA     BIT       ET1
      00000088H.5 SFRSYM    DATA     BIT       TF0
      000000A8H.5 SFRSYM    DATA     BIT       ET2
      00000098H   SFRSYM    DATA     BIT       RI0
      00000088H.7 SFRSYM    DATA     BIT       TF1
      0000008CH   SFRSYM    DATA     BYTE      TH0
      000000A8H   SFRSYM    DATA     BIT       EX0
      00000098H.1 SFRSYM    DATA     BIT       TI0
      00000088H   SFRSYM    DATA     BIT       IT0
      0000008DH   SFRSYM    DATA     BYTE      TH1
      000000A8H.2 SFRSYM    DATA     BIT       EX1
      00000088H.2 SFRSYM    DATA     BIT       IT1
      000000CDH   SFRSYM    DATA     BYTE      TH2
      000000D0H   SFRSYM    DATA     BIT       P
      000000DBH   SFRSYM    DATA     BYTE      TH3
      000000E3H   SFRSYM    DATA     BYTE      TH4
      0000008AH   SFRSYM    DATA     BYTE      TL0
      0000008BH   SFRSYM    DATA     BYTE      TL1
      00000098H.2 SFRSYM    DATA     BIT       U0RB8
      000000CCH   SFRSYM    DATA     BYTE      TL2
      000000B8H.4 SFRSYM    DATA     BIT       PS0
      000000DAH   SFRSYM    DATA     BYTE      TL3
      000000BFH   SFRSYM    DATA     BYTE      BUZCON
      000000B8H.6 SFRSYM    DATA     BIT       PS1
      000000B8H.1 SFRSYM    DATA     BIT       PT0
      00000098H.3 SFRSYM    DATA     BIT       U0TB8
      000000E2H   SFRSYM    DATA     BYTE      TL4
      000000D0H.3 SFRSYM    DATA     BIT       RS0
      000000B8H.3 SFRSYM    DATA     BIT       PT1
      000000D0H.4 SFRSYM    DATA     BIT       RS1
      000000B8H.5 SFRSYM    DATA     BIT       PT2
      00000098H.7 SFRSYM    DATA     BIT       U0SM0
      00000088H.4 SFRSYM    DATA     BIT       TR0
      000000BEH   SFRSYM    DATA     BYTE      BUZDIV
      00000098H.6 SFRSYM    DATA     BIT       U0SM1
      00000088H.6 SFRSYM    DATA     BIT       TR1
LX51 LINKER/LOCATER V4.66.1.0                                                         09/07/2023  18:22:32  PAGE 101


      000000B8H   SFRSYM    DATA     BIT       PX0
      00000098H.5 SFRSYM    DATA     BIT       U0SM2
      000000B8H.2 SFRSYM    DATA     BIT       PX1
      000000BDH   SFRSYM    DATA     BYTE      WUTCRH
      00000099H   SFRSYM    DATA     BYTE      SBUF0
      000000EBH   SFRSYM    DATA     BYTE      SBUF1
      000000BCH   SFRSYM    DATA     BYTE      WUTCRL
      00000098H   SFRSYM    DATA     BYTE      SCON0
      000000EAH   SFRSYM    DATA     BYTE      SCON1
      000000C8H   SFRSYM    DATA     BYTE      T2CON
      00000086H   SFRSYM    DATA     BYTE      DPS
      000000FEH   SFRSYM    DATA     BYTE      MDATA
      000000F6H   SFRSYM    DATA     BYTE      I2CMBUF
      000000F1H   SFRSYM    DATA     BYTE      I2CSADR
      00000098H.4 SFRSYM    DATA     BIT       U0REN
      000000C8H.5 SFRSYM    DATA     BIT       CAPES
      000000FDH   SFRSYM    DATA     BYTE      MADRH
      0000008EH   SFRSYM    DATA     BYTE      CKCON
      000000F3H   SFRSYM    DATA     BYTE      I2CSBUF
      000000FCH   SFRSYM    DATA     BYTE      MADRL
      000000D0H.5 SFRSYM    DATA     BIT       F0
      000000FBH   SFRSYM    DATA     BYTE      MLOCK
      000000D0H   SFRSYM    DATA     BYTE      PSW
      00000097H   SFRSYM    DATA     BYTE      WDCON
      01001C65H   SYMBOL    CODE     ---       PGA_GetOutValue
      01001C71H   SYMBOL    CODE     ---       PGA_Delay

      010017CAH   BLOCK     CODE     ---       LVL=0
      00000007H   SYMBOL    DATA     BYTE      PGAMode
      010017CAH   BLOCK     CODE     NEAR LAB  LVL=1
      00000006H   SYMBOL    DATA     BYTE      Temp
      ---         BLOCKEND  ---      ---       LVL=1
      010017CAH   LINE      CODE     ---       #69
      010017CAH   LINE      CODE     ---       #70
      010017CAH   LINE      CODE     ---       #71
      010017CAH   LINE      CODE     ---       #73
      010017D1H   LINE      CODE     ---       #74
      010017D6H   LINE      CODE     ---       #75
      010017D9H   LINE      CODE     ---       #76
      010017E0H   LINE      CODE     ---       #77
      010017E2H   LINE      CODE     ---       #78
      ---         BLOCKEND  ---      ---       LVL=0

      01001AF4H   BLOCK     CODE     ---       LVL=0
      00000007H   SYMBOL    DATA     BYTE      Port
      01001AF4H   BLOCK     CODE     NEAR LAB  LVL=1
      00000006H   SYMBOL    DATA     BYTE      Temp
      ---         BLOCKEND  ---      ---       LVL=1
      01001AF4H   LINE      CODE     ---       #90
      01001AF4H   LINE      CODE     ---       #91
      01001AF4H   LINE      CODE     ---       #92
      01001AF4H   LINE      CODE     ---       #94
      01001AF9H   LINE      CODE     ---       #95
      01001AFCH   LINE      CODE     ---       #96
      01001AFFH   LINE      CODE     ---       #97
      01001B01H   LINE      CODE     ---       #98
      ---         BLOCKEND  ---      ---       LVL=0

      01001E80H   BLOCK     CODE     ---       LVL=0
      01001E80H   LINE      CODE     ---       #107
      01001E80H   LINE      CODE     ---       #108
      01001E80H   LINE      CODE     ---       #109
      01001E87H   LINE      CODE     ---       #110
      ---         BLOCKEND  ---      ---       LVL=0

LX51 LINKER/LOCATER V4.66.1.0                                                         09/07/2023  18:22:32  PAGE 102


      01001E88H   BLOCK     CODE     ---       LVL=0
      01001E88H   LINE      CODE     ---       #118
      01001E88H   LINE      CODE     ---       #119
      01001E88H   LINE      CODE     ---       #120
      01001E8FH   LINE      CODE     ---       #121
      ---         BLOCKEND  ---      ---       LVL=0

      01001A1FH   BLOCK     CODE     ---       LVL=0
      00000007H   SYMBOL    DATA     BYTE      Gain
      01001A1FH   BLOCK     CODE     NEAR LAB  LVL=1
      00000006H   SYMBOL    DATA     BYTE      Temp
      ---         BLOCKEND  ---      ---       LVL=1
      01001A1FH   LINE      CODE     ---       #137
      01001A1FH   LINE      CODE     ---       #138
      01001A1FH   LINE      CODE     ---       #139
      01001A1FH   LINE      CODE     ---       #141
      01001A24H   LINE      CODE     ---       #142
      01001A27H   LINE      CODE     ---       #143
      01001A2DH   LINE      CODE     ---       #144
      01001A2FH   LINE      CODE     ---       #145
      ---         BLOCKEND  ---      ---       LVL=0

      01001A30H   BLOCK     CODE     ---       LVL=0
      00000007H   SYMBOL    DATA     BYTE      OffsetAdj
      00000005H   SYMBOL    DATA     BYTE      AdjVlue
      01001A30H   BLOCK     CODE     NEAR LAB  LVL=1
      00000006H   SYMBOL    DATA     BYTE      Temp
      ---         BLOCKEND  ---      ---       LVL=1
      01001A30H   LINE      CODE     ---       #156
      01001A30H   LINE      CODE     ---       #157
      01001A30H   LINE      CODE     ---       #158
      01001A30H   LINE      CODE     ---       #160
      01001A35H   LINE      CODE     ---       #161
      01001A38H   LINE      CODE     ---       #162
      01001A3BH   LINE      CODE     ---       #163
      01001A3DH   LINE      CODE     ---       #164
      01001A40H   LINE      CODE     ---       #165
      ---         BLOCKEND  ---      ---       LVL=0

      01001E90H   BLOCK     CODE     ---       LVL=0
      01001E90H   LINE      CODE     ---       #175
      01001E90H   LINE      CODE     ---       #176
      01001E90H   LINE      CODE     ---       #177
      01001E97H   LINE      CODE     ---       #178
      ---         BLOCKEND  ---      ---       LVL=0

      01001E98H   BLOCK     CODE     ---       LVL=0
      01001E98H   LINE      CODE     ---       #187
      01001E98H   LINE      CODE     ---       #188
      01001E98H   LINE      CODE     ---       #189
      01001E9FH   LINE      CODE     ---       #190
      ---         BLOCKEND  ---      ---       LVL=0

      01001B02H   BLOCK     CODE     ---       LVL=0
      00000007H   SYMBOL    DATA     BYTE      SampleTime
      01001B02H   BLOCK     CODE     NEAR LAB  LVL=1
      00000006H   SYMBOL    DATA     BYTE      Temp
      ---         BLOCKEND  ---      ---       LVL=1
      01001B02H   LINE      CODE     ---       #199
      01001B02H   LINE      CODE     ---       #200
      01001B02H   LINE      CODE     ---       #201
      01001B02H   LINE      CODE     ---       #203
      01001B07H   LINE      CODE     ---       #204
      01001B0AH   LINE      CODE     ---       #205
      01001B0DH   LINE      CODE     ---       #206
LX51 LINKER/LOCATER V4.66.1.0                                                         09/07/2023  18:22:32  PAGE 103


      01001B0FH   LINE      CODE     ---       #207
      ---         BLOCKEND  ---      ---       LVL=0

      01001EA0H   BLOCK     CODE     ---       LVL=0
      01001EA0H   LINE      CODE     ---       #217
      01001EA0H   LINE      CODE     ---       #218
      01001EA0H   LINE      CODE     ---       #219
      01001EA7H   LINE      CODE     ---       #220
      ---         BLOCKEND  ---      ---       LVL=0

      01001EA8H   BLOCK     CODE     ---       LVL=0
      01001EA8H   LINE      CODE     ---       #228
      01001EA8H   LINE      CODE     ---       #229
      01001EA8H   LINE      CODE     ---       #230
      01001EAFH   LINE      CODE     ---       #231
      ---         BLOCKEND  ---      ---       LVL=0

      01001C65H   BLOCK     CODE     ---       LVL=0
      01001C65H   LINE      CODE     ---       #241
      01001C65H   LINE      CODE     ---       #242
      01001C65H   LINE      CODE     ---       #243
      01001C70H   LINE      CODE     ---       #244
      ---         BLOCKEND  ---      ---       LVL=0

      01001C71H   BLOCK     CODE     ---       LVL=0
      01001C71H   BLOCK     CODE     NEAR LAB  LVL=1
      00000035H   SYMBOL    DATA     BYTE      i
      ---         BLOCKEND  ---      ---       LVL=1
      01001C71H   LINE      CODE     ---       #254
      01001C71H   LINE      CODE     ---       #255
      01001C71H   LINE      CODE     ---       #257
      01001C74H   LINE      CODE     ---       #258
      01001C7CH   LINE      CODE     ---       #259
      ---         BLOCKEND  ---      ---       LVL=0

      01000C81H   BLOCK     CODE     ---       LVL=0
      00000007H   SYMBOL    DATA     BYTE      AdjMode
      01000C81H   BLOCK     CODE     NEAR LAB  LVL=1
      00000003H   SYMBOL    DATA     BYTE      temp
      00000004H   SYMBOL    DATA     BYTE      PgaOut
      00000006H   SYMBOL    DATA     BYTE      Adjvalue
      00000005H   SYMBOL    DATA     BYTE      PGACON3Temp
      ---         BLOCKEND  ---      ---       LVL=1
      01000C81H   LINE      CODE     ---       #270
      01000C81H   LINE      CODE     ---       #271
      01000C81H   LINE      CODE     ---       #273
      01000C83H   LINE      CODE     ---       #276
      01000C86H   LINE      CODE     ---       #277
      01000C89H   LINE      CODE     ---       #279
      01000C8CH   LINE      CODE     ---       #280
      01000C8CH   LINE      CODE     ---       #281
      01000C92H   LINE      CODE     ---       #282
      01000C92H   LINE      CODE     ---       #283
      01000C95H   LINE      CODE     ---       #284
      01000C95H   LINE      CODE     ---       #285
      01000C9BH   LINE      CODE     ---       #286
      01000CA1H   LINE      CODE     ---       #287
      01000CA1H   LINE      CODE     ---       #288
      01000CA4H   LINE      CODE     ---       #289
      01000CA4H   LINE      CODE     ---       #290
      01000CAAH   LINE      CODE     ---       #291
      01000CB0H   LINE      CODE     ---       #292
      01000CB0H   LINE      CODE     ---       #294
      01000CB6H   LINE      CODE     ---       #296
      01000CB9H   LINE      CODE     ---       #298
LX51 LINKER/LOCATER V4.66.1.0                                                         09/07/2023  18:22:32  PAGE 104


      01000CBEH   LINE      CODE     ---       #300
      01000CC1H   LINE      CODE     ---       #301
      01000CC6H   LINE      CODE     ---       #302
      01000CC8H   LINE      CODE     ---       #303
      01000CC8H   LINE      CODE     ---       #304
      01000CCBH   LINE      CODE     ---       #305
      01000CCEH   LINE      CODE     ---       #306
      01000CD3H   LINE      CODE     ---       #307
      01000CD6H   LINE      CODE     ---       #308
      01000CDDH   LINE      CODE     ---       #309
      01000CDDH   LINE      CODE     ---       #310
      01000CDFH   LINE      CODE     ---       #311
      01000CE1H   LINE      CODE     ---       #312
      01000CE1H   LINE      CODE     ---       #313
      01000CE5H   LINE      CODE     ---       #315
      01000CE8H   LINE      CODE     ---       #316
      01000CEDH   LINE      CODE     ---       #317
      01000CEFH   LINE      CODE     ---       #318
      ---         BLOCKEND  ---      ---       LVL=0

      ---         MODULE    ---      ---       SPI
      01001F45H   PUBLIC    CODE     ---       SPI_DisableIntFlag
      01001F41H   PUBLIC    CODE     ---       SPI_EnableIntFlag
      0100000EH   PUBLIC    CODE     ---       SPI_ClearWriteErrorIntFlag
      01001D9FH   PUBLIC    CODE     ---       SPI_GetWriteErrorIntFlag
      01000006H   PUBLIC    CODE     ---       SPI_ClearTransferIntFlag
      01001D95H   PUBLIC    CODE     ---       SPI_GetTransferIntFlag
      01001F3DH   PUBLIC    CODE     ---       SPI_DisableSlaveMode
      01001F39H   PUBLIC    CODE     ---       SPI_EnableSlaveMode
      01001F35H   PUBLIC    CODE     ---       SPI_DisableMasterMode
      01001F31H   PUBLIC    CODE     ---       SPI_EnableMasterMode
      01001844H   PUBLIC    CODE     ---       _SPI_ConfigRunMode
      01001CFAH   PUBLIC    CODE     ---       _SPI_ConfigClk
      01001F2DH   PUBLIC    CODE     ---       SPI_Stop
      01001F29H   PUBLIC    CODE     ---       SPI_Start
      000000C8H   SFRSYM    DATA     BIT       T2I0
      000000C3H   SFRSYM    DATA     BYTE      CCH1
      00000080H   SFRSYM    DATA     BYTE      P0
      000000C8H.1 SFRSYM    DATA     BIT       T2I1
      000000C5H   SFRSYM    DATA     BYTE      CCH2
      00000090H   SFRSYM    DATA     BYTE      P1
      000000C7H   SFRSYM    DATA     BYTE      CCH3
      000000ACH   SFRSYM    DATA     BYTE      P0EXTIE
      000000A0H   SFRSYM    DATA     BYTE      P2
      000000B4H   SFRSYM    DATA     BYTE      P0EXTIF
      000000B0H   SFRSYM    DATA     BYTE      P3
      000000ADH   SFRSYM    DATA     BYTE      P1EXTIE
      000000D0H.6 SFRSYM    DATA     BIT       AC
      000000FFH   SFRSYM    DATA     BYTE      MCTRL
      000000C2H   SFRSYM    DATA     BYTE      CCL1
      000000B5H   SFRSYM    DATA     BYTE      P1EXTIF
      000000AEH   SFRSYM    DATA     BYTE      P2EXTIE
      000000C4H   SFRSYM    DATA     BYTE      CCL2
      000000B6H   SFRSYM    DATA     BYTE      P2EXTIF
      000000AFH   SFRSYM    DATA     BYTE      P3EXTIE
      000000A8H.7 SFRSYM    DATA     BIT       EA
      000000C6H   SFRSYM    DATA     BYTE      CCL3
      000000B7H   SFRSYM    DATA     BYTE      P3EXTIF
      000000AAH   SFRSYM    DATA     BYTE      EIE2
      000000B2H   SFRSYM    DATA     BYTE      EIF2
      000000C8H.3 SFRSYM    DATA     BIT       T2R0
      000000C8H.4 SFRSYM    DATA     BIT       T2R1
      00000083H   SFRSYM    DATA     BYTE      DPH0
      000000A8H   SFRSYM    DATA     BYTE      IE
      00000085H   SFRSYM    DATA     BYTE      DPH1
LX51 LINKER/LOCATER V4.66.1.0                                                         09/07/2023  18:22:32  PAGE 105


      000000B9H   SFRSYM    DATA     BYTE      EIP1
      000000BAH   SFRSYM    DATA     BYTE      EIP2
      00000082H   SFRSYM    DATA     BYTE      DPL0
      00000084H   SFRSYM    DATA     BYTE      DPL1
      000000C8H.6 SFRSYM    DATA     BIT       I3FR
      000000CFH   SFRSYM    DATA     BYTE      T2IE
      00000096H   SFRSYM    DATA     BYTE      TA
      000000C9H   SFRSYM    DATA     BYTE      T2IF
      000000C8H.2 SFRSYM    DATA     BIT       T2CM
      000000DFH   SFRSYM    DATA     BYTE      ADCON0
      000000DEH   SFRSYM    DATA     BYTE      ADCON1
      000000E9H   SFRSYM    DATA     BYTE      ADCON2
      000000B8H   SFRSYM    DATA     BYTE      IP
      000000CEH   SFRSYM    DATA     BYTE      CCEN
      000000D0H.7 SFRSYM    DATA     BIT       CY
      000000D2H   SFRSYM    DATA     BYTE      T34MOD
      00000093H   SFRSYM    DATA     BYTE      DPX0
      00000095H   SFRSYM    DATA     BYTE      DPX1
      000000F4H   SFRSYM    DATA     BYTE      I2CMSA
      000000F5H   SFRSYM    DATA     BYTE      I2CMCR
      00000081H   SFRSYM    DATA     BYTE      SP
      000000D0H.2 SFRSYM    DATA     BIT       OV
      000000F2H   SFRSYM    DATA     BYTE      I2CSCR
      000000C8H.7 SFRSYM    DATA     BIT       T2PS
      000000D1H   SFRSYM    DATA     BYTE      ADCMPC
      000000CBH   SFRSYM    DATA     BYTE      RLDH
      000000D5H   SFRSYM    DATA     BYTE      ADCMPH
      000000CAH   SFRSYM    DATA     BYTE      RLDL
      00000080H   SFRSYM    DATA     BIT       P00
      00000090H   SFRSYM    DATA     BIT       P10
      00000080H.1 SFRSYM    DATA     BIT       P01
      000000F7H   SFRSYM    DATA     BYTE      I2CMTP
      00000099H   SFRSYM    DATA     BYTE      SBUF
      00000087H   SFRSYM    DATA     BYTE      PCON
      000000A0H   SFRSYM    DATA     BIT       P20
      00000090H.1 SFRSYM    DATA     BIT       P11
      00000080H.2 SFRSYM    DATA     BIT       P02
      000000F5H   SFRSYM    DATA     BYTE      I2CMSR
      000000B0H   SFRSYM    DATA     BIT       P30
      000000A0H.1 SFRSYM    DATA     BIT       P21
      00000090H.2 SFRSYM    DATA     BIT       P12
      00000080H.3 SFRSYM    DATA     BIT       P03
      000000D4H   SFRSYM    DATA     BYTE      ADCMPL
      000000B0H.1 SFRSYM    DATA     BIT       P31
      000000A0H.2 SFRSYM    DATA     BIT       P22
      00000090H.3 SFRSYM    DATA     BIT       P13
      00000080H.4 SFRSYM    DATA     BIT       P04
      000000B0H.2 SFRSYM    DATA     BIT       P32
      000000A0H.3 SFRSYM    DATA     BIT       P23
      00000090H.4 SFRSYM    DATA     BIT       P14
      00000080H.5 SFRSYM    DATA     BIT       P05
      00000089H   SFRSYM    DATA     BYTE      TMOD
      00000088H   SFRSYM    DATA     BYTE      TCON
      000000B0H.3 SFRSYM    DATA     BIT       P33
      000000A0H.4 SFRSYM    DATA     BIT       P24
      00000090H.5 SFRSYM    DATA     BIT       P15
      00000080H.6 SFRSYM    DATA     BIT       P06
      000000B0H.4 SFRSYM    DATA     BIT       P34
      000000A0H.5 SFRSYM    DATA     BIT       P25
      00000090H.6 SFRSYM    DATA     BIT       P16
      00000080H.7 SFRSYM    DATA     BIT       P07
      000000B0H.5 SFRSYM    DATA     BIT       P35
      000000A0H.6 SFRSYM    DATA     BIT       P26
      00000090H.7 SFRSYM    DATA     BIT       P17
      000000F2H   SFRSYM    DATA     BYTE      I2CSSR
LX51 LINKER/LOCATER V4.66.1.0                                                         09/07/2023  18:22:32  PAGE 106


      000000B0H.6 SFRSYM    DATA     BIT       P36
      000000A0H.7 SFRSYM    DATA     BIT       P27
      000000ECH   SFRSYM    DATA     BYTE      SPCR
      000000DDH   SFRSYM    DATA     BYTE      ADRESH
      000000B0H.7 SFRSYM    DATA     BIT       P37
      000000EEH   SFRSYM    DATA     BYTE      SPDR
      000000EFH   SFRSYM    DATA     BYTE      SSCR
      000000D3H   SFRSYM    DATA     BYTE      ADDLYL
      000000DCH   SFRSYM    DATA     BYTE      ADRESL
      00000088H.1 SFRSYM    DATA     BIT       IE0
      00000088H.3 SFRSYM    DATA     BIT       IE1
      0000008FH   SFRSYM    DATA     BYTE      CLKDIV
      000000F0H   SFRSYM    DATA     BYTE      B
      00000091H   SFRSYM    DATA     BYTE      FUNCCR
      0000009AH   SFRSYM    DATA     BYTE      P0TRIS
      000000A1H   SFRSYM    DATA     BYTE      P1TRIS
      000000A2H   SFRSYM    DATA     BYTE      P2TRIS
      000000E0H   SFRSYM    DATA     BYTE      ACC
      000000A3H   SFRSYM    DATA     BYTE      P3TRIS
      000000A8H.4 SFRSYM    DATA     BIT       ES0
      000000A8H.6 SFRSYM    DATA     BIT       ES1
      000000A8H.1 SFRSYM    DATA     BIT       ET0
      000000EDH   SFRSYM    DATA     BYTE      SPSR
      000000A8H.3 SFRSYM    DATA     BIT       ET1
      00000088H.5 SFRSYM    DATA     BIT       TF0
      000000A8H.5 SFRSYM    DATA     BIT       ET2
      00000098H   SFRSYM    DATA     BIT       RI0
      00000088H.7 SFRSYM    DATA     BIT       TF1
      0000008CH   SFRSYM    DATA     BYTE      TH0
      000000A8H   SFRSYM    DATA     BIT       EX0
      00000098H.1 SFRSYM    DATA     BIT       TI0
      00000088H   SFRSYM    DATA     BIT       IT0
      0000008DH   SFRSYM    DATA     BYTE      TH1
      000000A8H.2 SFRSYM    DATA     BIT       EX1
      00000088H.2 SFRSYM    DATA     BIT       IT1
      000000CDH   SFRSYM    DATA     BYTE      TH2
      000000D0H   SFRSYM    DATA     BIT       P
      000000DBH   SFRSYM    DATA     BYTE      TH3
      000000E3H   SFRSYM    DATA     BYTE      TH4
      0000008AH   SFRSYM    DATA     BYTE      TL0
      0000008BH   SFRSYM    DATA     BYTE      TL1
      00000098H.2 SFRSYM    DATA     BIT       U0RB8
      000000CCH   SFRSYM    DATA     BYTE      TL2
      000000B8H.4 SFRSYM    DATA     BIT       PS0
      000000DAH   SFRSYM    DATA     BYTE      TL3
      000000BFH   SFRSYM    DATA     BYTE      BUZCON
      000000B8H.6 SFRSYM    DATA     BIT       PS1
      000000B8H.1 SFRSYM    DATA     BIT       PT0
      00000098H.3 SFRSYM    DATA     BIT       U0TB8
      000000E2H   SFRSYM    DATA     BYTE      TL4
      000000D0H.3 SFRSYM    DATA     BIT       RS0
      000000B8H.3 SFRSYM    DATA     BIT       PT1
      000000D0H.4 SFRSYM    DATA     BIT       RS1
      000000B8H.5 SFRSYM    DATA     BIT       PT2
      00000098H.7 SFRSYM    DATA     BIT       U0SM0
      00000088H.4 SFRSYM    DATA     BIT       TR0
      000000BEH   SFRSYM    DATA     BYTE      BUZDIV
      00000098H.6 SFRSYM    DATA     BIT       U0SM1
      00000088H.6 SFRSYM    DATA     BIT       TR1
      000000B8H   SFRSYM    DATA     BIT       PX0
      00000098H.5 SFRSYM    DATA     BIT       U0SM2
      000000B8H.2 SFRSYM    DATA     BIT       PX1
      000000BDH   SFRSYM    DATA     BYTE      WUTCRH
      00000099H   SFRSYM    DATA     BYTE      SBUF0
      000000EBH   SFRSYM    DATA     BYTE      SBUF1
LX51 LINKER/LOCATER V4.66.1.0                                                         09/07/2023  18:22:32  PAGE 107


      000000BCH   SFRSYM    DATA     BYTE      WUTCRL
      00000098H   SFRSYM    DATA     BYTE      SCON0
      000000EAH   SFRSYM    DATA     BYTE      SCON1
      000000C8H   SFRSYM    DATA     BYTE      T2CON
      00000086H   SFRSYM    DATA     BYTE      DPS
      000000FEH   SFRSYM    DATA     BYTE      MDATA
      000000F6H   SFRSYM    DATA     BYTE      I2CMBUF
      000000F1H   SFRSYM    DATA     BYTE      I2CSADR
      00000098H.4 SFRSYM    DATA     BIT       U0REN
      000000C8H.5 SFRSYM    DATA     BIT       CAPES
      000000FDH   SFRSYM    DATA     BYTE      MADRH
      0000008EH   SFRSYM    DATA     BYTE      CKCON
      000000F3H   SFRSYM    DATA     BYTE      I2CSBUF
      000000FCH   SFRSYM    DATA     BYTE      MADRL
      000000D0H.5 SFRSYM    DATA     BIT       F0
      000000FBH   SFRSYM    DATA     BYTE      MLOCK
      000000D0H   SFRSYM    DATA     BYTE      PSW
      00000097H   SFRSYM    DATA     BYTE      WDCON

      01001F29H   BLOCK     CODE     ---       LVL=0
      01001F29H   LINE      CODE     ---       #67
      01001F29H   LINE      CODE     ---       #68
      01001F29H   LINE      CODE     ---       #69
      01001F2CH   LINE      CODE     ---       #70
      ---         BLOCKEND  ---      ---       LVL=0

      01001F2DH   BLOCK     CODE     ---       LVL=0
      01001F2DH   LINE      CODE     ---       #78
      01001F2DH   LINE      CODE     ---       #79
      01001F2DH   LINE      CODE     ---       #80
      01001F30H   LINE      CODE     ---       #81
      ---         BLOCKEND  ---      ---       LVL=0

      01001CFAH   BLOCK     CODE     ---       LVL=0
      00000007H   SYMBOL    DATA     BYTE      SPIClkDiv
      01001CFAH   BLOCK     CODE     NEAR LAB  LVL=1
      00000006H   SYMBOL    DATA     BYTE      Temp
      ---         BLOCKEND  ---      ---       LVL=1
      01001CFAH   LINE      CODE     ---       #89
      01001CFAH   LINE      CODE     ---       #90
      01001CFAH   LINE      CODE     ---       #91
      01001CFAH   LINE      CODE     ---       #93
      01001CFCH   LINE      CODE     ---       #94
      01001CFFH   LINE      CODE     ---       #95
      01001D02H   LINE      CODE     ---       #96
      01001D04H   LINE      CODE     ---       #97
      ---         BLOCKEND  ---      ---       LVL=0

      01001844H   BLOCK     CODE     ---       LVL=0
      00000007H   SYMBOL    DATA     BYTE      ClkPositive
      00000005H   SYMBOL    DATA     BYTE      ClkPhash
      00000003H   SYMBOL    DATA     BYTE      NSSMode
      01001844H   BLOCK     CODE     NEAR LAB  LVL=1
      00000006H   SYMBOL    DATA     BYTE      Temp
      ---         BLOCKEND  ---      ---       LVL=1
      01001844H   LINE      CODE     ---       #113
      01001844H   LINE      CODE     ---       #114
      01001844H   LINE      CODE     ---       #115
      01001844H   LINE      CODE     ---       #117
      01001846H   LINE      CODE     ---       #118
      01001849H   LINE      CODE     ---       #119
      0100184DH   LINE      CODE     ---       #120
      0100184FH   LINE      CODE     ---       #122
      01001851H   LINE      CODE     ---       #123
      01001854H   LINE      CODE     ---       #124
LX51 LINKER/LOCATER V4.66.1.0                                                         09/07/2023  18:22:32  PAGE 108


      01001857H   LINE      CODE     ---       #125
      01001859H   LINE      CODE     ---       #126
      ---         BLOCKEND  ---      ---       LVL=0

      01001F31H   BLOCK     CODE     ---       LVL=0
      01001F31H   LINE      CODE     ---       #135
      01001F31H   LINE      CODE     ---       #136
      01001F31H   LINE      CODE     ---       #137
      01001F34H   LINE      CODE     ---       #138
      ---         BLOCKEND  ---      ---       LVL=0

      01001F35H   BLOCK     CODE     ---       LVL=0
      01001F35H   LINE      CODE     ---       #146
      01001F35H   LINE      CODE     ---       #147
      01001F35H   LINE      CODE     ---       #148
      01001F38H   LINE      CODE     ---       #149
      ---         BLOCKEND  ---      ---       LVL=0

      01001F39H   BLOCK     CODE     ---       LVL=0
      01001F39H   LINE      CODE     ---       #157
      01001F39H   LINE      CODE     ---       #158
      01001F39H   LINE      CODE     ---       #159
      01001F3CH   LINE      CODE     ---       #161
      ---         BLOCKEND  ---      ---       LVL=0

      01001F3DH   BLOCK     CODE     ---       LVL=0
      01001F3DH   LINE      CODE     ---       #169
      01001F3DH   LINE      CODE     ---       #170
      01001F3DH   LINE      CODE     ---       #171
      01001F40H   LINE      CODE     ---       #172
      ---         BLOCKEND  ---      ---       LVL=0

      01001D95H   BLOCK     CODE     ---       LVL=0
      01001D95H   LINE      CODE     ---       #182
      01001D95H   LINE      CODE     ---       #184
      01001D95H   LINE      CODE     ---       #185
      01001D9EH   LINE      CODE     ---       #186
      ---         BLOCKEND  ---      ---       LVL=0

      01000006H   BLOCK     CODE     ---       LVL=0
      01000006H   BLOCK     CODE     NEAR LAB  LVL=1
      00000007H   SYMBOL    DATA     BYTE      temp
      ---         BLOCKEND  ---      ---       LVL=1
      01000006H   LINE      CODE     ---       #194
      01000006H   LINE      CODE     ---       #195
      01000006H   LINE      CODE     ---       #197
      01000008H   LINE      CODE     ---       #198
      0100000AH   LINE      CODE     ---       #199
      ---         BLOCKEND  ---      ---       LVL=0

      01001D9FH   BLOCK     CODE     ---       LVL=0
      01001D9FH   LINE      CODE     ---       #207
      01001D9FH   LINE      CODE     ---       #208
      01001D9FH   LINE      CODE     ---       #209
      01001DA8H   LINE      CODE     ---       #210
      ---         BLOCKEND  ---      ---       LVL=0

      0100000EH   BLOCK     CODE     ---       LVL=0
      0100000EH   BLOCK     CODE     NEAR LAB  LVL=1
      00000007H   SYMBOL    DATA     BYTE      temp
      ---         BLOCKEND  ---      ---       LVL=1
      0100000EH   LINE      CODE     ---       #218
      0100000EH   LINE      CODE     ---       #219
      0100000EH   LINE      CODE     ---       #221
      01000010H   LINE      CODE     ---       #222
LX51 LINKER/LOCATER V4.66.1.0                                                         09/07/2023  18:22:32  PAGE 109


      01000012H   LINE      CODE     ---       #223
      ---         BLOCKEND  ---      ---       LVL=0

      01001F41H   BLOCK     CODE     ---       LVL=0
      01001F41H   LINE      CODE     ---       #231
      01001F41H   LINE      CODE     ---       #232
      01001F41H   LINE      CODE     ---       #233
      01001F44H   LINE      CODE     ---       #234
      ---         BLOCKEND  ---      ---       LVL=0

      01001F45H   BLOCK     CODE     ---       LVL=0
      01001F45H   LINE      CODE     ---       #242
      01001F45H   LINE      CODE     ---       #243
      01001F45H   LINE      CODE     ---       #244
      01001F48H   LINE      CODE     ---       #245
      ---         BLOCKEND  ---      ---       LVL=0

      ---         MODULE    ---      ---       SYSTEM
      01001A41H   PUBLIC    CODE     ---       _SYS_ConfigWUTTime
      01001B1EH   PUBLIC    CODE     ---       _SYS_ConfigWUTCLK
      01001F59H   PUBLIC    CODE     ---       SYS_DisableWakeUpTrig
      01001F55H   PUBLIC    CODE     ---       SYS_EnableWakeUpTrig
      01001C95H   PUBLIC    CODE     ---       SYS_EnterIdle
      01001C89H   PUBLIC    CODE     ---       SYS_EnterStop
      01001F51H   PUBLIC    CODE     ---       SYS_DisableWakeUp
      01001F4DH   PUBLIC    CODE     ---       SYS_EnableWakeUp
      01001F49H   PUBLIC    CODE     ---       SYS_ClearPowerOnResetFlag
      01001DB3H   PUBLIC    CODE     ---       SYS_GetPowerOnResetFlag
      01001760H   PUBLIC    CODE     ---       SYS_DisableSoftwareReset
      01001745H   PUBLIC    CODE     ---       SYS_EnableSoftwareReset
      0100172AH   PUBLIC    CODE     ---       SYS_ClearWDTResetFlag
      01001DA9H   PUBLIC    CODE     ---       SYS_GetWDTResetFlag
      0100170FH   PUBLIC    CODE     ---       SYS_DisableWDTReset
      010016F4H   PUBLIC    CODE     ---       SYS_EnableWDTReset
      01001ED0H   PUBLIC    CODE     ---       SYS_ClearLVDIntFlag
      01001C7DH   PUBLIC    CODE     ---       SYS_GetLVDIntFlag
      01001EC8H   PUBLIC    CODE     ---       SYS_DisableLVDInt
      01001EC0H   PUBLIC    CODE     ---       SYS_EnableLVDInt
      01001B10H   PUBLIC    CODE     ---       _SYS_ConfigLVD
      01001EB8H   PUBLIC    CODE     ---       SYS_DisableLVD
      01001EB0H   PUBLIC    CODE     ---       SYS_EnableLVD
      000000C8H   SFRSYM    DATA     BIT       T2I0
      000000C3H   SFRSYM    DATA     BYTE      CCH1
      00000080H   SFRSYM    DATA     BYTE      P0
      000000C8H.1 SFRSYM    DATA     BIT       T2I1
      000000C5H   SFRSYM    DATA     BYTE      CCH2
      00000090H   SFRSYM    DATA     BYTE      P1
      000000C7H   SFRSYM    DATA     BYTE      CCH3
      000000ACH   SFRSYM    DATA     BYTE      P0EXTIE
      000000A0H   SFRSYM    DATA     BYTE      P2
      000000B4H   SFRSYM    DATA     BYTE      P0EXTIF
      000000B0H   SFRSYM    DATA     BYTE      P3
      000000ADH   SFRSYM    DATA     BYTE      P1EXTIE
      000000D0H.6 SFRSYM    DATA     BIT       AC
      000000FFH   SFRSYM    DATA     BYTE      MCTRL
      000000C2H   SFRSYM    DATA     BYTE      CCL1
      000000B5H   SFRSYM    DATA     BYTE      P1EXTIF
      000000AEH   SFRSYM    DATA     BYTE      P2EXTIE
      000000C4H   SFRSYM    DATA     BYTE      CCL2
      000000B6H   SFRSYM    DATA     BYTE      P2EXTIF
      000000AFH   SFRSYM    DATA     BYTE      P3EXTIE
      000000A8H.7 SFRSYM    DATA     BIT       EA
      000000C6H   SFRSYM    DATA     BYTE      CCL3
      000000B7H   SFRSYM    DATA     BYTE      P3EXTIF
      000000AAH   SFRSYM    DATA     BYTE      EIE2
LX51 LINKER/LOCATER V4.66.1.0                                                         09/07/2023  18:22:32  PAGE 110


      000000B2H   SFRSYM    DATA     BYTE      EIF2
      000000C8H.3 SFRSYM    DATA     BIT       T2R0
      000000C8H.4 SFRSYM    DATA     BIT       T2R1
      00000083H   SFRSYM    DATA     BYTE      DPH0
      000000A8H   SFRSYM    DATA     BYTE      IE
      00000085H   SFRSYM    DATA     BYTE      DPH1
      000000B9H   SFRSYM    DATA     BYTE      EIP1
      000000BAH   SFRSYM    DATA     BYTE      EIP2
      00000082H   SFRSYM    DATA     BYTE      DPL0
      00000084H   SFRSYM    DATA     BYTE      DPL1
      000000C8H.6 SFRSYM    DATA     BIT       I3FR
      000000CFH   SFRSYM    DATA     BYTE      T2IE
      00000096H   SFRSYM    DATA     BYTE      TA
      000000C9H   SFRSYM    DATA     BYTE      T2IF
      000000C8H.2 SFRSYM    DATA     BIT       T2CM
      000000DFH   SFRSYM    DATA     BYTE      ADCON0
      000000DEH   SFRSYM    DATA     BYTE      ADCON1
      000000E9H   SFRSYM    DATA     BYTE      ADCON2
      000000B8H   SFRSYM    DATA     BYTE      IP
      000000CEH   SFRSYM    DATA     BYTE      CCEN
      000000D0H.7 SFRSYM    DATA     BIT       CY
      000000D2H   SFRSYM    DATA     BYTE      T34MOD
      00000093H   SFRSYM    DATA     BYTE      DPX0
      00000095H   SFRSYM    DATA     BYTE      DPX1
      000000F4H   SFRSYM    DATA     BYTE      I2CMSA
      000000F5H   SFRSYM    DATA     BYTE      I2CMCR
      00000081H   SFRSYM    DATA     BYTE      SP
      000000D0H.2 SFRSYM    DATA     BIT       OV
      000000F2H   SFRSYM    DATA     BYTE      I2CSCR
      000000C8H.7 SFRSYM    DATA     BIT       T2PS
      000000D1H   SFRSYM    DATA     BYTE      ADCMPC
      000000CBH   SFRSYM    DATA     BYTE      RLDH
      000000D5H   SFRSYM    DATA     BYTE      ADCMPH
      000000CAH   SFRSYM    DATA     BYTE      RLDL
      00000080H   SFRSYM    DATA     BIT       P00
      00000090H   SFRSYM    DATA     BIT       P10
      00000080H.1 SFRSYM    DATA     BIT       P01
      000000F7H   SFRSYM    DATA     BYTE      I2CMTP
      00000099H   SFRSYM    DATA     BYTE      SBUF
      00000087H   SFRSYM    DATA     BYTE      PCON
      000000A0H   SFRSYM    DATA     BIT       P20
      00000090H.1 SFRSYM    DATA     BIT       P11
      00000080H.2 SFRSYM    DATA     BIT       P02
      000000F5H   SFRSYM    DATA     BYTE      I2CMSR
      000000B0H   SFRSYM    DATA     BIT       P30
      000000A0H.1 SFRSYM    DATA     BIT       P21
      00000090H.2 SFRSYM    DATA     BIT       P12
      00000080H.3 SFRSYM    DATA     BIT       P03
      000000D4H   SFRSYM    DATA     BYTE      ADCMPL
      000000B0H.1 SFRSYM    DATA     BIT       P31
      000000A0H.2 SFRSYM    DATA     BIT       P22
      00000090H.3 SFRSYM    DATA     BIT       P13
      00000080H.4 SFRSYM    DATA     BIT       P04
      000000B0H.2 SFRSYM    DATA     BIT       P32
      000000A0H.3 SFRSYM    DATA     BIT       P23
      00000090H.4 SFRSYM    DATA     BIT       P14
      00000080H.5 SFRSYM    DATA     BIT       P05
      00000089H   SFRSYM    DATA     BYTE      TMOD
      00000088H   SFRSYM    DATA     BYTE      TCON
      000000B0H.3 SFRSYM    DATA     BIT       P33
      000000A0H.4 SFRSYM    DATA     BIT       P24
      00000090H.5 SFRSYM    DATA     BIT       P15
      00000080H.6 SFRSYM    DATA     BIT       P06
      000000B0H.4 SFRSYM    DATA     BIT       P34
      000000A0H.5 SFRSYM    DATA     BIT       P25
LX51 LINKER/LOCATER V4.66.1.0                                                         09/07/2023  18:22:32  PAGE 111


      00000090H.6 SFRSYM    DATA     BIT       P16
      00000080H.7 SFRSYM    DATA     BIT       P07
      000000B0H.5 SFRSYM    DATA     BIT       P35
      000000A0H.6 SFRSYM    DATA     BIT       P26
      00000090H.7 SFRSYM    DATA     BIT       P17
      000000F2H   SFRSYM    DATA     BYTE      I2CSSR
      000000B0H.6 SFRSYM    DATA     BIT       P36
      000000A0H.7 SFRSYM    DATA     BIT       P27
      000000ECH   SFRSYM    DATA     BYTE      SPCR
      000000DDH   SFRSYM    DATA     BYTE      ADRESH
      000000B0H.7 SFRSYM    DATA     BIT       P37
      000000EEH   SFRSYM    DATA     BYTE      SPDR
      000000EFH   SFRSYM    DATA     BYTE      SSCR
      000000D3H   SFRSYM    DATA     BYTE      ADDLYL
      000000DCH   SFRSYM    DATA     BYTE      ADRESL
      00000088H.1 SFRSYM    DATA     BIT       IE0
      00000088H.3 SFRSYM    DATA     BIT       IE1
      0000008FH   SFRSYM    DATA     BYTE      CLKDIV
      000000F0H   SFRSYM    DATA     BYTE      B
      00000091H   SFRSYM    DATA     BYTE      FUNCCR
      0000009AH   SFRSYM    DATA     BYTE      P0TRIS
      000000A1H   SFRSYM    DATA     BYTE      P1TRIS
      000000A2H   SFRSYM    DATA     BYTE      P2TRIS
      000000E0H   SFRSYM    DATA     BYTE      ACC
      000000A3H   SFRSYM    DATA     BYTE      P3TRIS
      000000A8H.4 SFRSYM    DATA     BIT       ES0
      000000A8H.6 SFRSYM    DATA     BIT       ES1
      000000A8H.1 SFRSYM    DATA     BIT       ET0
      000000EDH   SFRSYM    DATA     BYTE      SPSR
      000000A8H.3 SFRSYM    DATA     BIT       ET1
      00000088H.5 SFRSYM    DATA     BIT       TF0
      000000A8H.5 SFRSYM    DATA     BIT       ET2
      00000098H   SFRSYM    DATA     BIT       RI0
      00000088H.7 SFRSYM    DATA     BIT       TF1
      0000008CH   SFRSYM    DATA     BYTE      TH0
      000000A8H   SFRSYM    DATA     BIT       EX0
      00000098H.1 SFRSYM    DATA     BIT       TI0
      00000088H   SFRSYM    DATA     BIT       IT0
      0000008DH   SFRSYM    DATA     BYTE      TH1
      000000A8H.2 SFRSYM    DATA     BIT       EX1
      00000088H.2 SFRSYM    DATA     BIT       IT1
      000000CDH   SFRSYM    DATA     BYTE      TH2
      000000D0H   SFRSYM    DATA     BIT       P
      000000DBH   SFRSYM    DATA     BYTE      TH3
      000000E3H   SFRSYM    DATA     BYTE      TH4
      0000008AH   SFRSYM    DATA     BYTE      TL0
      0000008BH   SFRSYM    DATA     BYTE      TL1
      00000098H.2 SFRSYM    DATA     BIT       U0RB8
      000000CCH   SFRSYM    DATA     BYTE      TL2
      000000B8H.4 SFRSYM    DATA     BIT       PS0
      000000DAH   SFRSYM    DATA     BYTE      TL3
      000000BFH   SFRSYM    DATA     BYTE      BUZCON
      000000B8H.6 SFRSYM    DATA     BIT       PS1
      000000B8H.1 SFRSYM    DATA     BIT       PT0
      00000098H.3 SFRSYM    DATA     BIT       U0TB8
      000000E2H   SFRSYM    DATA     BYTE      TL4
      000000D0H.3 SFRSYM    DATA     BIT       RS0
      000000B8H.3 SFRSYM    DATA     BIT       PT1
      000000D0H.4 SFRSYM    DATA     BIT       RS1
      000000B8H.5 SFRSYM    DATA     BIT       PT2
      00000098H.7 SFRSYM    DATA     BIT       U0SM0
      00000088H.4 SFRSYM    DATA     BIT       TR0
      000000BEH   SFRSYM    DATA     BYTE      BUZDIV
      00000098H.6 SFRSYM    DATA     BIT       U0SM1
      00000088H.6 SFRSYM    DATA     BIT       TR1
LX51 LINKER/LOCATER V4.66.1.0                                                         09/07/2023  18:22:32  PAGE 112


      000000B8H   SFRSYM    DATA     BIT       PX0
      00000098H.5 SFRSYM    DATA     BIT       U0SM2
      000000B8H.2 SFRSYM    DATA     BIT       PX1
      000000BDH   SFRSYM    DATA     BYTE      WUTCRH
      00000099H   SFRSYM    DATA     BYTE      SBUF0
      000000EBH   SFRSYM    DATA     BYTE      SBUF1
      000000BCH   SFRSYM    DATA     BYTE      WUTCRL
      00000098H   SFRSYM    DATA     BYTE      SCON0
      000000EAH   SFRSYM    DATA     BYTE      SCON1
      000000C8H   SFRSYM    DATA     BYTE      T2CON
      00000086H   SFRSYM    DATA     BYTE      DPS
      000000FEH   SFRSYM    DATA     BYTE      MDATA
      000000F6H   SFRSYM    DATA     BYTE      I2CMBUF
      000000F1H   SFRSYM    DATA     BYTE      I2CSADR
      00000098H.4 SFRSYM    DATA     BIT       U0REN
      000000C8H.5 SFRSYM    DATA     BIT       CAPES
      000000FDH   SFRSYM    DATA     BYTE      MADRH
      0000008EH   SFRSYM    DATA     BYTE      CKCON
      000000F3H   SFRSYM    DATA     BYTE      I2CSBUF
      000000FCH   SFRSYM    DATA     BYTE      MADRL
      000000D0H.5 SFRSYM    DATA     BIT       F0
      000000FBH   SFRSYM    DATA     BYTE      MLOCK
      000000D0H   SFRSYM    DATA     BYTE      PSW
      00000097H   SFRSYM    DATA     BYTE      WDCON

      01001EB0H   BLOCK     CODE     ---       LVL=0
      01001EB0H   LINE      CODE     ---       #68
      01001EB0H   LINE      CODE     ---       #69
      01001EB0H   LINE      CODE     ---       #70
      01001EB7H   LINE      CODE     ---       #71
      ---         BLOCKEND  ---      ---       LVL=0

      01001EB8H   BLOCK     CODE     ---       LVL=0
      01001EB8H   LINE      CODE     ---       #79
      01001EB8H   LINE      CODE     ---       #80
      01001EB8H   LINE      CODE     ---       #81
      01001EBFH   LINE      CODE     ---       #82
      ---         BLOCKEND  ---      ---       LVL=0

      01001B10H   BLOCK     CODE     ---       LVL=0
      00000007H   SYMBOL    DATA     BYTE      LVDValue
      01001B10H   BLOCK     CODE     NEAR LAB  LVL=1
      00000006H   SYMBOL    DATA     BYTE      Temp
      ---         BLOCKEND  ---      ---       LVL=1
      01001B10H   LINE      CODE     ---       #97
      01001B10H   LINE      CODE     ---       #98
      01001B10H   LINE      CODE     ---       #99
      01001B10H   LINE      CODE     ---       #101
      01001B15H   LINE      CODE     ---       #102
      01001B18H   LINE      CODE     ---       #103
      01001B1BH   LINE      CODE     ---       #104
      01001B1DH   LINE      CODE     ---       #105
      ---         BLOCKEND  ---      ---       LVL=0

      01001EC0H   BLOCK     CODE     ---       LVL=0
      01001EC0H   LINE      CODE     ---       #114
      01001EC0H   LINE      CODE     ---       #115
      01001EC0H   LINE      CODE     ---       #116
      01001EC7H   LINE      CODE     ---       #117
      ---         BLOCKEND  ---      ---       LVL=0

      01001EC8H   BLOCK     CODE     ---       LVL=0
      01001EC8H   LINE      CODE     ---       #125
      01001EC8H   LINE      CODE     ---       #126
      01001EC8H   LINE      CODE     ---       #127
LX51 LINKER/LOCATER V4.66.1.0                                                         09/07/2023  18:22:32  PAGE 113


      01001ECFH   LINE      CODE     ---       #128
      ---         BLOCKEND  ---      ---       LVL=0

      01001C7DH   BLOCK     CODE     ---       LVL=0
      01001C7DH   LINE      CODE     ---       #137
      01001C7DH   LINE      CODE     ---       #138
      01001C7DH   LINE      CODE     ---       #139
      01001C88H   LINE      CODE     ---       #140
      ---         BLOCKEND  ---      ---       LVL=0

      01001ED0H   BLOCK     CODE     ---       LVL=0
      01001ED0H   LINE      CODE     ---       #149
      01001ED0H   LINE      CODE     ---       #150
      01001ED0H   LINE      CODE     ---       #151
      01001ED7H   LINE      CODE     ---       #152
      ---         BLOCKEND  ---      ---       LVL=0

      010016F4H   BLOCK     CODE     ---       LVL=0
      010016F4H   LINE      CODE     ---       #163
      010016F4H   LINE      CODE     ---       #164
      010016F4H   LINE      CODE     ---       #165
      010016F7H   LINE      CODE     ---       #166
      010016F7H   LINE      CODE     ---       #167
      010016F9H   LINE      CODE     ---       #168
      010016FCH   LINE      CODE     ---       #169
      010016FFH   LINE      CODE     ---       #170
      01001702H   LINE      CODE     ---       #171
      01001704H   LINE      CODE     ---       #172
      01001705H   LINE      CODE     ---       #174
      01001705H   LINE      CODE     ---       #175
      01001708H   LINE      CODE     ---       #176
      0100170BH   LINE      CODE     ---       #177
      0100170EH   LINE      CODE     ---       #178
      0100170EH   LINE      CODE     ---       #179
      ---         BLOCKEND  ---      ---       LVL=0

      0100170FH   BLOCK     CODE     ---       LVL=0
      0100170FH   LINE      CODE     ---       #188
      0100170FH   LINE      CODE     ---       #189
      0100170FH   LINE      CODE     ---       #190
      01001712H   LINE      CODE     ---       #191
      01001712H   LINE      CODE     ---       #192
      01001714H   LINE      CODE     ---       #193
      01001717H   LINE      CODE     ---       #194
      0100171AH   LINE      CODE     ---       #195
      0100171DH   LINE      CODE     ---       #196
      0100171FH   LINE      CODE     ---       #197
      01001720H   LINE      CODE     ---       #199
      01001720H   LINE      CODE     ---       #200
      01001723H   LINE      CODE     ---       #201
      01001726H   LINE      CODE     ---       #202
      01001729H   LINE      CODE     ---       #203
      01001729H   LINE      CODE     ---       #204
      ---         BLOCKEND  ---      ---       LVL=0

      01001DA9H   BLOCK     CODE     ---       LVL=0
      01001DA9H   LINE      CODE     ---       #213
      01001DA9H   LINE      CODE     ---       #214
      01001DA9H   LINE      CODE     ---       #215
      01001DB2H   LINE      CODE     ---       #216
      ---         BLOCKEND  ---      ---       LVL=0

      0100172AH   BLOCK     CODE     ---       LVL=0
      0100172AH   LINE      CODE     ---       #225
      0100172AH   LINE      CODE     ---       #226
LX51 LINKER/LOCATER V4.66.1.0                                                         09/07/2023  18:22:32  PAGE 114


      0100172AH   LINE      CODE     ---       #227
      0100172DH   LINE      CODE     ---       #228
      0100172DH   LINE      CODE     ---       #229
      0100172FH   LINE      CODE     ---       #230
      01001732H   LINE      CODE     ---       #231
      01001735H   LINE      CODE     ---       #232
      01001738H   LINE      CODE     ---       #233
      0100173AH   LINE      CODE     ---       #234
      0100173BH   LINE      CODE     ---       #236
      0100173BH   LINE      CODE     ---       #237
      0100173EH   LINE      CODE     ---       #238
      01001741H   LINE      CODE     ---       #239
      01001744H   LINE      CODE     ---       #241
      01001744H   LINE      CODE     ---       #242
      ---         BLOCKEND  ---      ---       LVL=0

      01001745H   BLOCK     CODE     ---       LVL=0
      01001745H   LINE      CODE     ---       #252
      01001745H   LINE      CODE     ---       #253
      01001745H   LINE      CODE     ---       #254
      01001748H   LINE      CODE     ---       #255
      01001748H   LINE      CODE     ---       #256
      0100174AH   LINE      CODE     ---       #257
      0100174DH   LINE      CODE     ---       #258
      01001750H   LINE      CODE     ---       #259
      01001753H   LINE      CODE     ---       #260
      01001755H   LINE      CODE     ---       #261
      01001756H   LINE      CODE     ---       #263
      01001756H   LINE      CODE     ---       #264
      01001759H   LINE      CODE     ---       #265
      0100175CH   LINE      CODE     ---       #266
      0100175FH   LINE      CODE     ---       #267
      0100175FH   LINE      CODE     ---       #268
      ---         BLOCKEND  ---      ---       LVL=0

      01001760H   BLOCK     CODE     ---       LVL=0
      01001760H   LINE      CODE     ---       #277
      01001760H   LINE      CODE     ---       #278
      01001760H   LINE      CODE     ---       #279
      01001763H   LINE      CODE     ---       #280
      01001763H   LINE      CODE     ---       #281
      01001765H   LINE      CODE     ---       #282
      01001768H   LINE      CODE     ---       #283
      0100176BH   LINE      CODE     ---       #284
      0100176EH   LINE      CODE     ---       #285
      01001770H   LINE      CODE     ---       #286
      01001771H   LINE      CODE     ---       #288
      01001771H   LINE      CODE     ---       #289
      01001774H   LINE      CODE     ---       #290
      01001777H   LINE      CODE     ---       #291
      0100177AH   LINE      CODE     ---       #292
      0100177AH   LINE      CODE     ---       #293
      ---         BLOCKEND  ---      ---       LVL=0

      01001DB3H   BLOCK     CODE     ---       LVL=0
      01001DB3H   LINE      CODE     ---       #302
      01001DB3H   LINE      CODE     ---       #303
      01001DB3H   LINE      CODE     ---       #304
      01001DBCH   LINE      CODE     ---       #305
      ---         BLOCKEND  ---      ---       LVL=0

      01001F49H   BLOCK     CODE     ---       LVL=0
      01001F49H   LINE      CODE     ---       #314
      01001F49H   LINE      CODE     ---       #315
      01001F49H   LINE      CODE     ---       #316
LX51 LINKER/LOCATER V4.66.1.0                                                         09/07/2023  18:22:32  PAGE 115


      01001F4CH   LINE      CODE     ---       #317
      ---         BLOCKEND  ---      ---       LVL=0

      01001F4DH   BLOCK     CODE     ---       LVL=0
      01001F4DH   LINE      CODE     ---       #328
      01001F4DH   LINE      CODE     ---       #329
      01001F4DH   LINE      CODE     ---       #330
      01001F50H   LINE      CODE     ---       #331
      ---         BLOCKEND  ---      ---       LVL=0

      01001F51H   BLOCK     CODE     ---       LVL=0
      01001F51H   LINE      CODE     ---       #340
      01001F51H   LINE      CODE     ---       #341
      01001F51H   LINE      CODE     ---       #342
      01001F54H   LINE      CODE     ---       #343
      ---         BLOCKEND  ---      ---       LVL=0

      01001C89H   BLOCK     CODE     ---       LVL=0
      01001C89H   LINE      CODE     ---       #353
      01001C89H   LINE      CODE     ---       #354
      01001C89H   LINE      CODE     ---       #355
      01001C8AH   LINE      CODE     ---       #356
      01001C8BH   LINE      CODE     ---       #357
      01001C8EH   LINE      CODE     ---       #358
      01001C8FH   LINE      CODE     ---       #359
      01001C90H   LINE      CODE     ---       #360
      01001C91H   LINE      CODE     ---       #361
      01001C92H   LINE      CODE     ---       #362
      01001C93H   LINE      CODE     ---       #363
      01001C94H   LINE      CODE     ---       #364
      ---         BLOCKEND  ---      ---       LVL=0

      01001C95H   BLOCK     CODE     ---       LVL=0
      01001C95H   LINE      CODE     ---       #373
      01001C95H   LINE      CODE     ---       #374
      01001C95H   LINE      CODE     ---       #375
      01001C96H   LINE      CODE     ---       #376
      01001C97H   LINE      CODE     ---       #377
      01001C9AH   LINE      CODE     ---       #378
      01001C9BH   LINE      CODE     ---       #379
      01001C9CH   LINE      CODE     ---       #380
      01001C9DH   LINE      CODE     ---       #381
      01001C9EH   LINE      CODE     ---       #382
      01001C9FH   LINE      CODE     ---       #383
      01001CA0H   LINE      CODE     ---       #384
      ---         BLOCKEND  ---      ---       LVL=0

      01001F55H   BLOCK     CODE     ---       LVL=0
      01001F55H   LINE      CODE     ---       #394
      01001F55H   LINE      CODE     ---       #395
      01001F55H   LINE      CODE     ---       #396
      01001F58H   LINE      CODE     ---       #398
      ---         BLOCKEND  ---      ---       LVL=0

      01001F59H   BLOCK     CODE     ---       LVL=0
      01001F59H   LINE      CODE     ---       #407
      01001F59H   LINE      CODE     ---       #408
      01001F59H   LINE      CODE     ---       #409
      01001F5CH   LINE      CODE     ---       #410
      ---         BLOCKEND  ---      ---       LVL=0

      01001B1EH   BLOCK     CODE     ---       LVL=0
      00000007H   SYMBOL    DATA     BYTE      clkdiv
      01001B1EH   BLOCK     CODE     NEAR LAB  LVL=1
      00000006H   SYMBOL    DATA     BYTE      Temp
LX51 LINKER/LOCATER V4.66.1.0                                                         09/07/2023  18:22:32  PAGE 116


      ---         BLOCKEND  ---      ---       LVL=1
      01001B1EH   LINE      CODE     ---       #422
      01001B1EH   LINE      CODE     ---       #423
      01001B1EH   LINE      CODE     ---       #424
      01001B1EH   LINE      CODE     ---       #426
      01001B20H   LINE      CODE     ---       #427
      01001B23H   LINE      CODE     ---       #428
      01001B29H   LINE      CODE     ---       #429
      01001B2BH   LINE      CODE     ---       #430
      ---         BLOCKEND  ---      ---       LVL=0

      01001A41H   BLOCK     CODE     ---       LVL=0
      00000004H   SYMBOL    DATA     WORD      time
      01001A45H   BLOCK     CODE     NEAR LAB  LVL=1
      00000003H   SYMBOL    DATA     BYTE      Temp
      ---         BLOCKEND  ---      ---       LVL=1
      01001A41H   LINE      CODE     ---       #439
      01001A45H   LINE      CODE     ---       #440
      01001A45H   LINE      CODE     ---       #441
      01001A45H   LINE      CODE     ---       #443
      01001A47H   LINE      CODE     ---       #444
      01001A4AH   LINE      CODE     ---       #445
      01001A4DH   LINE      CODE     ---       #446
      01001A4FH   LINE      CODE     ---       #448
      01001A51H   LINE      CODE     ---       #449
      ---         BLOCKEND  ---      ---       LVL=0

      ---         MODULE    ---      ---       TIMER
      01001F79H   PUBLIC    CODE     ---       TMR2_Stop
      01001DD1H   PUBLIC    CODE     ---       TMR2_Start
      01001F8EH   PUBLIC    CODE     ---       TMR2_AllIntDisable
      01001F8BH   PUBLIC    CODE     ---       TMR2_AllIntEnable
      01001AACH   PUBLIC    CODE     ---       _TMR2_ClearCaptureIntFlag
      01001687H   PUBLIC    CODE     ---       _TMR2_GetCaptureIntFlag
      01001A9DH   PUBLIC    CODE     ---       _TMR2_DisableCaptureInt
      01001B3AH   PUBLIC    CODE     ---       _TMR2_EnableCaptureInt
      01001A8EH   PUBLIC    CODE     ---       _TMR2_ClearCompareIntFlag
      0100166BH   PUBLIC    CODE     ---       _TMR2_GetCompareIntFlag
      01001A7FH   PUBLIC    CODE     ---       _TMR2_DisableCompareInt
      01001B2CH   PUBLIC    CODE     ---       _TMR2_EnableCompareInt
      01001F75H   PUBLIC    CODE     ---       TMR2_ClearT2EXIntFlag
      01001DC7H   PUBLIC    CODE     ---       TMR2_GetT2EXIntFlag
      01001F71H   PUBLIC    CODE     ---       TMR2_DisableT2EXInt
      01001F6DH   PUBLIC    CODE     ---       TMR2_EnableT2EXInt
      01001F69H   PUBLIC    CODE     ---       TMR2_ClearOverflowIntFlag
      01001DBDH   PUBLIC    CODE     ---       TMR2_GetOverflowIntFlag
      01001F65H   PUBLIC    CODE     ---       TMR2_DisableOverflowInt
      01001F61H   PUBLIC    CODE     ---       TMR2_EnableOverflowInt
      01000F7DH   PUBLIC    CODE     ---       _TMR2_GetCaptureValue
      010017FCH   PUBLIC    CODE     ---       _TMR2_DisableCapture
      01000B97H   PUBLIC    CODE     ---       _TMR2_EnableCapture
      01001D1BH   PUBLIC    CODE     ---       _TMR2_ConfigCompareIntMode
      01001580H   PUBLIC    CODE     ---       _TMR2_ConfigCompareValue
      010017E3H   PUBLIC    CODE     ---       _TMR2_DisableCompare
      010010CCH   PUBLIC    CODE     ---       _TMR2_EnableCompare
      01001D10H   PUBLIC    CODE     ---       TMR2_DisableGATE
      01001F5DH   PUBLIC    CODE     ---       TMR2_EnableGATE
      01001561H   PUBLIC    CODE     ---       _TMR2_ConfigTimerPeriod
      01001D05H   PUBLIC    CODE     ---       _TMR2_ConfigTimerClk
      01001CA1H   PUBLIC    CODE     ---       _TMR2_ConfigRunMode
      01001542H   PUBLIC    CODE     ---       _TMR_Stop
      01001523H   PUBLIC    CODE     ---       _TMR_Start
      01001615H   PUBLIC    CODE     ---       _TMR_ClearOverflowIntFlag
      01001099H   PUBLIC    CODE     ---       _TMR_GetOverflowIntFlag
      010015F8H   PUBLIC    CODE     ---       _TMR_DisableOverflowInt
LX51 LINKER/LOCATER V4.66.1.0                                                         09/07/2023  18:22:32  PAGE 117


      010015DBH   PUBLIC    CODE     ---       _TMR_EnableOverflowInt
      01000F39H   PUBLIC    CODE     ---       _TMR_GetCountValue
      01001B97H   PUBLIC    CODE     ---       _TMR_DisableGATE
      01001B8AH   PUBLIC    CODE     ---       _TMR_EnableGATE
      010013C3H   PUBLIC    CODE     ---       _TMR_ConfigTimerPeriod
      01000EF3H   PUBLIC    CODE     ---       _TMR_ConfigTimerClk
      01000EABH   PUBLIC    CODE     ---       _TMR_ConfigRunMode
      000000C8H   SFRSYM    DATA     BIT       T2I0
      000000C3H   SFRSYM    DATA     BYTE      CCH1
      00000080H   SFRSYM    DATA     BYTE      P0
      000000C8H.1 SFRSYM    DATA     BIT       T2I1
      000000C5H   SFRSYM    DATA     BYTE      CCH2
      00000090H   SFRSYM    DATA     BYTE      P1
      000000C7H   SFRSYM    DATA     BYTE      CCH3
      000000ACH   SFRSYM    DATA     BYTE      P0EXTIE
      000000A0H   SFRSYM    DATA     BYTE      P2
      000000B4H   SFRSYM    DATA     BYTE      P0EXTIF
      000000B0H   SFRSYM    DATA     BYTE      P3
      000000ADH   SFRSYM    DATA     BYTE      P1EXTIE
      000000D0H.6 SFRSYM    DATA     BIT       AC
      000000FFH   SFRSYM    DATA     BYTE      MCTRL
      000000C2H   SFRSYM    DATA     BYTE      CCL1
      000000B5H   SFRSYM    DATA     BYTE      P1EXTIF
      000000AEH   SFRSYM    DATA     BYTE      P2EXTIE
      000000C4H   SFRSYM    DATA     BYTE      CCL2
      000000B6H   SFRSYM    DATA     BYTE      P2EXTIF
      000000AFH   SFRSYM    DATA     BYTE      P3EXTIE
      000000A8H.7 SFRSYM    DATA     BIT       EA
      000000C6H   SFRSYM    DATA     BYTE      CCL3
      000000B7H   SFRSYM    DATA     BYTE      P3EXTIF
      000000AAH   SFRSYM    DATA     BYTE      EIE2
      000000B2H   SFRSYM    DATA     BYTE      EIF2
      000000C8H.3 SFRSYM    DATA     BIT       T2R0
      000000C8H.4 SFRSYM    DATA     BIT       T2R1
      00000083H   SFRSYM    DATA     BYTE      DPH0
      000000A8H   SFRSYM    DATA     BYTE      IE
      00000085H   SFRSYM    DATA     BYTE      DPH1
      000000B9H   SFRSYM    DATA     BYTE      EIP1
      000000BAH   SFRSYM    DATA     BYTE      EIP2
      00000082H   SFRSYM    DATA     BYTE      DPL0
      00000084H   SFRSYM    DATA     BYTE      DPL1
      000000C8H.6 SFRSYM    DATA     BIT       I3FR
      000000CFH   SFRSYM    DATA     BYTE      T2IE
      00000096H   SFRSYM    DATA     BYTE      TA
      000000C9H   SFRSYM    DATA     BYTE      T2IF
      000000C8H.2 SFRSYM    DATA     BIT       T2CM
      000000DFH   SFRSYM    DATA     BYTE      ADCON0
      000000DEH   SFRSYM    DATA     BYTE      ADCON1
      000000E9H   SFRSYM    DATA     BYTE      ADCON2
      000000B8H   SFRSYM    DATA     BYTE      IP
      000000CEH   SFRSYM    DATA     BYTE      CCEN
      000000D0H.7 SFRSYM    DATA     BIT       CY
      000000D2H   SFRSYM    DATA     BYTE      T34MOD
      00000093H   SFRSYM    DATA     BYTE      DPX0
      00000095H   SFRSYM    DATA     BYTE      DPX1
      000000F4H   SFRSYM    DATA     BYTE      I2CMSA
      000000F5H   SFRSYM    DATA     BYTE      I2CMCR
      00000081H   SFRSYM    DATA     BYTE      SP
      000000D0H.2 SFRSYM    DATA     BIT       OV
      000000F2H   SFRSYM    DATA     BYTE      I2CSCR
      000000C8H.7 SFRSYM    DATA     BIT       T2PS
      000000D1H   SFRSYM    DATA     BYTE      ADCMPC
      000000CBH   SFRSYM    DATA     BYTE      RLDH
      000000D5H   SFRSYM    DATA     BYTE      ADCMPH
      000000CAH   SFRSYM    DATA     BYTE      RLDL
LX51 LINKER/LOCATER V4.66.1.0                                                         09/07/2023  18:22:32  PAGE 118


      00000080H   SFRSYM    DATA     BIT       P00
      00000090H   SFRSYM    DATA     BIT       P10
      00000080H.1 SFRSYM    DATA     BIT       P01
      000000F7H   SFRSYM    DATA     BYTE      I2CMTP
      00000099H   SFRSYM    DATA     BYTE      SBUF
      00000087H   SFRSYM    DATA     BYTE      PCON
      000000A0H   SFRSYM    DATA     BIT       P20
      00000090H.1 SFRSYM    DATA     BIT       P11
      00000080H.2 SFRSYM    DATA     BIT       P02
      000000F5H   SFRSYM    DATA     BYTE      I2CMSR
      000000B0H   SFRSYM    DATA     BIT       P30
      000000A0H.1 SFRSYM    DATA     BIT       P21
      00000090H.2 SFRSYM    DATA     BIT       P12
      00000080H.3 SFRSYM    DATA     BIT       P03
      000000D4H   SFRSYM    DATA     BYTE      ADCMPL
      000000B0H.1 SFRSYM    DATA     BIT       P31
      000000A0H.2 SFRSYM    DATA     BIT       P22
      00000090H.3 SFRSYM    DATA     BIT       P13
      00000080H.4 SFRSYM    DATA     BIT       P04
      000000B0H.2 SFRSYM    DATA     BIT       P32
      000000A0H.3 SFRSYM    DATA     BIT       P23
      00000090H.4 SFRSYM    DATA     BIT       P14
      00000080H.5 SFRSYM    DATA     BIT       P05
      00000089H   SFRSYM    DATA     BYTE      TMOD
      00000088H   SFRSYM    DATA     BYTE      TCON
      000000B0H.3 SFRSYM    DATA     BIT       P33
      000000A0H.4 SFRSYM    DATA     BIT       P24
      00000090H.5 SFRSYM    DATA     BIT       P15
      00000080H.6 SFRSYM    DATA     BIT       P06
      000000B0H.4 SFRSYM    DATA     BIT       P34
      000000A0H.5 SFRSYM    DATA     BIT       P25
      00000090H.6 SFRSYM    DATA     BIT       P16
      00000080H.7 SFRSYM    DATA     BIT       P07
      000000B0H.5 SFRSYM    DATA     BIT       P35
      000000A0H.6 SFRSYM    DATA     BIT       P26
      00000090H.7 SFRSYM    DATA     BIT       P17
      000000F2H   SFRSYM    DATA     BYTE      I2CSSR
      000000B0H.6 SFRSYM    DATA     BIT       P36
      000000A0H.7 SFRSYM    DATA     BIT       P27
      000000ECH   SFRSYM    DATA     BYTE      SPCR
      000000DDH   SFRSYM    DATA     BYTE      ADRESH
      000000B0H.7 SFRSYM    DATA     BIT       P37
      000000EEH   SFRSYM    DATA     BYTE      SPDR
      000000EFH   SFRSYM    DATA     BYTE      SSCR
      000000D3H   SFRSYM    DATA     BYTE      ADDLYL
      000000DCH   SFRSYM    DATA     BYTE      ADRESL
      00000088H.1 SFRSYM    DATA     BIT       IE0
      00000088H.3 SFRSYM    DATA     BIT       IE1
      0000008FH   SFRSYM    DATA     BYTE      CLKDIV
      000000F0H   SFRSYM    DATA     BYTE      B
      00000091H   SFRSYM    DATA     BYTE      FUNCCR
      0000009AH   SFRSYM    DATA     BYTE      P0TRIS
      000000A1H   SFRSYM    DATA     BYTE      P1TRIS
      000000A2H   SFRSYM    DATA     BYTE      P2TRIS
      000000E0H   SFRSYM    DATA     BYTE      ACC
      000000A3H   SFRSYM    DATA     BYTE      P3TRIS
      000000A8H.4 SFRSYM    DATA     BIT       ES0
      000000A8H.6 SFRSYM    DATA     BIT       ES1
      000000A8H.1 SFRSYM    DATA     BIT       ET0
      000000EDH   SFRSYM    DATA     BYTE      SPSR
      000000A8H.3 SFRSYM    DATA     BIT       ET1
      00000088H.5 SFRSYM    DATA     BIT       TF0
      000000A8H.5 SFRSYM    DATA     BIT       ET2
      00000098H   SFRSYM    DATA     BIT       RI0
      00000088H.7 SFRSYM    DATA     BIT       TF1
LX51 LINKER/LOCATER V4.66.1.0                                                         09/07/2023  18:22:32  PAGE 119


      0000008CH   SFRSYM    DATA     BYTE      TH0
      000000A8H   SFRSYM    DATA     BIT       EX0
      00000098H.1 SFRSYM    DATA     BIT       TI0
      00000088H   SFRSYM    DATA     BIT       IT0
      0000008DH   SFRSYM    DATA     BYTE      TH1
      000000A8H.2 SFRSYM    DATA     BIT       EX1
      00000088H.2 SFRSYM    DATA     BIT       IT1
      000000CDH   SFRSYM    DATA     BYTE      TH2
      000000D0H   SFRSYM    DATA     BIT       P
      000000DBH   SFRSYM    DATA     BYTE      TH3
      000000E3H   SFRSYM    DATA     BYTE      TH4
      0000008AH   SFRSYM    DATA     BYTE      TL0
      0000008BH   SFRSYM    DATA     BYTE      TL1
      00000098H.2 SFRSYM    DATA     BIT       U0RB8
      000000CCH   SFRSYM    DATA     BYTE      TL2
      000000B8H.4 SFRSYM    DATA     BIT       PS0
      000000DAH   SFRSYM    DATA     BYTE      TL3
      000000BFH   SFRSYM    DATA     BYTE      BUZCON
      000000B8H.6 SFRSYM    DATA     BIT       PS1
      000000B8H.1 SFRSYM    DATA     BIT       PT0
      00000098H.3 SFRSYM    DATA     BIT       U0TB8
      000000E2H   SFRSYM    DATA     BYTE      TL4
      000000D0H.3 SFRSYM    DATA     BIT       RS0
      000000B8H.3 SFRSYM    DATA     BIT       PT1
      000000D0H.4 SFRSYM    DATA     BIT       RS1
      000000B8H.5 SFRSYM    DATA     BIT       PT2
      00000098H.7 SFRSYM    DATA     BIT       U0SM0
      00000088H.4 SFRSYM    DATA     BIT       TR0
      000000BEH   SFRSYM    DATA     BYTE      BUZDIV
      00000098H.6 SFRSYM    DATA     BIT       U0SM1
      00000088H.6 SFRSYM    DATA     BIT       TR1
      000000B8H   SFRSYM    DATA     BIT       PX0
      00000098H.5 SFRSYM    DATA     BIT       U0SM2
      000000B8H.2 SFRSYM    DATA     BIT       PX1
      000000BDH   SFRSYM    DATA     BYTE      WUTCRH
      00000099H   SFRSYM    DATA     BYTE      SBUF0
      000000EBH   SFRSYM    DATA     BYTE      SBUF1
      000000BCH   SFRSYM    DATA     BYTE      WUTCRL
      00000098H   SFRSYM    DATA     BYTE      SCON0
      000000EAH   SFRSYM    DATA     BYTE      SCON1
      000000C8H   SFRSYM    DATA     BYTE      T2CON
      00000086H   SFRSYM    DATA     BYTE      DPS
      000000FEH   SFRSYM    DATA     BYTE      MDATA
      000000F6H   SFRSYM    DATA     BYTE      I2CMBUF
      000000F1H   SFRSYM    DATA     BYTE      I2CSADR
      00000098H.4 SFRSYM    DATA     BIT       U0REN
      000000C8H.5 SFRSYM    DATA     BIT       CAPES
      000000FDH   SFRSYM    DATA     BYTE      MADRH
      0000008EH   SFRSYM    DATA     BYTE      CKCON
      000000F3H   SFRSYM    DATA     BYTE      I2CSBUF
      000000FCH   SFRSYM    DATA     BYTE      MADRL
      000000D0H.5 SFRSYM    DATA     BIT       F0
      000000FBH   SFRSYM    DATA     BYTE      MLOCK
      000000D0H   SFRSYM    DATA     BYTE      PSW
      00000097H   SFRSYM    DATA     BYTE      WDCON

      01000EABH   BLOCK     CODE     ---       LVL=0
      00000007H   SYMBOL    DATA     BYTE      Timern
      00000005H   SYMBOL    DATA     BYTE      TimerMode
      00000003H   SYMBOL    DATA     BYTE      TimerModeBranch
      01000EABH   BLOCK     CODE     NEAR LAB  LVL=1
      00000006H   SYMBOL    DATA     BYTE      Temp
      ---         BLOCKEND  ---      ---       LVL=1
      01000EABH   LINE      CODE     ---       #74
      01000EABH   LINE      CODE     ---       #75
LX51 LINKER/LOCATER V4.66.1.0                                                         09/07/2023  18:22:32  PAGE 120


      01000EABH   LINE      CODE     ---       #76
      01000EABH   LINE      CODE     ---       #78
      01000EBAH   LINE      CODE     ---       #79
      01000EBAH   LINE      CODE     ---       #80
      01000EBAH   LINE      CODE     ---       #81
      01000EBCH   LINE      CODE     ---       #82
      01000EBFH   LINE      CODE     ---       #83
      01000EC5H   LINE      CODE     ---       #84
      01000EC5H   LINE      CODE     ---       #85
      01000EC7H   LINE      CODE     ---       #86
      01000EC7H   LINE      CODE     ---       #87
      01000EC9H   LINE      CODE     ---       #88
      01000ECCH   LINE      CODE     ---       #89
      01000EDAH   LINE      CODE     ---       #90
      01000EDCH   LINE      CODE     ---       #91
      01000EDDH   LINE      CODE     ---       #92
      01000EDDH   LINE      CODE     ---       #93
      01000EDFH   LINE      CODE     ---       #94
      01000EE2H   LINE      CODE     ---       #95
      01000EE3H   LINE      CODE     ---       #96
      01000EE3H   LINE      CODE     ---       #97
      01000EE5H   LINE      CODE     ---       #98
      01000EE5H   LINE      CODE     ---       #99
      01000EE7H   LINE      CODE     ---       #100
      01000EEAH   LINE      CODE     ---       #101
      01000EF0H   LINE      CODE     ---       #102
      01000EF2H   LINE      CODE     ---       #103
      01000EF2H   LINE      CODE     ---       #104
      01000EF2H   LINE      CODE     ---       #105
      01000EF2H   LINE      CODE     ---       #106
      01000EF2H   LINE      CODE     ---       #107
      ---         BLOCKEND  ---      ---       LVL=0

      01000EF3H   BLOCK     CODE     ---       LVL=0
      00000007H   SYMBOL    DATA     BYTE      Timern
      00000005H   SYMBOL    DATA     BYTE      TimerClkDiv
      01000EF3H   BLOCK     CODE     NEAR LAB  LVL=1
      00000006H   SYMBOL    DATA     BYTE      Temp
      ---         BLOCKEND  ---      ---       LVL=1
      01000EF3H   LINE      CODE     ---       #117
      01000EF3H   LINE      CODE     ---       #118
      01000EF3H   LINE      CODE     ---       #119
      01000EF3H   LINE      CODE     ---       #121
      01000F02H   LINE      CODE     ---       #122
      01000F02H   LINE      CODE     ---       #123
      01000F02H   LINE      CODE     ---       #124
      01000F04H   LINE      CODE     ---       #125
      01000F07H   LINE      CODE     ---       #126
      01000F0DH   LINE      CODE     ---       #127
      01000F0DH   LINE      CODE     ---       #128
      01000F0FH   LINE      CODE     ---       #129
      01000F0FH   LINE      CODE     ---       #130
      01000F11H   LINE      CODE     ---       #131
      01000F14H   LINE      CODE     ---       #132
      01000F1AH   LINE      CODE     ---       #133
      01000F1CH   LINE      CODE     ---       #134
      01000F1DH   LINE      CODE     ---       #135
      01000F1DH   LINE      CODE     ---       #136
      01000F1FH   LINE      CODE     ---       #137
      01000F22H   LINE      CODE     ---       #138
      01000F27H   LINE      CODE     ---       #139
      01000F27H   LINE      CODE     ---       #140
      01000F29H   LINE      CODE     ---       #141
      01000F29H   LINE      CODE     ---       #142
      01000F2BH   LINE      CODE     ---       #143
LX51 LINKER/LOCATER V4.66.1.0                                                         09/07/2023  18:22:32  PAGE 121


      01000F2EH   LINE      CODE     ---       #144
      01000F36H   LINE      CODE     ---       #145
      01000F38H   LINE      CODE     ---       #146
      01000F38H   LINE      CODE     ---       #147
      01000F38H   LINE      CODE     ---       #148
      01000F38H   LINE      CODE     ---       #149
      01000F38H   LINE      CODE     ---       #150
      ---         BLOCKEND  ---      ---       LVL=0

      010013C3H   BLOCK     CODE     ---       LVL=0
      00000007H   SYMBOL    DATA     BYTE      Timern
      00000005H   SYMBOL    DATA     BYTE      TimerPeriodHigh
      00000003H   SYMBOL    DATA     BYTE      TimerPeriodLow
      010013C3H   LINE      CODE     ---       #160
      010013C3H   LINE      CODE     ---       #161
      010013C3H   LINE      CODE     ---       #162
      010013D2H   LINE      CODE     ---       #163
      010013D2H   LINE      CODE     ---       #164
      010013D2H   LINE      CODE     ---       #165
      010013D4H   LINE      CODE     ---       #166
      010013D6H   LINE      CODE     ---       #167
      010013D7H   LINE      CODE     ---       #168
      010013D7H   LINE      CODE     ---       #169
      010013D9H   LINE      CODE     ---       #170
      010013DBH   LINE      CODE     ---       #171
      010013DCH   LINE      CODE     ---       #172
      010013DCH   LINE      CODE     ---       #173
      010013DEH   LINE      CODE     ---       #174
      010013E0H   LINE      CODE     ---       #175
      010013E1H   LINE      CODE     ---       #176
      010013E1H   LINE      CODE     ---       #177
      010013E3H   LINE      CODE     ---       #178
      010013E5H   LINE      CODE     ---       #179
      010013E5H   LINE      CODE     ---       #180
      010013E5H   LINE      CODE     ---       #181
      010013E5H   LINE      CODE     ---       #182
      010013E5H   LINE      CODE     ---       #183
      ---         BLOCKEND  ---      ---       LVL=0

      01001B8AH   BLOCK     CODE     ---       LVL=0
      00000007H   SYMBOL    DATA     BYTE      Timern
      01001B8AH   LINE      CODE     ---       #192
      01001B8AH   LINE      CODE     ---       #193
      01001B8AH   LINE      CODE     ---       #194
      01001B8DH   LINE      CODE     ---       #195
      01001B8DH   LINE      CODE     ---       #196
      01001B90H   LINE      CODE     ---       #197
      01001B90H   LINE      CODE     ---       #198
      01001B93H   LINE      CODE     ---       #199
      01001B93H   LINE      CODE     ---       #200
      01001B96H   LINE      CODE     ---       #201
      01001B96H   LINE      CODE     ---       #202
      ---         BLOCKEND  ---      ---       LVL=0

      01001B97H   BLOCK     CODE     ---       LVL=0
      00000007H   SYMBOL    DATA     BYTE      Timern
      01001B97H   LINE      CODE     ---       #210
      01001B97H   LINE      CODE     ---       #211
      01001B97H   LINE      CODE     ---       #212
      01001B9AH   LINE      CODE     ---       #213
      01001B9AH   LINE      CODE     ---       #214
      01001B9DH   LINE      CODE     ---       #215
      01001B9DH   LINE      CODE     ---       #216
      01001BA0H   LINE      CODE     ---       #217
      01001BA0H   LINE      CODE     ---       #218
LX51 LINKER/LOCATER V4.66.1.0                                                         09/07/2023  18:22:32  PAGE 122


      01001BA3H   LINE      CODE     ---       #219
      01001BA3H   LINE      CODE     ---       #220
      ---         BLOCKEND  ---      ---       LVL=0

      01000F39H   BLOCK     CODE     ---       LVL=0
      00000007H   SYMBOL    DATA     BYTE      Timern
      01000F39H   LINE      CODE     ---       #228
      01000F39H   LINE      CODE     ---       #229
      01000F39H   LINE      CODE     ---       #230
      01000F3CH   LINE      CODE     ---       #231
      01000F3CH   LINE      CODE     ---       #232
      01000F44H   LINE      CODE     ---       #233
      01000F44H   LINE      CODE     ---       #234
      01000F50H   LINE      CODE     ---       #235
      01000F50H   LINE      CODE     ---       #236
      01000F57H   LINE      CODE     ---       #237
      01000F57H   LINE      CODE     ---       #238
      01000F5CH   LINE      CODE     ---       #239
      01000F5CH   LINE      CODE     ---       #240
      01000F64H   LINE      CODE     ---       #241
      01000F64H   LINE      CODE     ---       #242
      01000F72H   LINE      CODE     ---       #243
      01000F72H   LINE      CODE     ---       #244
      01000F79H   LINE      CODE     ---       #245
      01000F79H   LINE      CODE     ---       #246
      01000F7CH   LINE      CODE     ---       #247
      ---         BLOCKEND  ---      ---       LVL=0

      010015DBH   BLOCK     CODE     ---       LVL=0
      00000007H   SYMBOL    DATA     BYTE      Timern
      010015DBH   LINE      CODE     ---       #256
      010015DBH   LINE      CODE     ---       #257
      010015DBH   LINE      CODE     ---       #258
      010015EAH   LINE      CODE     ---       #259
      010015EAH   LINE      CODE     ---       #260
      010015EAH   LINE      CODE     ---       #261
      010015ECH   LINE      CODE     ---       #262
      010015EDH   LINE      CODE     ---       #263
      010015EDH   LINE      CODE     ---       #264
      010015EFH   LINE      CODE     ---       #265
      010015F0H   LINE      CODE     ---       #266
      010015F0H   LINE      CODE     ---       #267
      010015F3H   LINE      CODE     ---       #268
      010015F4H   LINE      CODE     ---       #269
      010015F4H   LINE      CODE     ---       #270
      010015F7H   LINE      CODE     ---       #271
      010015F7H   LINE      CODE     ---       #272
      010015F7H   LINE      CODE     ---       #273
      010015F7H   LINE      CODE     ---       #274
      010015F7H   LINE      CODE     ---       #275
      ---         BLOCKEND  ---      ---       LVL=0

      010015F8H   BLOCK     CODE     ---       LVL=0
      00000007H   SYMBOL    DATA     BYTE      Timern
      010015F8H   LINE      CODE     ---       #284
      010015F8H   LINE      CODE     ---       #285
      010015F8H   LINE      CODE     ---       #286
      01001607H   LINE      CODE     ---       #287
      01001607H   LINE      CODE     ---       #288
      01001607H   LINE      CODE     ---       #289
      01001609H   LINE      CODE     ---       #290
      0100160AH   LINE      CODE     ---       #291
      0100160AH   LINE      CODE     ---       #292
      0100160CH   LINE      CODE     ---       #293
      0100160DH   LINE      CODE     ---       #294
LX51 LINKER/LOCATER V4.66.1.0                                                         09/07/2023  18:22:32  PAGE 123


      0100160DH   LINE      CODE     ---       #295
      01001610H   LINE      CODE     ---       #296
      01001611H   LINE      CODE     ---       #297
      01001611H   LINE      CODE     ---       #298
      01001614H   LINE      CODE     ---       #299
      01001614H   LINE      CODE     ---       #300
      01001614H   LINE      CODE     ---       #301
      01001614H   LINE      CODE     ---       #302
      01001614H   LINE      CODE     ---       #303
      ---         BLOCKEND  ---      ---       LVL=0

      01001099H   BLOCK     CODE     ---       LVL=0
      00000007H   SYMBOL    DATA     BYTE      Timern
      01001099H   BLOCK     CODE     NEAR LAB  LVL=1
      00000006H   SYMBOL    DATA     BYTE      IntFlag
      ---         BLOCKEND  ---      ---       LVL=1
      01001099H   LINE      CODE     ---       #312
      01001099H   LINE      CODE     ---       #313
      01001099H   LINE      CODE     ---       #314
      0100109BH   LINE      CODE     ---       #315
      010010AAH   LINE      CODE     ---       #316
      010010AAH   LINE      CODE     ---       #317
      010010AAH   LINE      CODE     ---       #318
      010010AFH   LINE      CODE     ---       #319
      010010B1H   LINE      CODE     ---       #320
      010010B1H   LINE      CODE     ---       #321
      010010B6H   LINE      CODE     ---       #322
      010010B8H   LINE      CODE     ---       #323
      010010B8H   LINE      CODE     ---       #324
      010010BDH   LINE      CODE     ---       #325
      010010BFH   LINE      CODE     ---       #326
      010010BFH   LINE      CODE     ---       #327
      010010C4H   LINE      CODE     ---       #328
      010010C4H   LINE      CODE     ---       #329
      010010C4H   LINE      CODE     ---       #330
      010010C4H   LINE      CODE     ---       #331
      010010C4H   LINE      CODE     ---       #332
      010010CBH   LINE      CODE     ---       #333
      ---         BLOCKEND  ---      ---       LVL=0

      01001615H   BLOCK     CODE     ---       LVL=0
      00000007H   SYMBOL    DATA     BYTE      Timern
      01001615H   LINE      CODE     ---       #341
      01001615H   LINE      CODE     ---       #342
      01001615H   LINE      CODE     ---       #343
      01001624H   LINE      CODE     ---       #344
      01001624H   LINE      CODE     ---       #345
      01001624H   LINE      CODE     ---       #346
      01001626H   LINE      CODE     ---       #347
      01001627H   LINE      CODE     ---       #348
      01001627H   LINE      CODE     ---       #349
      01001629H   LINE      CODE     ---       #350
      0100162AH   LINE      CODE     ---       #351
      0100162AH   LINE      CODE     ---       #352
      0100162DH   LINE      CODE     ---       #353
      0100162EH   LINE      CODE     ---       #354
      0100162EH   LINE      CODE     ---       #355
      01001631H   LINE      CODE     ---       #356
      01001631H   LINE      CODE     ---       #357
      01001631H   LINE      CODE     ---       #358
      01001631H   LINE      CODE     ---       #359
      01001631H   LINE      CODE     ---       #360
      ---         BLOCKEND  ---      ---       LVL=0

      01001523H   BLOCK     CODE     ---       LVL=0
LX51 LINKER/LOCATER V4.66.1.0                                                         09/07/2023  18:22:32  PAGE 124


      00000007H   SYMBOL    DATA     BYTE      Timern
      01001523H   LINE      CODE     ---       #368
      01001523H   LINE      CODE     ---       #369
      01001523H   LINE      CODE     ---       #370
      01001532H   LINE      CODE     ---       #371
      01001532H   LINE      CODE     ---       #372
      01001532H   LINE      CODE     ---       #373
      01001535H   LINE      CODE     ---       #374
      01001536H   LINE      CODE     ---       #375
      01001536H   LINE      CODE     ---       #376
      01001539H   LINE      CODE     ---       #377
      0100153AH   LINE      CODE     ---       #378
      0100153AH   LINE      CODE     ---       #379
      0100153DH   LINE      CODE     ---       #380
      0100153EH   LINE      CODE     ---       #381
      0100153EH   LINE      CODE     ---       #382
      01001541H   LINE      CODE     ---       #383
      01001541H   LINE      CODE     ---       #384
      01001541H   LINE      CODE     ---       #385
      01001541H   LINE      CODE     ---       #386
      01001541H   LINE      CODE     ---       #387
      ---         BLOCKEND  ---      ---       LVL=0

      01001542H   BLOCK     CODE     ---       LVL=0
      00000007H   SYMBOL    DATA     BYTE      Timern
      01001542H   LINE      CODE     ---       #395
      01001542H   LINE      CODE     ---       #396
      01001542H   LINE      CODE     ---       #397
      01001551H   LINE      CODE     ---       #398
      01001551H   LINE      CODE     ---       #399
      01001551H   LINE      CODE     ---       #400
      01001554H   LINE      CODE     ---       #401
      01001555H   LINE      CODE     ---       #402
      01001555H   LINE      CODE     ---       #403
      01001558H   LINE      CODE     ---       #404
      01001559H   LINE      CODE     ---       #405
      01001559H   LINE      CODE     ---       #406
      0100155CH   LINE      CODE     ---       #407
      0100155DH   LINE      CODE     ---       #408
      0100155DH   LINE      CODE     ---       #409
      01001560H   LINE      CODE     ---       #410
      01001560H   LINE      CODE     ---       #411
      01001560H   LINE      CODE     ---       #412
      01001560H   LINE      CODE     ---       #413
      01001560H   LINE      CODE     ---       #414
      ---         BLOCKEND  ---      ---       LVL=0

      01001CA1H   BLOCK     CODE     ---       LVL=0
      00000007H   SYMBOL    DATA     BYTE      Timer2Mode
      00000005H   SYMBOL    DATA     BYTE      Timer2LoadMode
      01001CA1H   BLOCK     CODE     NEAR LAB  LVL=1
      00000006H   SYMBOL    DATA     BYTE      Temp
      ---         BLOCKEND  ---      ---       LVL=1
      01001CA1H   LINE      CODE     ---       #430
      01001CA1H   LINE      CODE     ---       #431
      01001CA1H   LINE      CODE     ---       #432
      01001CA1H   LINE      CODE     ---       #434
      01001CA3H   LINE      CODE     ---       #435
      01001CA6H   LINE      CODE     ---       #436
      01001CAAH   LINE      CODE     ---       #437
      01001CACH   LINE      CODE     ---       #438
      ---         BLOCKEND  ---      ---       LVL=0

      01001D05H   BLOCK     CODE     ---       LVL=0
      00000007H   SYMBOL    DATA     BYTE      TimerClkDiv
LX51 LINKER/LOCATER V4.66.1.0                                                         09/07/2023  18:22:32  PAGE 125


      01001D05H   BLOCK     CODE     NEAR LAB  LVL=1
      00000006H   SYMBOL    DATA     BYTE      Temp
      ---         BLOCKEND  ---      ---       LVL=1
      01001D05H   LINE      CODE     ---       #446
      01001D05H   LINE      CODE     ---       #447
      01001D05H   LINE      CODE     ---       #448
      01001D05H   LINE      CODE     ---       #450
      01001D07H   LINE      CODE     ---       #451
      01001D0AH   LINE      CODE     ---       #452
      01001D0DH   LINE      CODE     ---       #453
      01001D0FH   LINE      CODE     ---       #454
      ---         BLOCKEND  ---      ---       LVL=0

      01001561H   BLOCK     CODE     ---       LVL=0
      00000004H   SYMBOL    DATA     WORD      TimerPeriod
      01001561H   LINE      CODE     ---       #462
      01001565H   LINE      CODE     ---       #463
      01001565H   LINE      CODE     ---       #464
      01001567H   LINE      CODE     ---       #465
      0100156BH   LINE      CODE     ---       #466
      0100157BH   LINE      CODE     ---       #467
      0100157BH   LINE      CODE     ---       #468
      0100157DH   LINE      CODE     ---       #469
      0100157FH   LINE      CODE     ---       #470
      0100157FH   LINE      CODE     ---       #471
      ---         BLOCKEND  ---      ---       LVL=0

      01001F5DH   BLOCK     CODE     ---       LVL=0
      01001F5DH   LINE      CODE     ---       #479
      01001F5DH   LINE      CODE     ---       #480
      01001F5DH   LINE      CODE     ---       #481
      01001F60H   LINE      CODE     ---       #482
      ---         BLOCKEND  ---      ---       LVL=0

      01001D10H   BLOCK     CODE     ---       LVL=0
      01001D10H   BLOCK     CODE     NEAR LAB  LVL=1
      00000007H   SYMBOL    DATA     BYTE      Temp
      ---         BLOCKEND  ---      ---       LVL=1
      01001D10H   LINE      CODE     ---       #490
      01001D10H   LINE      CODE     ---       #491
      01001D10H   LINE      CODE     ---       #492
      01001D10H   LINE      CODE     ---       #494
      01001D12H   LINE      CODE     ---       #495
      01001D15H   LINE      CODE     ---       #496
      01001D18H   LINE      CODE     ---       #497
      01001D1AH   LINE      CODE     ---       #498
      ---         BLOCKEND  ---      ---       LVL=0

      010010CCH   BLOCK     CODE     ---       LVL=0
      00000007H   SYMBOL    DATA     BYTE      Timer2CCn
      00000005H   SYMBOL    DATA     BYTE      CompareMode
      010010CCH   BLOCK     CODE     NEAR LAB  LVL=1
      00000006H   SYMBOL    DATA     BYTE      Temp
      ---         BLOCKEND  ---      ---       LVL=1
      010010CCH   LINE      CODE     ---       #509
      010010CCH   LINE      CODE     ---       #510
      010010CCH   LINE      CODE     ---       #511
      010010CCH   LINE      CODE     ---       #513
      010010CEH   LINE      CODE     ---       #514
      010010D1H   LINE      CODE     ---       #515
      010010D4H   LINE      CODE     ---       #516
      010010D6H   LINE      CODE     ---       #518
      010010D8H   LINE      CODE     ---       #519
      010010DBH   LINE      CODE     ---       #520
      010010DBH   LINE      CODE     ---       #521
LX51 LINKER/LOCATER V4.66.1.0                                                         09/07/2023  18:22:32  PAGE 126


      010010DEH   LINE      CODE     ---       #522
      010010E1H   LINE      CODE     ---       #523
      010010E1H   LINE      CODE     ---       #524
      010010E4H   LINE      CODE     ---       #525
      010010E4H   LINE      CODE     ---       #526
      010010E7H   LINE      CODE     ---       #527
      010010EAH   LINE      CODE     ---       #528
      010010EAH   LINE      CODE     ---       #529
      010010EDH   LINE      CODE     ---       #530
      010010EDH   LINE      CODE     ---       #531
      010010F0H   LINE      CODE     ---       #532
      010010F3H   LINE      CODE     ---       #533
      010010F3H   LINE      CODE     ---       #534
      010010F6H   LINE      CODE     ---       #535
      010010F6H   LINE      CODE     ---       #536
      010010F9H   LINE      CODE     ---       #537
      010010FCH   LINE      CODE     ---       #538
      010010FCH   LINE      CODE     ---       #539
      010010FEH   LINE      CODE     ---       #540
      ---         BLOCKEND  ---      ---       LVL=0

      010017E3H   BLOCK     CODE     ---       LVL=0
      00000007H   SYMBOL    DATA     BYTE      Timer2CCn
      010017E3H   LINE      CODE     ---       #548
      010017E3H   LINE      CODE     ---       #549
      010017E3H   LINE      CODE     ---       #550
      010017E6H   LINE      CODE     ---       #551
      010017E6H   LINE      CODE     ---       #552
      010017E9H   LINE      CODE     ---       #553
      010017E9H   LINE      CODE     ---       #554
      010017ECH   LINE      CODE     ---       #555
      010017ECH   LINE      CODE     ---       #556
      010017EFH   LINE      CODE     ---       #557
      010017EFH   LINE      CODE     ---       #558
      010017F2H   LINE      CODE     ---       #559
      010017F2H   LINE      CODE     ---       #560
      010017F5H   LINE      CODE     ---       #561
      010017F5H   LINE      CODE     ---       #562
      010017F8H   LINE      CODE     ---       #563
      010017F8H   LINE      CODE     ---       #564
      010017FBH   LINE      CODE     ---       #565
      010017FBH   LINE      CODE     ---       #566
      ---         BLOCKEND  ---      ---       LVL=0

      01001580H   BLOCK     CODE     ---       LVL=0
      00000003H   SYMBOL    DATA     BYTE      Timer2CCn
      00000004H   SYMBOL    DATA     WORD      CompareValue
      01001580H   LINE      CODE     ---       #576
      01001582H   LINE      CODE     ---       #577
      01001582H   LINE      CODE     ---       #578
      01001585H   LINE      CODE     ---       #579
      01001585H   LINE      CODE     ---       #580
      01001587H   LINE      CODE     ---       #581
      01001589H   LINE      CODE     ---       #582
      01001589H   LINE      CODE     ---       #583
      0100158CH   LINE      CODE     ---       #584
      0100158CH   LINE      CODE     ---       #585
      0100158EH   LINE      CODE     ---       #586
      01001590H   LINE      CODE     ---       #587
      01001590H   LINE      CODE     ---       #588
      01001593H   LINE      CODE     ---       #589
      01001593H   LINE      CODE     ---       #590
      01001595H   LINE      CODE     ---       #591
      01001597H   LINE      CODE     ---       #592
      01001597H   LINE      CODE     ---       #593
LX51 LINKER/LOCATER V4.66.1.0                                                         09/07/2023  18:22:32  PAGE 127


      0100159AH   LINE      CODE     ---       #594
      0100159AH   LINE      CODE     ---       #595
      0100159CH   LINE      CODE     ---       #596
      0100159EH   LINE      CODE     ---       #597
      0100159EH   LINE      CODE     ---       #598
      ---         BLOCKEND  ---      ---       LVL=0

      01001D1BH   BLOCK     CODE     ---       LVL=0
      00000007H   SYMBOL    DATA     BYTE      Timer2CompareIntMode
      01001D1BH   BLOCK     CODE     NEAR LAB  LVL=1
      00000006H   SYMBOL    DATA     BYTE      Temp
      ---         BLOCKEND  ---      ---       LVL=1
      01001D1BH   LINE      CODE     ---       #608
      01001D1BH   LINE      CODE     ---       #609
      01001D1BH   LINE      CODE     ---       #610
      01001D1BH   LINE      CODE     ---       #612
      01001D1DH   LINE      CODE     ---       #613
      01001D20H   LINE      CODE     ---       #614
      01001D23H   LINE      CODE     ---       #615
      01001D25H   LINE      CODE     ---       #616
      ---         BLOCKEND  ---      ---       LVL=0

      01000B97H   BLOCK     CODE     ---       LVL=0
      00000007H   SYMBOL    DATA     BYTE      Timer2CCn
      00000005H   SYMBOL    DATA     BYTE      Timer2CaptureMode
      01000B97H   BLOCK     CODE     NEAR LAB  LVL=1
      00000006H   SYMBOL    DATA     BYTE      Temp
      ---         BLOCKEND  ---      ---       LVL=1
      01000B97H   LINE      CODE     ---       #631
      01000B97H   LINE      CODE     ---       #632
      01000B97H   LINE      CODE     ---       #633
      01000B97H   LINE      CODE     ---       #635
      01000B9AH   LINE      CODE     ---       #636
      01000B9AH   LINE      CODE     ---       #637
      01000B9CH   LINE      CODE     ---       #638
      01000B9FH   LINE      CODE     ---       #639
      01000BA9H   LINE      CODE     ---       #640
      01000BABH   LINE      CODE     ---       #642
      01000BADH   LINE      CODE     ---       #643
      01000BB0H   LINE      CODE     ---       #644
      01000BB5H   LINE      CODE     ---       #645
      01000BB7H   LINE      CODE     ---       #646
      01000BB7H   LINE      CODE     ---       #647
      01000BBCH   LINE      CODE     ---       #648
      01000BBCH   LINE      CODE     ---       #649
      01000BBFH   LINE      CODE     ---       #650
      01000BC2H   LINE      CODE     ---       #651
      01000BC2H   LINE      CODE     ---       #652
      01000BC5H   LINE      CODE     ---       #653
      01000BC5H   LINE      CODE     ---       #654
      01000BC7H   LINE      CODE     ---       #655
      01000BCAH   LINE      CODE     ---       #656
      01000BD3H   LINE      CODE     ---       #657
      01000BD5H   LINE      CODE     ---       #658
      01000BD5H   LINE      CODE     ---       #659
      01000BDAH   LINE      CODE     ---       #660
      01000BDAH   LINE      CODE     ---       #661
      01000BDDH   LINE      CODE     ---       #662
      01000BE0H   LINE      CODE     ---       #663
      01000BE0H   LINE      CODE     ---       #664
      01000BE3H   LINE      CODE     ---       #665
      01000BE3H   LINE      CODE     ---       #666
      01000BE5H   LINE      CODE     ---       #667
      01000BE8H   LINE      CODE     ---       #668
      01000BF0H   LINE      CODE     ---       #669
LX51 LINKER/LOCATER V4.66.1.0                                                         09/07/2023  18:22:32  PAGE 128


      01000BF2H   LINE      CODE     ---       #670
      01000BF2H   LINE      CODE     ---       #671
      01000BF7H   LINE      CODE     ---       #672
      01000BF7H   LINE      CODE     ---       #673
      01000BFAH   LINE      CODE     ---       #674
      01000BFDH   LINE      CODE     ---       #675
      01000BFDH   LINE      CODE     ---       #676
      01000C00H   LINE      CODE     ---       #677
      01000C00H   LINE      CODE     ---       #678
      01000C02H   LINE      CODE     ---       #679
      01000C05H   LINE      CODE     ---       #680
      01000C0FH   LINE      CODE     ---       #681
      01000C11H   LINE      CODE     ---       #682
      01000C11H   LINE      CODE     ---       #683
      ---         BLOCKEND  ---      ---       LVL=0

      010017FCH   BLOCK     CODE     ---       LVL=0
      00000007H   SYMBOL    DATA     BYTE      Timer2CCn
      010017FCH   LINE      CODE     ---       #692
      010017FCH   LINE      CODE     ---       #693
      010017FCH   LINE      CODE     ---       #694
      010017FFH   LINE      CODE     ---       #695
      010017FFH   LINE      CODE     ---       #696
      01001802H   LINE      CODE     ---       #697
      01001802H   LINE      CODE     ---       #698
      01001805H   LINE      CODE     ---       #699
      01001805H   LINE      CODE     ---       #700
      01001808H   LINE      CODE     ---       #701
      01001808H   LINE      CODE     ---       #702
      0100180BH   LINE      CODE     ---       #703
      0100180BH   LINE      CODE     ---       #704
      0100180EH   LINE      CODE     ---       #705
      0100180EH   LINE      CODE     ---       #706
      01001811H   LINE      CODE     ---       #707
      01001811H   LINE      CODE     ---       #708
      01001814H   LINE      CODE     ---       #709
      01001814H   LINE      CODE     ---       #710
      ---         BLOCKEND  ---      ---       LVL=0

      01000F7DH   BLOCK     CODE     ---       LVL=0
      00000007H   SYMBOL    DATA     BYTE      Timer2CCn
      01000F7DH   BLOCK     CODE     NEAR LAB  LVL=1
      00000004H   SYMBOL    DATA     WORD      CaputerValue
      ---         BLOCKEND  ---      ---       LVL=1
      01000F7DH   LINE      CODE     ---       #719
      01000F7DH   LINE      CODE     ---       #720
      01000F7DH   LINE      CODE     ---       #721
      01000F80H   LINE      CODE     ---       #722
      01000F8EH   LINE      CODE     ---       #723
      01000F8EH   LINE      CODE     ---       #724
      01000F8EH   LINE      CODE     ---       #725
      01000F92H   LINE      CODE     ---       #726
      01000F96H   LINE      CODE     ---       #727
      01000F98H   LINE      CODE     ---       #728
      01000F98H   LINE      CODE     ---       #729
      01000F9CH   LINE      CODE     ---       #730
      01000FA0H   LINE      CODE     ---       #731
      01000FA2H   LINE      CODE     ---       #732
      01000FA2H   LINE      CODE     ---       #733
      01000FA6H   LINE      CODE     ---       #734
      01000FAAH   LINE      CODE     ---       #735
      01000FACH   LINE      CODE     ---       #736
      01000FACH   LINE      CODE     ---       #737
      01000FB0H   LINE      CODE     ---       #738
      01000FB4H   LINE      CODE     ---       #739
LX51 LINKER/LOCATER V4.66.1.0                                                         09/07/2023  18:22:32  PAGE 129


      01000FB4H   LINE      CODE     ---       #740
      01000FB4H   LINE      CODE     ---       #741
      01000FB4H   LINE      CODE     ---       #742
      01000FB4H   LINE      CODE     ---       #743
      01000FB8H   LINE      CODE     ---       #744
      ---         BLOCKEND  ---      ---       LVL=0

      01001F61H   BLOCK     CODE     ---       LVL=0
      01001F61H   LINE      CODE     ---       #753
      01001F61H   LINE      CODE     ---       #754
      01001F61H   LINE      CODE     ---       #755
      01001F64H   LINE      CODE     ---       #756
      ---         BLOCKEND  ---      ---       LVL=0

      01001F65H   BLOCK     CODE     ---       LVL=0
      01001F65H   LINE      CODE     ---       #765
      01001F65H   LINE      CODE     ---       #766
      01001F65H   LINE      CODE     ---       #767
      01001F68H   LINE      CODE     ---       #768
      ---         BLOCKEND  ---      ---       LVL=0

      01001DBDH   BLOCK     CODE     ---       LVL=0
      01001DBDH   LINE      CODE     ---       #777
      01001DBDH   LINE      CODE     ---       #778
      01001DBDH   LINE      CODE     ---       #779
      01001DC6H   LINE      CODE     ---       #780
      ---         BLOCKEND  ---      ---       LVL=0

      01001F69H   BLOCK     CODE     ---       LVL=0
      01001F69H   LINE      CODE     ---       #788
      01001F69H   LINE      CODE     ---       #789
      01001F69H   LINE      CODE     ---       #790
      01001F6CH   LINE      CODE     ---       #791
      ---         BLOCKEND  ---      ---       LVL=0

      01001F6DH   BLOCK     CODE     ---       LVL=0
      01001F6DH   LINE      CODE     ---       #800
      01001F6DH   LINE      CODE     ---       #801
      01001F6DH   LINE      CODE     ---       #802
      01001F70H   LINE      CODE     ---       #803
      ---         BLOCKEND  ---      ---       LVL=0

      01001F71H   BLOCK     CODE     ---       LVL=0
      01001F71H   LINE      CODE     ---       #812
      01001F71H   LINE      CODE     ---       #813
      01001F71H   LINE      CODE     ---       #814
      01001F74H   LINE      CODE     ---       #815
      ---         BLOCKEND  ---      ---       LVL=0

      01001DC7H   BLOCK     CODE     ---       LVL=0
      01001DC7H   LINE      CODE     ---       #823
      01001DC7H   LINE      CODE     ---       #824
      01001DC7H   LINE      CODE     ---       #825
      01001DD0H   LINE      CODE     ---       #826
      ---         BLOCKEND  ---      ---       LVL=0

      01001F75H   BLOCK     CODE     ---       LVL=0
      01001F75H   LINE      CODE     ---       #835
      01001F75H   LINE      CODE     ---       #836
      01001F75H   LINE      CODE     ---       #837
      01001F78H   LINE      CODE     ---       #838
      ---         BLOCKEND  ---      ---       LVL=0

      01001B2CH   BLOCK     CODE     ---       LVL=0
      00000007H   SYMBOL    DATA     BYTE      Timer2CCn
LX51 LINKER/LOCATER V4.66.1.0                                                         09/07/2023  18:22:32  PAGE 130


      01001B2CH   LINE      CODE     ---       #847
      01001B2CH   LINE      CODE     ---       #848
      01001B2CH   LINE      CODE     ---       #849
      01001B39H   LINE      CODE     ---       #850
      ---         BLOCKEND  ---      ---       LVL=0

      01001A7FH   BLOCK     CODE     ---       LVL=0
      00000007H   SYMBOL    DATA     BYTE      Timer2CCn
      01001A7FH   LINE      CODE     ---       #859
      01001A7FH   LINE      CODE     ---       #860
      01001A7FH   LINE      CODE     ---       #861
      01001A8DH   LINE      CODE     ---       #862
      ---         BLOCKEND  ---      ---       LVL=0

      0100166BH   BLOCK     CODE     ---       LVL=0
      00000007H   SYMBOL    DATA     BYTE      Timer2CCn
      0100166BH   LINE      CODE     ---       #871
      0100166BH   LINE      CODE     ---       #872
      0100166BH   LINE      CODE     ---       #873
      01001686H   LINE      CODE     ---       #874
      ---         BLOCKEND  ---      ---       LVL=0

      01001A8EH   BLOCK     CODE     ---       LVL=0
      00000007H   SYMBOL    DATA     BYTE      Timer2CCn
      01001A8EH   LINE      CODE     ---       #882
      01001A8EH   LINE      CODE     ---       #883
      01001A8EH   LINE      CODE     ---       #884
      01001A9CH   LINE      CODE     ---       #885
      ---         BLOCKEND  ---      ---       LVL=0

      01001B3AH   BLOCK     CODE     ---       LVL=0
      00000007H   SYMBOL    DATA     BYTE      Timer2CCn
      01001B3AH   LINE      CODE     ---       #894
      01001B3AH   LINE      CODE     ---       #895
      01001B3AH   LINE      CODE     ---       #896
      01001B47H   LINE      CODE     ---       #897
      ---         BLOCKEND  ---      ---       LVL=0

      01001A9DH   BLOCK     CODE     ---       LVL=0
      00000007H   SYMBOL    DATA     BYTE      Timer2CCn
      01001A9DH   LINE      CODE     ---       #905
      01001A9DH   LINE      CODE     ---       #906
      01001A9DH   LINE      CODE     ---       #907
      01001AABH   LINE      CODE     ---       #908
      ---         BLOCKEND  ---      ---       LVL=0

      01001687H   BLOCK     CODE     ---       LVL=0
      00000007H   SYMBOL    DATA     BYTE      Timer2CCn
      01001687H   LINE      CODE     ---       #916
      01001687H   LINE      CODE     ---       #917
      01001687H   LINE      CODE     ---       #918
      010016A2H   LINE      CODE     ---       #919
      ---         BLOCKEND  ---      ---       LVL=0

      01001AACH   BLOCK     CODE     ---       LVL=0
      00000007H   SYMBOL    DATA     BYTE      Timer2CCn
      01001AACH   LINE      CODE     ---       #927
      01001AACH   LINE      CODE     ---       #928
      01001AACH   LINE      CODE     ---       #929
      01001ABAH   LINE      CODE     ---       #930
      ---         BLOCKEND  ---      ---       LVL=0

      01001F8BH   BLOCK     CODE     ---       LVL=0
      01001F8BH   LINE      CODE     ---       #939
      01001F8BH   LINE      CODE     ---       #940
LX51 LINKER/LOCATER V4.66.1.0                                                         09/07/2023  18:22:32  PAGE 131


      01001F8BH   LINE      CODE     ---       #941
      01001F8DH   LINE      CODE     ---       #942
      ---         BLOCKEND  ---      ---       LVL=0

      01001F8EH   BLOCK     CODE     ---       LVL=0
      01001F8EH   LINE      CODE     ---       #951
      01001F8EH   LINE      CODE     ---       #952
      01001F8EH   LINE      CODE     ---       #953
      01001F90H   LINE      CODE     ---       #954
      ---         BLOCKEND  ---      ---       LVL=0

      01001DD1H   BLOCK     CODE     ---       LVL=0
      01001DD1H   LINE      CODE     ---       #962
      01001DD1H   LINE      CODE     ---       #963
      01001DD1H   LINE      CODE     ---       #964
      01001DD7H   LINE      CODE     ---       #965
      01001DD7H   LINE      CODE     ---       #966
      01001DDAH   LINE      CODE     ---       #967
      01001DDAH   LINE      CODE     ---       #968
      ---         BLOCKEND  ---      ---       LVL=0

      01001F79H   BLOCK     CODE     ---       LVL=0
      01001F79H   LINE      CODE     ---       #976
      01001F79H   LINE      CODE     ---       #977
      01001F79H   LINE      CODE     ---       #978
      01001F7CH   LINE      CODE     ---       #979
      ---         BLOCKEND  ---      ---       LVL=0

      ---         MODULE    ---      ---       WDT
      01001796H   PUBLIC    CODE     ---       WDT_ClearOverflowIntFlag
      01001DDBH   PUBLIC    CODE     ---       WDT_GetOverflowIntFlag
      01001F81H   PUBLIC    CODE     ---       WDT_DisableOverflowInt
      01001F7DH   PUBLIC    CODE     ---       WDT_EnableOverflowInt
      0100177BH   PUBLIC    CODE     ---       WDT_ClearWDT
      01001ABBH   PUBLIC    CODE     ---       _WDT_ConfigOverflowTime
      000000C8H   SFRSYM    DATA     BIT       T2I0
      000000C3H   SFRSYM    DATA     BYTE      CCH1
      00000080H   SFRSYM    DATA     BYTE      P0
      000000C8H.1 SFRSYM    DATA     BIT       T2I1
      000000C5H   SFRSYM    DATA     BYTE      CCH2
      00000090H   SFRSYM    DATA     BYTE      P1
      000000C7H   SFRSYM    DATA     BYTE      CCH3
      000000ACH   SFRSYM    DATA     BYTE      P0EXTIE
      000000A0H   SFRSYM    DATA     BYTE      P2
      000000B4H   SFRSYM    DATA     BYTE      P0EXTIF
      000000B0H   SFRSYM    DATA     BYTE      P3
      000000ADH   SFRSYM    DATA     BYTE      P1EXTIE
      000000D0H.6 SFRSYM    DATA     BIT       AC
      000000FFH   SFRSYM    DATA     BYTE      MCTRL
      000000C2H   SFRSYM    DATA     BYTE      CCL1
      000000B5H   SFRSYM    DATA     BYTE      P1EXTIF
      000000AEH   SFRSYM    DATA     BYTE      P2EXTIE
      000000C4H   SFRSYM    DATA     BYTE      CCL2
      000000B6H   SFRSYM    DATA     BYTE      P2EXTIF
      000000AFH   SFRSYM    DATA     BYTE      P3EXTIE
      000000A8H.7 SFRSYM    DATA     BIT       EA
      000000C6H   SFRSYM    DATA     BYTE      CCL3
      000000B7H   SFRSYM    DATA     BYTE      P3EXTIF
      000000AAH   SFRSYM    DATA     BYTE      EIE2
      000000B2H   SFRSYM    DATA     BYTE      EIF2
      000000C8H.3 SFRSYM    DATA     BIT       T2R0
      000000C8H.4 SFRSYM    DATA     BIT       T2R1
      00000083H   SFRSYM    DATA     BYTE      DPH0
      000000A8H   SFRSYM    DATA     BYTE      IE
      00000085H   SFRSYM    DATA     BYTE      DPH1
LX51 LINKER/LOCATER V4.66.1.0                                                         09/07/2023  18:22:32  PAGE 132


      000000B9H   SFRSYM    DATA     BYTE      EIP1
      000000BAH   SFRSYM    DATA     BYTE      EIP2
      00000082H   SFRSYM    DATA     BYTE      DPL0
      00000084H   SFRSYM    DATA     BYTE      DPL1
      000000C8H.6 SFRSYM    DATA     BIT       I3FR
      000000CFH   SFRSYM    DATA     BYTE      T2IE
      00000096H   SFRSYM    DATA     BYTE      TA
      000000C9H   SFRSYM    DATA     BYTE      T2IF
      000000C8H.2 SFRSYM    DATA     BIT       T2CM
      000000DFH   SFRSYM    DATA     BYTE      ADCON0
      000000DEH   SFRSYM    DATA     BYTE      ADCON1
      000000E9H   SFRSYM    DATA     BYTE      ADCON2
      000000B8H   SFRSYM    DATA     BYTE      IP
      000000CEH   SFRSYM    DATA     BYTE      CCEN
      000000D0H.7 SFRSYM    DATA     BIT       CY
      000000D2H   SFRSYM    DATA     BYTE      T34MOD
      00000093H   SFRSYM    DATA     BYTE      DPX0
      00000095H   SFRSYM    DATA     BYTE      DPX1
      000000F4H   SFRSYM    DATA     BYTE      I2CMSA
      000000F5H   SFRSYM    DATA     BYTE      I2CMCR
      00000081H   SFRSYM    DATA     BYTE      SP
      000000D0H.2 SFRSYM    DATA     BIT       OV
      000000F2H   SFRSYM    DATA     BYTE      I2CSCR
      000000C8H.7 SFRSYM    DATA     BIT       T2PS
      000000D1H   SFRSYM    DATA     BYTE      ADCMPC
      000000CBH   SFRSYM    DATA     BYTE      RLDH
      000000D5H   SFRSYM    DATA     BYTE      ADCMPH
      000000CAH   SFRSYM    DATA     BYTE      RLDL
      00000080H   SFRSYM    DATA     BIT       P00
      00000090H   SFRSYM    DATA     BIT       P10
      00000080H.1 SFRSYM    DATA     BIT       P01
      000000F7H   SFRSYM    DATA     BYTE      I2CMTP
      00000099H   SFRSYM    DATA     BYTE      SBUF
      00000087H   SFRSYM    DATA     BYTE      PCON
      000000A0H   SFRSYM    DATA     BIT       P20
      00000090H.1 SFRSYM    DATA     BIT       P11
      00000080H.2 SFRSYM    DATA     BIT       P02
      000000F5H   SFRSYM    DATA     BYTE      I2CMSR
      000000B0H   SFRSYM    DATA     BIT       P30
      000000A0H.1 SFRSYM    DATA     BIT       P21
      00000090H.2 SFRSYM    DATA     BIT       P12
      00000080H.3 SFRSYM    DATA     BIT       P03
      000000D4H   SFRSYM    DATA     BYTE      ADCMPL
      000000B0H.1 SFRSYM    DATA     BIT       P31
      000000A0H.2 SFRSYM    DATA     BIT       P22
      00000090H.3 SFRSYM    DATA     BIT       P13
      00000080H.4 SFRSYM    DATA     BIT       P04
      000000B0H.2 SFRSYM    DATA     BIT       P32
      000000A0H.3 SFRSYM    DATA     BIT       P23
      00000090H.4 SFRSYM    DATA     BIT       P14
      00000080H.5 SFRSYM    DATA     BIT       P05
      00000089H   SFRSYM    DATA     BYTE      TMOD
      00000088H   SFRSYM    DATA     BYTE      TCON
      000000B0H.3 SFRSYM    DATA     BIT       P33
      000000A0H.4 SFRSYM    DATA     BIT       P24
      00000090H.5 SFRSYM    DATA     BIT       P15
      00000080H.6 SFRSYM    DATA     BIT       P06
      000000B0H.4 SFRSYM    DATA     BIT       P34
      000000A0H.5 SFRSYM    DATA     BIT       P25
      00000090H.6 SFRSYM    DATA     BIT       P16
      00000080H.7 SFRSYM    DATA     BIT       P07
      000000B0H.5 SFRSYM    DATA     BIT       P35
      000000A0H.6 SFRSYM    DATA     BIT       P26
      00000090H.7 SFRSYM    DATA     BIT       P17
      000000F2H   SFRSYM    DATA     BYTE      I2CSSR
LX51 LINKER/LOCATER V4.66.1.0                                                         09/07/2023  18:22:32  PAGE 133


      000000B0H.6 SFRSYM    DATA     BIT       P36
      000000A0H.7 SFRSYM    DATA     BIT       P27
      000000ECH   SFRSYM    DATA     BYTE      SPCR
      000000DDH   SFRSYM    DATA     BYTE      ADRESH
      000000B0H.7 SFRSYM    DATA     BIT       P37
      000000EEH   SFRSYM    DATA     BYTE      SPDR
      000000EFH   SFRSYM    DATA     BYTE      SSCR
      000000D3H   SFRSYM    DATA     BYTE      ADDLYL
      000000DCH   SFRSYM    DATA     BYTE      ADRESL
      00000088H.1 SFRSYM    DATA     BIT       IE0
      00000088H.3 SFRSYM    DATA     BIT       IE1
      0000008FH   SFRSYM    DATA     BYTE      CLKDIV
      000000F0H   SFRSYM    DATA     BYTE      B
      00000091H   SFRSYM    DATA     BYTE      FUNCCR
      0000009AH   SFRSYM    DATA     BYTE      P0TRIS
      000000A1H   SFRSYM    DATA     BYTE      P1TRIS
      000000A2H   SFRSYM    DATA     BYTE      P2TRIS
      000000E0H   SFRSYM    DATA     BYTE      ACC
      000000A3H   SFRSYM    DATA     BYTE      P3TRIS
      000000A8H.4 SFRSYM    DATA     BIT       ES0
      000000A8H.6 SFRSYM    DATA     BIT       ES1
      000000A8H.1 SFRSYM    DATA     BIT       ET0
      000000EDH   SFRSYM    DATA     BYTE      SPSR
      000000A8H.3 SFRSYM    DATA     BIT       ET1
      00000088H.5 SFRSYM    DATA     BIT       TF0
      000000A8H.5 SFRSYM    DATA     BIT       ET2
      00000098H   SFRSYM    DATA     BIT       RI0
      00000088H.7 SFRSYM    DATA     BIT       TF1
      0000008CH   SFRSYM    DATA     BYTE      TH0
      000000A8H   SFRSYM    DATA     BIT       EX0
      00000098H.1 SFRSYM    DATA     BIT       TI0
      00000088H   SFRSYM    DATA     BIT       IT0
      0000008DH   SFRSYM    DATA     BYTE      TH1
      000000A8H.2 SFRSYM    DATA     BIT       EX1
      00000088H.2 SFRSYM    DATA     BIT       IT1
      000000CDH   SFRSYM    DATA     BYTE      TH2
      000000D0H   SFRSYM    DATA     BIT       P
      000000DBH   SFRSYM    DATA     BYTE      TH3
      000000E3H   SFRSYM    DATA     BYTE      TH4
      0000008AH   SFRSYM    DATA     BYTE      TL0
      0000008BH   SFRSYM    DATA     BYTE      TL1
      00000098H.2 SFRSYM    DATA     BIT       U0RB8
      000000CCH   SFRSYM    DATA     BYTE      TL2
      000000B8H.4 SFRSYM    DATA     BIT       PS0
      000000DAH   SFRSYM    DATA     BYTE      TL3
      000000BFH   SFRSYM    DATA     BYTE      BUZCON
      000000B8H.6 SFRSYM    DATA     BIT       PS1
      000000B8H.1 SFRSYM    DATA     BIT       PT0
      00000098H.3 SFRSYM    DATA     BIT       U0TB8
      000000E2H   SFRSYM    DATA     BYTE      TL4
      000000D0H.3 SFRSYM    DATA     BIT       RS0
      000000B8H.3 SFRSYM    DATA     BIT       PT1
      000000D0H.4 SFRSYM    DATA     BIT       RS1
      000000B8H.5 SFRSYM    DATA     BIT       PT2
      00000098H.7 SFRSYM    DATA     BIT       U0SM0
      00000088H.4 SFRSYM    DATA     BIT       TR0
      000000BEH   SFRSYM    DATA     BYTE      BUZDIV
      00000098H.6 SFRSYM    DATA     BIT       U0SM1
      00000088H.6 SFRSYM    DATA     BIT       TR1
      000000B8H   SFRSYM    DATA     BIT       PX0
      00000098H.5 SFRSYM    DATA     BIT       U0SM2
      000000B8H.2 SFRSYM    DATA     BIT       PX1
      000000BDH   SFRSYM    DATA     BYTE      WUTCRH
      00000099H   SFRSYM    DATA     BYTE      SBUF0
      000000EBH   SFRSYM    DATA     BYTE      SBUF1
LX51 LINKER/LOCATER V4.66.1.0                                                         09/07/2023  18:22:32  PAGE 134


      000000BCH   SFRSYM    DATA     BYTE      WUTCRL
      00000098H   SFRSYM    DATA     BYTE      SCON0
      000000EAH   SFRSYM    DATA     BYTE      SCON1
      000000C8H   SFRSYM    DATA     BYTE      T2CON
      00000086H   SFRSYM    DATA     BYTE      DPS
      000000FEH   SFRSYM    DATA     BYTE      MDATA
      000000F6H   SFRSYM    DATA     BYTE      I2CMBUF
      000000F1H   SFRSYM    DATA     BYTE      I2CSADR
      00000098H.4 SFRSYM    DATA     BIT       U0REN
      000000C8H.5 SFRSYM    DATA     BIT       CAPES
      000000FDH   SFRSYM    DATA     BYTE      MADRH
      0000008EH   SFRSYM    DATA     BYTE      CKCON
      000000F3H   SFRSYM    DATA     BYTE      I2CSBUF
      000000FCH   SFRSYM    DATA     BYTE      MADRL
      000000D0H.5 SFRSYM    DATA     BIT       F0
      000000FBH   SFRSYM    DATA     BYTE      MLOCK
      000000D0H   SFRSYM    DATA     BYTE      PSW
      00000097H   SFRSYM    DATA     BYTE      WDCON

      01001ABBH   BLOCK     CODE     ---       LVL=0
      00000007H   SYMBOL    DATA     BYTE      TsysCoefficient
      01001ABBH   BLOCK     CODE     NEAR LAB  LVL=1
      00000006H   SYMBOL    DATA     BYTE      Temp
      ---         BLOCKEND  ---      ---       LVL=1
      01001ABBH   LINE      CODE     ---       #81
      01001ABBH   LINE      CODE     ---       #82
      01001ABBH   LINE      CODE     ---       #83
      01001ABBH   LINE      CODE     ---       #85
      01001ABDH   LINE      CODE     ---       #86
      01001AC0H   LINE      CODE     ---       #87
      01001AC7H   LINE      CODE     ---       #88
      01001AC9H   LINE      CODE     ---       #89
      ---         BLOCKEND  ---      ---       LVL=0

      0100177BH   BLOCK     CODE     ---       LVL=0
      0100177BH   LINE      CODE     ---       #98
      0100177BH   LINE      CODE     ---       #99
      0100177BH   LINE      CODE     ---       #100
      0100177EH   LINE      CODE     ---       #101
      0100177EH   LINE      CODE     ---       #102
      01001780H   LINE      CODE     ---       #103
      01001783H   LINE      CODE     ---       #104
      01001786H   LINE      CODE     ---       #105
      01001789H   LINE      CODE     ---       #106
      0100178BH   LINE      CODE     ---       #107
      0100178CH   LINE      CODE     ---       #109
      0100178CH   LINE      CODE     ---       #110
      0100178FH   LINE      CODE     ---       #111
      01001792H   LINE      CODE     ---       #112
      01001795H   LINE      CODE     ---       #113
      01001795H   LINE      CODE     ---       #114
      ---         BLOCKEND  ---      ---       LVL=0

      01001F7DH   BLOCK     CODE     ---       LVL=0
      01001F7DH   LINE      CODE     ---       #123
      01001F7DH   LINE      CODE     ---       #124
      01001F7DH   LINE      CODE     ---       #125
      01001F80H   LINE      CODE     ---       #126
      ---         BLOCKEND  ---      ---       LVL=0

      01001F81H   BLOCK     CODE     ---       LVL=0
      01001F81H   LINE      CODE     ---       #135
      01001F81H   LINE      CODE     ---       #136
      01001F81H   LINE      CODE     ---       #137
      01001F84H   LINE      CODE     ---       #138
LX51 LINKER/LOCATER V4.66.1.0                                                         09/07/2023  18:22:32  PAGE 135


      ---         BLOCKEND  ---      ---       LVL=0

      01001DDBH   BLOCK     CODE     ---       LVL=0
      01001DDBH   LINE      CODE     ---       #147
      01001DDBH   LINE      CODE     ---       #148
      01001DDBH   LINE      CODE     ---       #149
      01001DE4H   LINE      CODE     ---       #150
      ---         BLOCKEND  ---      ---       LVL=0

      01001796H   BLOCK     CODE     ---       LVL=0
      01001796H   LINE      CODE     ---       #159
      01001796H   LINE      CODE     ---       #160
      01001796H   LINE      CODE     ---       #161
      01001799H   LINE      CODE     ---       #162
      01001799H   LINE      CODE     ---       #163
      0100179BH   LINE      CODE     ---       #164
      0100179EH   LINE      CODE     ---       #165
      010017A1H   LINE      CODE     ---       #166
      010017A4H   LINE      CODE     ---       #167
      010017A6H   LINE      CODE     ---       #168
      010017A7H   LINE      CODE     ---       #170
      010017A7H   LINE      CODE     ---       #171
      010017AAH   LINE      CODE     ---       #172
      010017ADH   LINE      CODE     ---       #173
      010017B0H   LINE      CODE     ---       #174
      010017B0H   LINE      CODE     ---       #175
      ---         BLOCKEND  ---      ---       LVL=0

      ---         MODULE    ---      ---       ?C_STARTUP
      01000000H   PUBLIC    CODE     ---       ?C_STARTUP
      000000E0H   SYMBOL    DATA     ---       ACC
      000000F0H   SYMBOL    DATA     ---       B
      00000083H   SYMBOL    DATA     ---       DPH
      00000082H   SYMBOL    DATA     ---       DPL
      00000000H   SYMBOL    NUMBER   ---       IBPSTACK
      00000100H   SYMBOL    NUMBER   ---       IBPSTACKTOP
      00000100H   SYMBOL    NUMBER   ---       IDATALEN
      01000870H   SYMBOL    CODE     ---       IDATALOOP
      00000000H   SYMBOL    NUMBER   ---       PBPSTACK
      00000100H   SYMBOL    NUMBER   ---       PBPSTACKTOP
      00000000H   SYMBOL    NUMBER   ---       PDATALEN
      00000000H   SYMBOL    NUMBER   ---       PDATASTART
      00000000H   SYMBOL    NUMBER   ---       PPAGE
      00000000H   SYMBOL    NUMBER   ---       PPAGEENABLE
      000000A0H   SYMBOL    DATA     ---       PPAGE_SFR
      00000081H   SYMBOL    DATA     ---       SP
      0100086DH   SYMBOL    CODE     ---       STARTUP1
      00000000H   SYMBOL    NUMBER   ---       XBPSTACK
      00000000H   SYMBOL    NUMBER   ---       XBPSTACKTOP
      00000400H   SYMBOL    NUMBER   ---       XDATALEN
      0100087BH   SYMBOL    CODE     ---       XDATALOOP
      00000000H   SYMBOL    NUMBER   ---       XDATASTART
      01000000H   LINE      CODE     ---       #126
      0100086DH   LINE      CODE     ---       #133
      0100086FH   LINE      CODE     ---       #134
      01000870H   LINE      CODE     ---       #135
      01000871H   LINE      CODE     ---       #136
      01000873H   LINE      CODE     ---       #140
      01000876H   LINE      CODE     ---       #141
      01000878H   LINE      CODE     ---       #145
      0100087AH   LINE      CODE     ---       #147
      0100087BH   LINE      CODE     ---       #148
      0100087CH   LINE      CODE     ---       #149
      0100087DH   LINE      CODE     ---       #150
      0100087FH   LINE      CODE     ---       #151
LX51 LINKER/LOCATER V4.66.1.0                                                         09/07/2023  18:22:32  PAGE 136


      01000881H   LINE      CODE     ---       #185
      01000884H   LINE      CODE     ---       #196

      ---         MODULE    ---      ---       TEST_UART
      0100185AH   PUBLIC    CODE     ---       _puts
      01001D26H   PUBLIC    CODE     ---       getchar
      01001BA4H   PUBLIC    CODE     ---       _putchar
      01000B19H   PUBLIC    CODE     ---       _UART_ISR_Config
      01000FB9H   PUBLIC    CODE     ---       _UART_Config
      000000C8H   SFRSYM    DATA     BIT       T2I0
      000000C3H   SFRSYM    DATA     BYTE      CCH1
      00000080H   SFRSYM    DATA     BYTE      P0
      000000C8H.1 SFRSYM    DATA     BIT       T2I1
      000000C5H   SFRSYM    DATA     BYTE      CCH2
      00000090H   SFRSYM    DATA     BYTE      P1
      000000C7H   SFRSYM    DATA     BYTE      CCH3
      000000ACH   SFRSYM    DATA     BYTE      P0EXTIE
      000000A0H   SFRSYM    DATA     BYTE      P2
      000000B4H   SFRSYM    DATA     BYTE      P0EXTIF
      000000B0H   SFRSYM    DATA     BYTE      P3
      000000ADH   SFRSYM    DATA     BYTE      P1EXTIE
      000000D0H.6 SFRSYM    DATA     BIT       AC
      000000FFH   SFRSYM    DATA     BYTE      MCTRL
      000000C2H   SFRSYM    DATA     BYTE      CCL1
      000000B5H   SFRSYM    DATA     BYTE      P1EXTIF
      000000AEH   SFRSYM    DATA     BYTE      P2EXTIE
      000000C4H   SFRSYM    DATA     BYTE      CCL2
      000000B6H   SFRSYM    DATA     BYTE      P2EXTIF
      000000AFH   SFRSYM    DATA     BYTE      P3EXTIE
      000000A8H.7 SFRSYM    DATA     BIT       EA
      000000C6H   SFRSYM    DATA     BYTE      CCL3
      000000B7H   SFRSYM    DATA     BYTE      P3EXTIF
      000000AAH   SFRSYM    DATA     BYTE      EIE2
      000000B2H   SFRSYM    DATA     BYTE      EIF2
      000000C8H.3 SFRSYM    DATA     BIT       T2R0
      000000C8H.4 SFRSYM    DATA     BIT       T2R1
      00000083H   SFRSYM    DATA     BYTE      DPH0
      000000A8H   SFRSYM    DATA     BYTE      IE
      00000085H   SFRSYM    DATA     BYTE      DPH1
      000000B9H   SFRSYM    DATA     BYTE      EIP1
      000000BAH   SFRSYM    DATA     BYTE      EIP2
      00000082H   SFRSYM    DATA     BYTE      DPL0
      00000084H   SFRSYM    DATA     BYTE      DPL1
      000000C8H.6 SFRSYM    DATA     BIT       I3FR
      000000CFH   SFRSYM    DATA     BYTE      T2IE
      00000096H   SFRSYM    DATA     BYTE      TA
      000000C9H   SFRSYM    DATA     BYTE      T2IF
      000000C8H.2 SFRSYM    DATA     BIT       T2CM
      000000DFH   SFRSYM    DATA     BYTE      ADCON0
      000000DEH   SFRSYM    DATA     BYTE      ADCON1
      000000E9H   SFRSYM    DATA     BYTE      ADCON2
      000000B8H   SFRSYM    DATA     BYTE      IP
      000000CEH   SFRSYM    DATA     BYTE      CCEN
      000000D0H.7 SFRSYM    DATA     BIT       CY
      000000D2H   SFRSYM    DATA     BYTE      T34MOD
      00000093H   SFRSYM    DATA     BYTE      DPX0
      00000095H   SFRSYM    DATA     BYTE      DPX1
      000000F4H   SFRSYM    DATA     BYTE      I2CMSA
      000000F5H   SFRSYM    DATA     BYTE      I2CMCR
      00000081H   SFRSYM    DATA     BYTE      SP
      000000D0H.2 SFRSYM    DATA     BIT       OV
      000000F2H   SFRSYM    DATA     BYTE      I2CSCR
      000000C8H.7 SFRSYM    DATA     BIT       T2PS
      000000D1H   SFRSYM    DATA     BYTE      ADCMPC
      000000CBH   SFRSYM    DATA     BYTE      RLDH
LX51 LINKER/LOCATER V4.66.1.0                                                         09/07/2023  18:22:32  PAGE 137


      000000D5H   SFRSYM    DATA     BYTE      ADCMPH
      000000CAH   SFRSYM    DATA     BYTE      RLDL
      00000080H   SFRSYM    DATA     BIT       P00
      00000090H   SFRSYM    DATA     BIT       P10
      00000080H.1 SFRSYM    DATA     BIT       P01
      000000F7H   SFRSYM    DATA     BYTE      I2CMTP
      00000099H   SFRSYM    DATA     BYTE      SBUF
      00000087H   SFRSYM    DATA     BYTE      PCON
      000000A0H   SFRSYM    DATA     BIT       P20
      00000090H.1 SFRSYM    DATA     BIT       P11
      00000080H.2 SFRSYM    DATA     BIT       P02
      000000F5H   SFRSYM    DATA     BYTE      I2CMSR
      000000B0H   SFRSYM    DATA     BIT       P30
      000000A0H.1 SFRSYM    DATA     BIT       P21
      00000090H.2 SFRSYM    DATA     BIT       P12
      00000080H.3 SFRSYM    DATA     BIT       P03
      000000D4H   SFRSYM    DATA     BYTE      ADCMPL
      000000B0H.1 SFRSYM    DATA     BIT       P31
      000000A0H.2 SFRSYM    DATA     BIT       P22
      00000090H.3 SFRSYM    DATA     BIT       P13
      00000080H.4 SFRSYM    DATA     BIT       P04
      000000B0H.2 SFRSYM    DATA     BIT       P32
      000000A0H.3 SFRSYM    DATA     BIT       P23
      00000090H.4 SFRSYM    DATA     BIT       P14
      00000080H.5 SFRSYM    DATA     BIT       P05
      00000089H   SFRSYM    DATA     BYTE      TMOD
      00000088H   SFRSYM    DATA     BYTE      TCON
      000000B0H.3 SFRSYM    DATA     BIT       P33
      000000A0H.4 SFRSYM    DATA     BIT       P24
      00000090H.5 SFRSYM    DATA     BIT       P15
      00000080H.6 SFRSYM    DATA     BIT       P06
      000000B0H.4 SFRSYM    DATA     BIT       P34
      000000A0H.5 SFRSYM    DATA     BIT       P25
      00000090H.6 SFRSYM    DATA     BIT       P16
      00000080H.7 SFRSYM    DATA     BIT       P07
      000000B0H.5 SFRSYM    DATA     BIT       P35
      000000A0H.6 SFRSYM    DATA     BIT       P26
      00000090H.7 SFRSYM    DATA     BIT       P17
      000000F2H   SFRSYM    DATA     BYTE      I2CSSR
      000000B0H.6 SFRSYM    DATA     BIT       P36
      000000A0H.7 SFRSYM    DATA     BIT       P27
      000000ECH   SFRSYM    DATA     BYTE      SPCR
      000000DDH   SFRSYM    DATA     BYTE      ADRESH
      000000B0H.7 SFRSYM    DATA     BIT       P37
      000000EEH   SFRSYM    DATA     BYTE      SPDR
      000000EFH   SFRSYM    DATA     BYTE      SSCR
      000000D3H   SFRSYM    DATA     BYTE      ADDLYL
      000000DCH   SFRSYM    DATA     BYTE      ADRESL
      00000088H.1 SFRSYM    DATA     BIT       IE0
      00000088H.3 SFRSYM    DATA     BIT       IE1
      0000008FH   SFRSYM    DATA     BYTE      CLKDIV
      000000F0H   SFRSYM    DATA     BYTE      B
      00000091H   SFRSYM    DATA     BYTE      FUNCCR
      0000009AH   SFRSYM    DATA     BYTE      P0TRIS
      000000A1H   SFRSYM    DATA     BYTE      P1TRIS
      000000A2H   SFRSYM    DATA     BYTE      P2TRIS
      000000E0H   SFRSYM    DATA     BYTE      ACC
      000000A3H   SFRSYM    DATA     BYTE      P3TRIS
      000000A8H.4 SFRSYM    DATA     BIT       ES0
      000000A8H.6 SFRSYM    DATA     BIT       ES1
      000000A8H.1 SFRSYM    DATA     BIT       ET0
      000000EDH   SFRSYM    DATA     BYTE      SPSR
      000000A8H.3 SFRSYM    DATA     BIT       ET1
      00000088H.5 SFRSYM    DATA     BIT       TF0
      000000A8H.5 SFRSYM    DATA     BIT       ET2
LX51 LINKER/LOCATER V4.66.1.0                                                         09/07/2023  18:22:32  PAGE 138


      00000098H   SFRSYM    DATA     BIT       RI0
      00000088H.7 SFRSYM    DATA     BIT       TF1
      0000008CH   SFRSYM    DATA     BYTE      TH0
      000000A8H   SFRSYM    DATA     BIT       EX0
      00000098H.1 SFRSYM    DATA     BIT       TI0
      00000088H   SFRSYM    DATA     BIT       IT0
      0000008DH   SFRSYM    DATA     BYTE      TH1
      000000A8H.2 SFRSYM    DATA     BIT       EX1
      00000088H.2 SFRSYM    DATA     BIT       IT1
      000000CDH   SFRSYM    DATA     BYTE      TH2
      000000D0H   SFRSYM    DATA     BIT       P
      000000DBH   SFRSYM    DATA     BYTE      TH3
      000000E3H   SFRSYM    DATA     BYTE      TH4
      0000008AH   SFRSYM    DATA     BYTE      TL0
      0000008BH   SFRSYM    DATA     BYTE      TL1
      00000098H.2 SFRSYM    DATA     BIT       U0RB8
      000000CCH   SFRSYM    DATA     BYTE      TL2
      000000B8H.4 SFRSYM    DATA     BIT       PS0
      000000DAH   SFRSYM    DATA     BYTE      TL3
      000000BFH   SFRSYM    DATA     BYTE      BUZCON
      000000B8H.6 SFRSYM    DATA     BIT       PS1
      000000B8H.1 SFRSYM    DATA     BIT       PT0
      00000098H.3 SFRSYM    DATA     BIT       U0TB8
      000000E2H   SFRSYM    DATA     BYTE      TL4
      000000D0H.3 SFRSYM    DATA     BIT       RS0
      000000B8H.3 SFRSYM    DATA     BIT       PT1
      000000D0H.4 SFRSYM    DATA     BIT       RS1
      000000B8H.5 SFRSYM    DATA     BIT       PT2
      00000098H.7 SFRSYM    DATA     BIT       U0SM0
      00000088H.4 SFRSYM    DATA     BIT       TR0
      000000BEH   SFRSYM    DATA     BYTE      BUZDIV
      00000098H.6 SFRSYM    DATA     BIT       U0SM1
      00000088H.6 SFRSYM    DATA     BIT       TR1
      000000B8H   SFRSYM    DATA     BIT       PX0
      00000098H.5 SFRSYM    DATA     BIT       U0SM2
      000000B8H.2 SFRSYM    DATA     BIT       PX1
      000000BDH   SFRSYM    DATA     BYTE      WUTCRH
      00000099H   SFRSYM    DATA     BYTE      SBUF0
      000000EBH   SFRSYM    DATA     BYTE      SBUF1
      000000BCH   SFRSYM    DATA     BYTE      WUTCRL
      00000098H   SFRSYM    DATA     BYTE      SCON0
      000000EAH   SFRSYM    DATA     BYTE      SCON1
      000000C8H   SFRSYM    DATA     BYTE      T2CON
      00000086H   SFRSYM    DATA     BYTE      DPS
      000000FEH   SFRSYM    DATA     BYTE      MDATA
      000000F6H   SFRSYM    DATA     BYTE      I2CMBUF
      000000F1H   SFRSYM    DATA     BYTE      I2CSADR
      00000098H.4 SFRSYM    DATA     BIT       U0REN
      000000C8H.5 SFRSYM    DATA     BIT       CAPES
      000000FDH   SFRSYM    DATA     BYTE      MADRH
      0000008EH   SFRSYM    DATA     BYTE      CKCON
      000000F3H   SFRSYM    DATA     BYTE      I2CSBUF
      000000FCH   SFRSYM    DATA     BYTE      MADRL
      000000D0H.5 SFRSYM    DATA     BIT       F0
      000000FBH   SFRSYM    DATA     BYTE      MLOCK
      000000D0H   SFRSYM    DATA     BYTE      PSW
      00000097H   SFRSYM    DATA     BYTE      WDCON

      01000FB9H   BLOCK     CODE     ---       LVL=0
      0000002DH   SYMBOL    DATA     BYTE      UARTChose
      01000FBBH   BLOCK     CODE     NEAR LAB  LVL=1
      00000006H   SYMBOL    DATA     WORD      BRTValue
      0000002EH   SYMBOL    DATA     DWORD     BaudRateVlue
      ---         BLOCKEND  ---      ---       LVL=1
      01000FB9H   LINE      CODE     ---       #9
LX51 LINKER/LOCATER V4.66.1.0                                                         09/07/2023  18:22:32  PAGE 139


      01000FBBH   LINE      CODE     ---       #10
      01000FBBH   LINE      CODE     ---       #13
      01000FBDH   LINE      CODE     ---       #14
      01000FC7H   LINE      CODE     ---       #17
      01000FD0H   LINE      CODE     ---       #19
      01000FD5H   LINE      CODE     ---       #22
      01000FDAH   LINE      CODE     ---       #24
      01000FDFH   LINE      CODE     ---       #30
      01000FE3H   LINE      CODE     ---       #34
      01000FE6H   LINE      CODE     ---       #36
      01000FE9H   LINE      CODE     ---       #39
      01000FEFH   LINE      CODE     ---       #40
      01000FF4H   LINE      CODE     ---       #142
      ---         BLOCKEND  ---      ---       LVL=0

      01000B19H   BLOCK     CODE     ---       LVL=0
      00000007H   SYMBOL    DATA     BYTE      UARTChose
      00000036H   SYMBOL    DATA     BYTE      IRQPN
      01000B19H   LINE      CODE     ---       #152
      01000B1BH   LINE      CODE     ---       #153
      01000B1BH   LINE      CODE     ---       #155
      01000B1EH   LINE      CODE     ---       #157
      01000B93H   LINE      CODE     ---       #159
      01000B96H   LINE      CODE     ---       #160
      ---         BLOCKEND  ---      ---       LVL=0

      01001BA4H   BLOCK     CODE     ---       LVL=0
      00000007H   SYMBOL    DATA     CHAR      ch
      01001BA4H   LINE      CODE     ---       #169
      01001BA4H   LINE      CODE     ---       #170
      01001BA4H   LINE      CODE     ---       #171
      01001BA6H   LINE      CODE     ---       #172
      01001BABH   LINE      CODE     ---       #174
      01001BAEH   LINE      CODE     ---       #175
      01001BB0H   LINE      CODE     ---       #176
      ---         BLOCKEND  ---      ---       LVL=0

      01001D26H   BLOCK     CODE     ---       LVL=0
      01001D26H   LINE      CODE     ---       #183
      01001D26H   LINE      CODE     ---       #184
      01001D26H   LINE      CODE     ---       #185
      01001D2BH   LINE      CODE     ---       #187
      01001D2EH   LINE      CODE     ---       #188
      01001D30H   LINE      CODE     ---       #189
      ---         BLOCKEND  ---      ---       LVL=0

      0100185AH   BLOCK     CODE     ---       LVL=0
      00000001H   SYMBOL    DATA     ---       s
      0100185AH   LINE      CODE     ---       #191
      0100185AH   LINE      CODE     ---       #192
      0100185AH   LINE      CODE     ---       #193
      01001860H   LINE      CODE     ---       #194
      01001860H   LINE      CODE     ---       #195
      01001863H   LINE      CODE     ---       #196
      0100186AH   LINE      CODE     ---       #197
      0100186CH   LINE      CODE     ---       #198
      0100186FH   LINE      CODE     ---       #199
      ---         BLOCKEND  ---      ---       LVL=0

      ---         MODULE    ---      ---       TEST_LED
      01001336H   PUBLIC    CODE     ---       LED_Run
      01001B48H   PUBLIC    CODE     ---       GPIO_Config
      000000C8H   SFRSYM    DATA     BIT       T2I0
      000000C3H   SFRSYM    DATA     BYTE      CCH1
      00000080H   SFRSYM    DATA     BYTE      P0
LX51 LINKER/LOCATER V4.66.1.0                                                         09/07/2023  18:22:32  PAGE 140


      000000C8H.1 SFRSYM    DATA     BIT       T2I1
      000000C5H   SFRSYM    DATA     BYTE      CCH2
      00000090H   SFRSYM    DATA     BYTE      P1
      000000C7H   SFRSYM    DATA     BYTE      CCH3
      000000ACH   SFRSYM    DATA     BYTE      P0EXTIE
      000000A0H   SFRSYM    DATA     BYTE      P2
      000000B4H   SFRSYM    DATA     BYTE      P0EXTIF
      000000B0H   SFRSYM    DATA     BYTE      P3
      000000ADH   SFRSYM    DATA     BYTE      P1EXTIE
      000000D0H.6 SFRSYM    DATA     BIT       AC
      000000FFH   SFRSYM    DATA     BYTE      MCTRL
      000000C2H   SFRSYM    DATA     BYTE      CCL1
      000000B5H   SFRSYM    DATA     BYTE      P1EXTIF
      000000AEH   SFRSYM    DATA     BYTE      P2EXTIE
      000000C4H   SFRSYM    DATA     BYTE      CCL2
      000000B6H   SFRSYM    DATA     BYTE      P2EXTIF
      000000AFH   SFRSYM    DATA     BYTE      P3EXTIE
      000000A8H.7 SFRSYM    DATA     BIT       EA
      000000C6H   SFRSYM    DATA     BYTE      CCL3
      000000B7H   SFRSYM    DATA     BYTE      P3EXTIF
      000000AAH   SFRSYM    DATA     BYTE      EIE2
      000000B2H   SFRSYM    DATA     BYTE      EIF2
      000000C8H.3 SFRSYM    DATA     BIT       T2R0
      000000C8H.4 SFRSYM    DATA     BIT       T2R1
      00000083H   SFRSYM    DATA     BYTE      DPH0
      000000A8H   SFRSYM    DATA     BYTE      IE
      00000085H   SFRSYM    DATA     BYTE      DPH1
      000000B9H   SFRSYM    DATA     BYTE      EIP1
      000000BAH   SFRSYM    DATA     BYTE      EIP2
      00000082H   SFRSYM    DATA     BYTE      DPL0
      00000084H   SFRSYM    DATA     BYTE      DPL1
      000000C8H.6 SFRSYM    DATA     BIT       I3FR
      000000CFH   SFRSYM    DATA     BYTE      T2IE
      00000096H   SFRSYM    DATA     BYTE      TA
      000000C9H   SFRSYM    DATA     BYTE      T2IF
      000000C8H.2 SFRSYM    DATA     BIT       T2CM
      000000DFH   SFRSYM    DATA     BYTE      ADCON0
      000000DEH   SFRSYM    DATA     BYTE      ADCON1
      000000E9H   SFRSYM    DATA     BYTE      ADCON2
      000000B8H   SFRSYM    DATA     BYTE      IP
      000000CEH   SFRSYM    DATA     BYTE      CCEN
      000000D0H.7 SFRSYM    DATA     BIT       CY
      000000D2H   SFRSYM    DATA     BYTE      T34MOD
      00000093H   SFRSYM    DATA     BYTE      DPX0
      00000095H   SFRSYM    DATA     BYTE      DPX1
      000000F4H   SFRSYM    DATA     BYTE      I2CMSA
      000000F5H   SFRSYM    DATA     BYTE      I2CMCR
      00000081H   SFRSYM    DATA     BYTE      SP
      000000D0H.2 SFRSYM    DATA     BIT       OV
      000000F2H   SFRSYM    DATA     BYTE      I2CSCR
      000000C8H.7 SFRSYM    DATA     BIT       T2PS
      000000D1H   SFRSYM    DATA     BYTE      ADCMPC
      000000CBH   SFRSYM    DATA     BYTE      RLDH
      000000D5H   SFRSYM    DATA     BYTE      ADCMPH
      000000CAH   SFRSYM    DATA     BYTE      RLDL
      00000080H   SFRSYM    DATA     BIT       P00
      00000090H   SFRSYM    DATA     BIT       P10
      00000080H.1 SFRSYM    DATA     BIT       P01
      000000F7H   SFRSYM    DATA     BYTE      I2CMTP
      00000099H   SFRSYM    DATA     BYTE      SBUF
      00000087H   SFRSYM    DATA     BYTE      PCON
      000000A0H   SFRSYM    DATA     BIT       P20
      00000090H.1 SFRSYM    DATA     BIT       P11
      00000080H.2 SFRSYM    DATA     BIT       P02
      000000F5H   SFRSYM    DATA     BYTE      I2CMSR
LX51 LINKER/LOCATER V4.66.1.0                                                         09/07/2023  18:22:32  PAGE 141


      000000B0H   SFRSYM    DATA     BIT       P30
      000000A0H.1 SFRSYM    DATA     BIT       P21
      00000090H.2 SFRSYM    DATA     BIT       P12
      00000080H.3 SFRSYM    DATA     BIT       P03
      000000D4H   SFRSYM    DATA     BYTE      ADCMPL
      000000B0H.1 SFRSYM    DATA     BIT       P31
      000000A0H.2 SFRSYM    DATA     BIT       P22
      00000090H.3 SFRSYM    DATA     BIT       P13
      00000080H.4 SFRSYM    DATA     BIT       P04
      000000B0H.2 SFRSYM    DATA     BIT       P32
      000000A0H.3 SFRSYM    DATA     BIT       P23
      00000090H.4 SFRSYM    DATA     BIT       P14
      00000080H.5 SFRSYM    DATA     BIT       P05
      00000089H   SFRSYM    DATA     BYTE      TMOD
      00000088H   SFRSYM    DATA     BYTE      TCON
      000000B0H.3 SFRSYM    DATA     BIT       P33
      000000A0H.4 SFRSYM    DATA     BIT       P24
      00000090H.5 SFRSYM    DATA     BIT       P15
      00000080H.6 SFRSYM    DATA     BIT       P06
      000000B0H.4 SFRSYM    DATA     BIT       P34
      000000A0H.5 SFRSYM    DATA     BIT       P25
      00000090H.6 SFRSYM    DATA     BIT       P16
      00000080H.7 SFRSYM    DATA     BIT       P07
      000000B0H.5 SFRSYM    DATA     BIT       P35
      000000A0H.6 SFRSYM    DATA     BIT       P26
      00000090H.7 SFRSYM    DATA     BIT       P17
      000000F2H   SFRSYM    DATA     BYTE      I2CSSR
      000000B0H.6 SFRSYM    DATA     BIT       P36
      000000A0H.7 SFRSYM    DATA     BIT       P27
      000000ECH   SFRSYM    DATA     BYTE      SPCR
      000000DDH   SFRSYM    DATA     BYTE      ADRESH
      000000B0H.7 SFRSYM    DATA     BIT       P37
      000000EEH   SFRSYM    DATA     BYTE      SPDR
      000000EFH   SFRSYM    DATA     BYTE      SSCR
      000000D3H   SFRSYM    DATA     BYTE      ADDLYL
      000000DCH   SFRSYM    DATA     BYTE      ADRESL
      00000088H.1 SFRSYM    DATA     BIT       IE0
      00000088H.3 SFRSYM    DATA     BIT       IE1
      0000008FH   SFRSYM    DATA     BYTE      CLKDIV
      000000F0H   SFRSYM    DATA     BYTE      B
      00000091H   SFRSYM    DATA     BYTE      FUNCCR
      0000009AH   SFRSYM    DATA     BYTE      P0TRIS
      000000A1H   SFRSYM    DATA     BYTE      P1TRIS
      000000A2H   SFRSYM    DATA     BYTE      P2TRIS
      000000E0H   SFRSYM    DATA     BYTE      ACC
      000000A3H   SFRSYM    DATA     BYTE      P3TRIS
      000000A8H.4 SFRSYM    DATA     BIT       ES0
      000000A8H.6 SFRSYM    DATA     BIT       ES1
      000000A8H.1 SFRSYM    DATA     BIT       ET0
      000000EDH   SFRSYM    DATA     BYTE      SPSR
      000000A8H.3 SFRSYM    DATA     BIT       ET1
      00000088H.5 SFRSYM    DATA     BIT       TF0
      000000A8H.5 SFRSYM    DATA     BIT       ET2
      00000098H   SFRSYM    DATA     BIT       RI0
      00000088H.7 SFRSYM    DATA     BIT       TF1
      0000008CH   SFRSYM    DATA     BYTE      TH0
      000000A8H   SFRSYM    DATA     BIT       EX0
      00000098H.1 SFRSYM    DATA     BIT       TI0
      00000088H   SFRSYM    DATA     BIT       IT0
      0000008DH   SFRSYM    DATA     BYTE      TH1
      000000A8H.2 SFRSYM    DATA     BIT       EX1
      00000088H.2 SFRSYM    DATA     BIT       IT1
      000000CDH   SFRSYM    DATA     BYTE      TH2
      000000D0H   SFRSYM    DATA     BIT       P
      000000DBH   SFRSYM    DATA     BYTE      TH3
LX51 LINKER/LOCATER V4.66.1.0                                                         09/07/2023  18:22:32  PAGE 142


      000000E3H   SFRSYM    DATA     BYTE      TH4
      0000008AH   SFRSYM    DATA     BYTE      TL0
      0000008BH   SFRSYM    DATA     BYTE      TL1
      00000098H.2 SFRSYM    DATA     BIT       U0RB8
      000000CCH   SFRSYM    DATA     BYTE      TL2
      000000B8H.4 SFRSYM    DATA     BIT       PS0
      000000DAH   SFRSYM    DATA     BYTE      TL3
      000000BFH   SFRSYM    DATA     BYTE      BUZCON
      000000B8H.6 SFRSYM    DATA     BIT       PS1
      000000B8H.1 SFRSYM    DATA     BIT       PT0
      00000098H.3 SFRSYM    DATA     BIT       U0TB8
      000000E2H   SFRSYM    DATA     BYTE      TL4
      000000D0H.3 SFRSYM    DATA     BIT       RS0
      000000B8H.3 SFRSYM    DATA     BIT       PT1
      000000D0H.4 SFRSYM    DATA     BIT       RS1
      000000B8H.5 SFRSYM    DATA     BIT       PT2
      00000098H.7 SFRSYM    DATA     BIT       U0SM0
      00000088H.4 SFRSYM    DATA     BIT       TR0
      000000BEH   SFRSYM    DATA     BYTE      BUZDIV
      00000098H.6 SFRSYM    DATA     BIT       U0SM1
      00000088H.6 SFRSYM    DATA     BIT       TR1
      000000B8H   SFRSYM    DATA     BIT       PX0
      00000098H.5 SFRSYM    DATA     BIT       U0SM2
      000000B8H.2 SFRSYM    DATA     BIT       PX1
      000000BDH   SFRSYM    DATA     BYTE      WUTCRH
      00000099H   SFRSYM    DATA     BYTE      SBUF0
      000000EBH   SFRSYM    DATA     BYTE      SBUF1
      000000BCH   SFRSYM    DATA     BYTE      WUTCRL
      00000098H   SFRSYM    DATA     BYTE      SCON0
      000000EAH   SFRSYM    DATA     BYTE      SCON1
      000000C8H   SFRSYM    DATA     BYTE      T2CON
      00000086H   SFRSYM    DATA     BYTE      DPS
      000000FEH   SFRSYM    DATA     BYTE      MDATA
      000000F6H   SFRSYM    DATA     BYTE      I2CMBUF
      000000F1H   SFRSYM    DATA     BYTE      I2CSADR
      00000098H.4 SFRSYM    DATA     BIT       U0REN
      000000C8H.5 SFRSYM    DATA     BIT       CAPES
      000000FDH   SFRSYM    DATA     BYTE      MADRH
      0000008EH   SFRSYM    DATA     BYTE      CKCON
      000000F3H   SFRSYM    DATA     BYTE      I2CSBUF
      000000FCH   SFRSYM    DATA     BYTE      MADRL
      000000D0H.5 SFRSYM    DATA     BIT       F0
      000000FBH   SFRSYM    DATA     BYTE      MLOCK
      000000D0H   SFRSYM    DATA     BYTE      PSW
      00000097H   SFRSYM    DATA     BYTE      WDCON

      01001B48H   BLOCK     CODE     ---       LVL=0
      01001B48H   LINE      CODE     ---       #10
      01001B48H   LINE      CODE     ---       #11
      01001B48H   LINE      CODE     ---       #13
      01001B4DH   LINE      CODE     ---       #14
      01001B4FH   LINE      CODE     ---       #17
      01001B52H   LINE      CODE     ---       #18
      01001B55H   LINE      CODE     ---       #19
      ---         BLOCKEND  ---      ---       LVL=0

      01001336H   BLOCK     CODE     ---       LVL=0
      01001336H   LINE      CODE     ---       #27
      01001336H   LINE      CODE     ---       #28
      01001336H   LINE      CODE     ---       #30
      01001339H   LINE      CODE     ---       #33
      01001342H   LINE      CODE     ---       #34
      01001342H   LINE      CODE     ---       #35
      01001342H   LINE      CODE     ---       #36
      01001344H   LINE      CODE     ---       #37
LX51 LINKER/LOCATER V4.66.1.0                                                         09/07/2023  18:22:32  PAGE 143


      01001346H   LINE      CODE     ---       #38
      0100134DH   LINE      CODE     ---       #39
      0100134FH   LINE      CODE     ---       #40
      01001351H   LINE      CODE     ---       #41
      01001358H   LINE      CODE     ---       #42
      ---         BLOCKEND  ---      ---       LVL=0

      ---         MODULE    ---      ---       TEST_TIMER
      010012C3H   PUBLIC    CODE     ---       Timer_Config
      000000C8H   SFRSYM    DATA     BIT       T2I0
      000000C3H   SFRSYM    DATA     BYTE      CCH1
      00000080H   SFRSYM    DATA     BYTE      P0
      000000C8H.1 SFRSYM    DATA     BIT       T2I1
      000000C5H   SFRSYM    DATA     BYTE      CCH2
      00000090H   SFRSYM    DATA     BYTE      P1
      000000C7H   SFRSYM    DATA     BYTE      CCH3
      000000ACH   SFRSYM    DATA     BYTE      P0EXTIE
      000000A0H   SFRSYM    DATA     BYTE      P2
      000000B4H   SFRSYM    DATA     BYTE      P0EXTIF
      000000B0H   SFRSYM    DATA     BYTE      P3
      000000ADH   SFRSYM    DATA     BYTE      P1EXTIE
      000000D0H.6 SFRSYM    DATA     BIT       AC
      000000FFH   SFRSYM    DATA     BYTE      MCTRL
      000000C2H   SFRSYM    DATA     BYTE      CCL1
      000000B5H   SFRSYM    DATA     BYTE      P1EXTIF
      000000AEH   SFRSYM    DATA     BYTE      P2EXTIE
      000000C4H   SFRSYM    DATA     BYTE      CCL2
      000000B6H   SFRSYM    DATA     BYTE      P2EXTIF
      000000AFH   SFRSYM    DATA     BYTE      P3EXTIE
      000000A8H.7 SFRSYM    DATA     BIT       EA
      000000C6H   SFRSYM    DATA     BYTE      CCL3
      000000B7H   SFRSYM    DATA     BYTE      P3EXTIF
      000000AAH   SFRSYM    DATA     BYTE      EIE2
      000000B2H   SFRSYM    DATA     BYTE      EIF2
      000000C8H.3 SFRSYM    DATA     BIT       T2R0
      000000C8H.4 SFRSYM    DATA     BIT       T2R1
      00000083H   SFRSYM    DATA     BYTE      DPH0
      000000A8H   SFRSYM    DATA     BYTE      IE
      00000085H   SFRSYM    DATA     BYTE      DPH1
      000000B9H   SFRSYM    DATA     BYTE      EIP1
      000000BAH   SFRSYM    DATA     BYTE      EIP2
      00000082H   SFRSYM    DATA     BYTE      DPL0
      00000084H   SFRSYM    DATA     BYTE      DPL1
      000000C8H.6 SFRSYM    DATA     BIT       I3FR
      000000CFH   SFRSYM    DATA     BYTE      T2IE
      00000096H   SFRSYM    DATA     BYTE      TA
      000000C9H   SFRSYM    DATA     BYTE      T2IF
      000000C8H.2 SFRSYM    DATA     BIT       T2CM
      000000DFH   SFRSYM    DATA     BYTE      ADCON0
      000000DEH   SFRSYM    DATA     BYTE      ADCON1
      000000E9H   SFRSYM    DATA     BYTE      ADCON2
      000000B8H   SFRSYM    DATA     BYTE      IP
      000000CEH   SFRSYM    DATA     BYTE      CCEN
      000000D0H.7 SFRSYM    DATA     BIT       CY
      000000D2H   SFRSYM    DATA     BYTE      T34MOD
      00000093H   SFRSYM    DATA     BYTE      DPX0
      00000095H   SFRSYM    DATA     BYTE      DPX1
      000000F4H   SFRSYM    DATA     BYTE      I2CMSA
      000000F5H   SFRSYM    DATA     BYTE      I2CMCR
      00000081H   SFRSYM    DATA     BYTE      SP
      000000D0H.2 SFRSYM    DATA     BIT       OV
      000000F2H   SFRSYM    DATA     BYTE      I2CSCR
      000000C8H.7 SFRSYM    DATA     BIT       T2PS
      000000D1H   SFRSYM    DATA     BYTE      ADCMPC
      000000CBH   SFRSYM    DATA     BYTE      RLDH
LX51 LINKER/LOCATER V4.66.1.0                                                         09/07/2023  18:22:32  PAGE 144


      000000D5H   SFRSYM    DATA     BYTE      ADCMPH
      000000CAH   SFRSYM    DATA     BYTE      RLDL
      00000080H   SFRSYM    DATA     BIT       P00
      00000090H   SFRSYM    DATA     BIT       P10
      00000080H.1 SFRSYM    DATA     BIT       P01
      000000F7H   SFRSYM    DATA     BYTE      I2CMTP
      00000099H   SFRSYM    DATA     BYTE      SBUF
      00000087H   SFRSYM    DATA     BYTE      PCON
      000000A0H   SFRSYM    DATA     BIT       P20
      00000090H.1 SFRSYM    DATA     BIT       P11
      00000080H.2 SFRSYM    DATA     BIT       P02
      000000F5H   SFRSYM    DATA     BYTE      I2CMSR
      000000B0H   SFRSYM    DATA     BIT       P30
      000000A0H.1 SFRSYM    DATA     BIT       P21
      00000090H.2 SFRSYM    DATA     BIT       P12
      00000080H.3 SFRSYM    DATA     BIT       P03
      000000D4H   SFRSYM    DATA     BYTE      ADCMPL
      000000B0H.1 SFRSYM    DATA     BIT       P31
      000000A0H.2 SFRSYM    DATA     BIT       P22
      00000090H.3 SFRSYM    DATA     BIT       P13
      00000080H.4 SFRSYM    DATA     BIT       P04
      000000B0H.2 SFRSYM    DATA     BIT       P32
      000000A0H.3 SFRSYM    DATA     BIT       P23
      00000090H.4 SFRSYM    DATA     BIT       P14
      00000080H.5 SFRSYM    DATA     BIT       P05
      00000089H   SFRSYM    DATA     BYTE      TMOD
      00000088H   SFRSYM    DATA     BYTE      TCON
      000000B0H.3 SFRSYM    DATA     BIT       P33
      000000A0H.4 SFRSYM    DATA     BIT       P24
      00000090H.5 SFRSYM    DATA     BIT       P15
      00000080H.6 SFRSYM    DATA     BIT       P06
      000000B0H.4 SFRSYM    DATA     BIT       P34
      000000A0H.5 SFRSYM    DATA     BIT       P25
      00000090H.6 SFRSYM    DATA     BIT       P16
      00000080H.7 SFRSYM    DATA     BIT       P07
      000000B0H.5 SFRSYM    DATA     BIT       P35
      000000A0H.6 SFRSYM    DATA     BIT       P26
      00000090H.7 SFRSYM    DATA     BIT       P17
      000000F2H   SFRSYM    DATA     BYTE      I2CSSR
      000000B0H.6 SFRSYM    DATA     BIT       P36
      000000A0H.7 SFRSYM    DATA     BIT       P27
      000000ECH   SFRSYM    DATA     BYTE      SPCR
      000000DDH   SFRSYM    DATA     BYTE      ADRESH
      000000B0H.7 SFRSYM    DATA     BIT       P37
      000000EEH   SFRSYM    DATA     BYTE      SPDR
      000000EFH   SFRSYM    DATA     BYTE      SSCR
      000000D3H   SFRSYM    DATA     BYTE      ADDLYL
      000000DCH   SFRSYM    DATA     BYTE      ADRESL
      00000088H.1 SFRSYM    DATA     BIT       IE0
      00000088H.3 SFRSYM    DATA     BIT       IE1
      0000008FH   SFRSYM    DATA     BYTE      CLKDIV
      000000F0H   SFRSYM    DATA     BYTE      B
      00000091H   SFRSYM    DATA     BYTE      FUNCCR
      0000009AH   SFRSYM    DATA     BYTE      P0TRIS
      000000A1H   SFRSYM    DATA     BYTE      P1TRIS
      000000A2H   SFRSYM    DATA     BYTE      P2TRIS
      000000E0H   SFRSYM    DATA     BYTE      ACC
      000000A3H   SFRSYM    DATA     BYTE      P3TRIS
      000000A8H.4 SFRSYM    DATA     BIT       ES0
      000000A8H.6 SFRSYM    DATA     BIT       ES1
      000000A8H.1 SFRSYM    DATA     BIT       ET0
      000000EDH   SFRSYM    DATA     BYTE      SPSR
      000000A8H.3 SFRSYM    DATA     BIT       ET1
      00000088H.5 SFRSYM    DATA     BIT       TF0
      000000A8H.5 SFRSYM    DATA     BIT       ET2
LX51 LINKER/LOCATER V4.66.1.0                                                         09/07/2023  18:22:32  PAGE 145


      00000098H   SFRSYM    DATA     BIT       RI0
      00000088H.7 SFRSYM    DATA     BIT       TF1
      0000008CH   SFRSYM    DATA     BYTE      TH0
      000000A8H   SFRSYM    DATA     BIT       EX0
      00000098H.1 SFRSYM    DATA     BIT       TI0
      00000088H   SFRSYM    DATA     BIT       IT0
      0000008DH   SFRSYM    DATA     BYTE      TH1
      000000A8H.2 SFRSYM    DATA     BIT       EX1
      00000088H.2 SFRSYM    DATA     BIT       IT1
      000000CDH   SFRSYM    DATA     BYTE      TH2
      000000D0H   SFRSYM    DATA     BIT       P
      000000DBH   SFRSYM    DATA     BYTE      TH3
      000000E3H   SFRSYM    DATA     BYTE      TH4
      0000008AH   SFRSYM    DATA     BYTE      TL0
      0000008BH   SFRSYM    DATA     BYTE      TL1
      00000098H.2 SFRSYM    DATA     BIT       U0RB8
      000000CCH   SFRSYM    DATA     BYTE      TL2
      000000B8H.4 SFRSYM    DATA     BIT       PS0
      000000DAH   SFRSYM    DATA     BYTE      TL3
      000000BFH   SFRSYM    DATA     BYTE      BUZCON
      000000B8H.6 SFRSYM    DATA     BIT       PS1
      000000B8H.1 SFRSYM    DATA     BIT       PT0
      00000098H.3 SFRSYM    DATA     BIT       U0TB8
      000000E2H   SFRSYM    DATA     BYTE      TL4
      000000D0H.3 SFRSYM    DATA     BIT       RS0
      000000B8H.3 SFRSYM    DATA     BIT       PT1
      000000D0H.4 SFRSYM    DATA     BIT       RS1
      000000B8H.5 SFRSYM    DATA     BIT       PT2
      00000098H.7 SFRSYM    DATA     BIT       U0SM0
      00000088H.4 SFRSYM    DATA     BIT       TR0
      000000BEH   SFRSYM    DATA     BYTE      BUZDIV
      00000098H.6 SFRSYM    DATA     BIT       U0SM1
      00000088H.6 SFRSYM    DATA     BIT       TR1
      000000B8H   SFRSYM    DATA     BIT       PX0
      00000098H.5 SFRSYM    DATA     BIT       U0SM2
      000000B8H.2 SFRSYM    DATA     BIT       PX1
      000000BDH   SFRSYM    DATA     BYTE      WUTCRH
      00000099H   SFRSYM    DATA     BYTE      SBUF0
      000000EBH   SFRSYM    DATA     BYTE      SBUF1
      000000BCH   SFRSYM    DATA     BYTE      WUTCRL
      00000098H   SFRSYM    DATA     BYTE      SCON0
      000000EAH   SFRSYM    DATA     BYTE      SCON1
      000000C8H   SFRSYM    DATA     BYTE      T2CON
      00000086H   SFRSYM    DATA     BYTE      DPS
      000000FEH   SFRSYM    DATA     BYTE      MDATA
      000000F6H   SFRSYM    DATA     BYTE      I2CMBUF
      000000F1H   SFRSYM    DATA     BYTE      I2CSADR
      00000098H.4 SFRSYM    DATA     BIT       U0REN
      000000C8H.5 SFRSYM    DATA     BIT       CAPES
      000000FDH   SFRSYM    DATA     BYTE      MADRH
      0000008EH   SFRSYM    DATA     BYTE      CKCON
      000000F3H   SFRSYM    DATA     BYTE      I2CSBUF
      000000FCH   SFRSYM    DATA     BYTE      MADRL
      000000D0H.5 SFRSYM    DATA     BIT       F0
      000000FBH   SFRSYM    DATA     BYTE      MLOCK
      000000D0H   SFRSYM    DATA     BYTE      PSW
      00000097H   SFRSYM    DATA     BYTE      WDCON

      010012C3H   BLOCK     CODE     ---       LVL=0
      010012C3H   LINE      CODE     ---       #7
      010012C3H   LINE      CODE     ---       #8
      010012C3H   LINE      CODE     ---       #10
      010012CCH   LINE      CODE     ---       #12
      010012D3H   LINE      CODE     ---       #14
      010012DCH   LINE      CODE     ---       #17
LX51 LINKER/LOCATER V4.66.1.0                                                         09/07/2023  18:22:32  PAGE 146


      010012E1H   LINE      CODE     ---       #19
      010012E4H   LINE      CODE     ---       #21
      010012E7H   LINE      CODE     ---       #23
      ---         BLOCKEND  ---      ---       LVL=0

      ---         MODULE    ---      ---       DELAY
      010011C0H   PUBLIC    CODE     ---       _delay_ms
      000000C8H   SFRSYM    DATA     BIT       T2I0
      000000C3H   SFRSYM    DATA     BYTE      CCH1
      00000080H   SFRSYM    DATA     BYTE      P0
      000000C8H.1 SFRSYM    DATA     BIT       T2I1
      000000C5H   SFRSYM    DATA     BYTE      CCH2
      00000090H   SFRSYM    DATA     BYTE      P1
      000000C7H   SFRSYM    DATA     BYTE      CCH3
      000000ACH   SFRSYM    DATA     BYTE      P0EXTIE
      000000A0H   SFRSYM    DATA     BYTE      P2
      000000B4H   SFRSYM    DATA     BYTE      P0EXTIF
      000000B0H   SFRSYM    DATA     BYTE      P3
      000000ADH   SFRSYM    DATA     BYTE      P1EXTIE
      000000D0H.6 SFRSYM    DATA     BIT       AC
      000000FFH   SFRSYM    DATA     BYTE      MCTRL
      000000C2H   SFRSYM    DATA     BYTE      CCL1
      000000B5H   SFRSYM    DATA     BYTE      P1EXTIF
      000000AEH   SFRSYM    DATA     BYTE      P2EXTIE
      000000C4H   SFRSYM    DATA     BYTE      CCL2
      000000B6H   SFRSYM    DATA     BYTE      P2EXTIF
      000000AFH   SFRSYM    DATA     BYTE      P3EXTIE
      000000A8H.7 SFRSYM    DATA     BIT       EA
      000000C6H   SFRSYM    DATA     BYTE      CCL3
      000000B7H   SFRSYM    DATA     BYTE      P3EXTIF
      000000AAH   SFRSYM    DATA     BYTE      EIE2
      000000B2H   SFRSYM    DATA     BYTE      EIF2
      000000C8H.3 SFRSYM    DATA     BIT       T2R0
      000000C8H.4 SFRSYM    DATA     BIT       T2R1
      00000083H   SFRSYM    DATA     BYTE      DPH0
      000000A8H   SFRSYM    DATA     BYTE      IE
      00000085H   SFRSYM    DATA     BYTE      DPH1
      000000B9H   SFRSYM    DATA     BYTE      EIP1
      000000BAH   SFRSYM    DATA     BYTE      EIP2
      00000082H   SFRSYM    DATA     BYTE      DPL0
      00000084H   SFRSYM    DATA     BYTE      DPL1
      000000C8H.6 SFRSYM    DATA     BIT       I3FR
      000000CFH   SFRSYM    DATA     BYTE      T2IE
      00000096H   SFRSYM    DATA     BYTE      TA
      000000C9H   SFRSYM    DATA     BYTE      T2IF
      000000C8H.2 SFRSYM    DATA     BIT       T2CM
      000000DFH   SFRSYM    DATA     BYTE      ADCON0
      000000DEH   SFRSYM    DATA     BYTE      ADCON1
      000000E9H   SFRSYM    DATA     BYTE      ADCON2
      000000B8H   SFRSYM    DATA     BYTE      IP
      000000CEH   SFRSYM    DATA     BYTE      CCEN
      000000D0H.7 SFRSYM    DATA     BIT       CY
      000000D2H   SFRSYM    DATA     BYTE      T34MOD
      00000093H   SFRSYM    DATA     BYTE      DPX0
      00000095H   SFRSYM    DATA     BYTE      DPX1
      000000F4H   SFRSYM    DATA     BYTE      I2CMSA
      000000F5H   SFRSYM    DATA     BYTE      I2CMCR
      00000081H   SFRSYM    DATA     BYTE      SP
      000000D0H.2 SFRSYM    DATA     BIT       OV
      000000F2H   SFRSYM    DATA     BYTE      I2CSCR
      000000C8H.7 SFRSYM    DATA     BIT       T2PS
      000000D1H   SFRSYM    DATA     BYTE      ADCMPC
      000000CBH   SFRSYM    DATA     BYTE      RLDH
      000000D5H   SFRSYM    DATA     BYTE      ADCMPH
      000000CAH   SFRSYM    DATA     BYTE      RLDL
LX51 LINKER/LOCATER V4.66.1.0                                                         09/07/2023  18:22:32  PAGE 147


      00000080H   SFRSYM    DATA     BIT       P00
      00000090H   SFRSYM    DATA     BIT       P10
      00000080H.1 SFRSYM    DATA     BIT       P01
      000000F7H   SFRSYM    DATA     BYTE      I2CMTP
      00000099H   SFRSYM    DATA     BYTE      SBUF
      00000087H   SFRSYM    DATA     BYTE      PCON
      000000A0H   SFRSYM    DATA     BIT       P20
      00000090H.1 SFRSYM    DATA     BIT       P11
      00000080H.2 SFRSYM    DATA     BIT       P02
      000000F5H   SFRSYM    DATA     BYTE      I2CMSR
      000000B0H   SFRSYM    DATA     BIT       P30
      000000A0H.1 SFRSYM    DATA     BIT       P21
      00000090H.2 SFRSYM    DATA     BIT       P12
      00000080H.3 SFRSYM    DATA     BIT       P03
      000000D4H   SFRSYM    DATA     BYTE      ADCMPL
      000000B0H.1 SFRSYM    DATA     BIT       P31
      000000A0H.2 SFRSYM    DATA     BIT       P22
      00000090H.3 SFRSYM    DATA     BIT       P13
      00000080H.4 SFRSYM    DATA     BIT       P04
      000000B0H.2 SFRSYM    DATA     BIT       P32
      000000A0H.3 SFRSYM    DATA     BIT       P23
      00000090H.4 SFRSYM    DATA     BIT       P14
      00000080H.5 SFRSYM    DATA     BIT       P05
      00000089H   SFRSYM    DATA     BYTE      TMOD
      00000088H   SFRSYM    DATA     BYTE      TCON
      000000B0H.3 SFRSYM    DATA     BIT       P33
      000000A0H.4 SFRSYM    DATA     BIT       P24
      00000090H.5 SFRSYM    DATA     BIT       P15
      00000080H.6 SFRSYM    DATA     BIT       P06
      000000B0H.4 SFRSYM    DATA     BIT       P34
      000000A0H.5 SFRSYM    DATA     BIT       P25
      00000090H.6 SFRSYM    DATA     BIT       P16
      00000080H.7 SFRSYM    DATA     BIT       P07
      000000B0H.5 SFRSYM    DATA     BIT       P35
      000000A0H.6 SFRSYM    DATA     BIT       P26
      00000090H.7 SFRSYM    DATA     BIT       P17
      000000F2H   SFRSYM    DATA     BYTE      I2CSSR
      000000B0H.6 SFRSYM    DATA     BIT       P36
      000000A0H.7 SFRSYM    DATA     BIT       P27
      000000ECH   SFRSYM    DATA     BYTE      SPCR
      000000DDH   SFRSYM    DATA     BYTE      ADRESH
      000000B0H.7 SFRSYM    DATA     BIT       P37
      000000EEH   SFRSYM    DATA     BYTE      SPDR
      000000EFH   SFRSYM    DATA     BYTE      SSCR
      000000D3H   SFRSYM    DATA     BYTE      ADDLYL
      000000DCH   SFRSYM    DATA     BYTE      ADRESL
      00000088H.1 SFRSYM    DATA     BIT       IE0
      00000088H.3 SFRSYM    DATA     BIT       IE1
      0000008FH   SFRSYM    DATA     BYTE      CLKDIV
      000000F0H   SFRSYM    DATA     BYTE      B
      00000091H   SFRSYM    DATA     BYTE      FUNCCR
      0000009AH   SFRSYM    DATA     BYTE      P0TRIS
      000000A1H   SFRSYM    DATA     BYTE      P1TRIS
      000000A2H   SFRSYM    DATA     BYTE      P2TRIS
      000000E0H   SFRSYM    DATA     BYTE      ACC
      000000A3H   SFRSYM    DATA     BYTE      P3TRIS
      000000A8H.4 SFRSYM    DATA     BIT       ES0
      000000A8H.6 SFRSYM    DATA     BIT       ES1
      000000A8H.1 SFRSYM    DATA     BIT       ET0
      000000EDH   SFRSYM    DATA     BYTE      SPSR
      000000A8H.3 SFRSYM    DATA     BIT       ET1
      00000088H.5 SFRSYM    DATA     BIT       TF0
      000000A8H.5 SFRSYM    DATA     BIT       ET2
      00000098H   SFRSYM    DATA     BIT       RI0
      00000088H.7 SFRSYM    DATA     BIT       TF1
LX51 LINKER/LOCATER V4.66.1.0                                                         09/07/2023  18:22:32  PAGE 148


      0000008CH   SFRSYM    DATA     BYTE      TH0
      000000A8H   SFRSYM    DATA     BIT       EX0
      00000098H.1 SFRSYM    DATA     BIT       TI0
      00000088H   SFRSYM    DATA     BIT       IT0
      0000008DH   SFRSYM    DATA     BYTE      TH1
      000000A8H.2 SFRSYM    DATA     BIT       EX1
      00000088H.2 SFRSYM    DATA     BIT       IT1
      000000CDH   SFRSYM    DATA     BYTE      TH2
      000000D0H   SFRSYM    DATA     BIT       P
      000000DBH   SFRSYM    DATA     BYTE      TH3
      000000E3H   SFRSYM    DATA     BYTE      TH4
      0000008AH   SFRSYM    DATA     BYTE      TL0
      0000008BH   SFRSYM    DATA     BYTE      TL1
      00000098H.2 SFRSYM    DATA     BIT       U0RB8
      000000CCH   SFRSYM    DATA     BYTE      TL2
      000000B8H.4 SFRSYM    DATA     BIT       PS0
      000000DAH   SFRSYM    DATA     BYTE      TL3
      000000BFH   SFRSYM    DATA     BYTE      BUZCON
      000000B8H.6 SFRSYM    DATA     BIT       PS1
      000000B8H.1 SFRSYM    DATA     BIT       PT0
      00000098H.3 SFRSYM    DATA     BIT       U0TB8
      000000E2H   SFRSYM    DATA     BYTE      TL4
      000000D0H.3 SFRSYM    DATA     BIT       RS0
      000000B8H.3 SFRSYM    DATA     BIT       PT1
      000000D0H.4 SFRSYM    DATA     BIT       RS1
      000000B8H.5 SFRSYM    DATA     BIT       PT2
      00000098H.7 SFRSYM    DATA     BIT       U0SM0
      00000088H.4 SFRSYM    DATA     BIT       TR0
      000000BEH   SFRSYM    DATA     BYTE      BUZDIV
      00000098H.6 SFRSYM    DATA     BIT       U0SM1
      00000088H.6 SFRSYM    DATA     BIT       TR1
      000000B8H   SFRSYM    DATA     BIT       PX0
      00000098H.5 SFRSYM    DATA     BIT       U0SM2
      000000B8H.2 SFRSYM    DATA     BIT       PX1
      000000BDH   SFRSYM    DATA     BYTE      WUTCRH
      00000099H   SFRSYM    DATA     BYTE      SBUF0
      000000EBH   SFRSYM    DATA     BYTE      SBUF1
      000000BCH   SFRSYM    DATA     BYTE      WUTCRL
      00000098H   SFRSYM    DATA     BYTE      SCON0
      000000EAH   SFRSYM    DATA     BYTE      SCON1
      000000C8H   SFRSYM    DATA     BYTE      T2CON
      00000086H   SFRSYM    DATA     BYTE      DPS
      000000FEH   SFRSYM    DATA     BYTE      MDATA
      000000F6H   SFRSYM    DATA     BYTE      I2CMBUF
      000000F1H   SFRSYM    DATA     BYTE      I2CSADR
      00000098H.4 SFRSYM    DATA     BIT       U0REN
      000000C8H.5 SFRSYM    DATA     BIT       CAPES
      000000FDH   SFRSYM    DATA     BYTE      MADRH
      0000008EH   SFRSYM    DATA     BYTE      CKCON
      000000F3H   SFRSYM    DATA     BYTE      I2CSBUF
      000000FCH   SFRSYM    DATA     BYTE      MADRL
      000000D0H.5 SFRSYM    DATA     BIT       F0
      000000FBH   SFRSYM    DATA     BYTE      MLOCK
      000000D0H   SFRSYM    DATA     BYTE      PSW
      00000097H   SFRSYM    DATA     BYTE      WDCON

      010011C0H   BLOCK     CODE     ---       LVL=0
      00000006H   SYMBOL    DATA     WORD      ms
      010011C0H   BLOCK     CODE     NEAR LAB  LVL=1
      00000004H   SYMBOL    DATA     WORD      i
      00000002H   SYMBOL    DATA     WORD      j
      ---         BLOCKEND  ---      ---       LVL=1
      010011C0H   LINE      CODE     ---       #36
      010011C0H   LINE      CODE     ---       #37
      010011C0H   LINE      CODE     ---       #39
LX51 LINKER/LOCATER V4.66.1.0                                                         09/07/2023  18:22:32  PAGE 149


      010011CAH   LINE      CODE     ---       #40
      010011CAH   LINE      CODE     ---       #41
      010011CDH   LINE      CODE     ---       #42
      010011CDH   LINE      CODE     ---       #43
      010011D0H   LINE      CODE     ---       #44
      010011D3H   LINE      CODE     ---       #45
      010011D5H   LINE      CODE     ---       #46
      010011D8H   LINE      CODE     ---       #48
      010011DAH   LINE      CODE     ---       #49
      010011DCH   LINE      CODE     ---       #50
      010011E7H   LINE      CODE     ---       #51
      010011EEH   LINE      CODE     ---       #52
      ---         BLOCKEND  ---      ---       LVL=0

      ---         MODULE    ---      ---       BREATHING_LAMP
      01001F23H   PUBLIC    CODE     ---       Lamp_Run
      01001632H   PUBLIC    CODE     ---       IO_Config
      01000995H   PUBLIC    CODE     ---       EPWM_Config
      000000C8H   SFRSYM    DATA     BIT       T2I0
      000000C3H   SFRSYM    DATA     BYTE      CCH1
      00000080H   SFRSYM    DATA     BYTE      P0
      000000C8H.1 SFRSYM    DATA     BIT       T2I1
      000000C5H   SFRSYM    DATA     BYTE      CCH2
      00000090H   SFRSYM    DATA     BYTE      P1
      000000C7H   SFRSYM    DATA     BYTE      CCH3
      000000ACH   SFRSYM    DATA     BYTE      P0EXTIE
      000000A0H   SFRSYM    DATA     BYTE      P2
      000000B4H   SFRSYM    DATA     BYTE      P0EXTIF
      000000B0H   SFRSYM    DATA     BYTE      P3
      000000ADH   SFRSYM    DATA     BYTE      P1EXTIE
      000000D0H.6 SFRSYM    DATA     BIT       AC
      000000FFH   SFRSYM    DATA     BYTE      MCTRL
      000000C2H   SFRSYM    DATA     BYTE      CCL1
      000000B5H   SFRSYM    DATA     BYTE      P1EXTIF
      000000AEH   SFRSYM    DATA     BYTE      P2EXTIE
      000000C4H   SFRSYM    DATA     BYTE      CCL2
      000000B6H   SFRSYM    DATA     BYTE      P2EXTIF
      000000AFH   SFRSYM    DATA     BYTE      P3EXTIE
      000000A8H.7 SFRSYM    DATA     BIT       EA
      000000C6H   SFRSYM    DATA     BYTE      CCL3
      000000B7H   SFRSYM    DATA     BYTE      P3EXTIF
      000000AAH   SFRSYM    DATA     BYTE      EIE2
      000000B2H   SFRSYM    DATA     BYTE      EIF2
      000000C8H.3 SFRSYM    DATA     BIT       T2R0
      000000C8H.4 SFRSYM    DATA     BIT       T2R1
      00000083H   SFRSYM    DATA     BYTE      DPH0
      000000A8H   SFRSYM    DATA     BYTE      IE
      00000085H   SFRSYM    DATA     BYTE      DPH1
      000000B9H   SFRSYM    DATA     BYTE      EIP1
      000000BAH   SFRSYM    DATA     BYTE      EIP2
      00000082H   SFRSYM    DATA     BYTE      DPL0
      00000084H   SFRSYM    DATA     BYTE      DPL1
      000000C8H.6 SFRSYM    DATA     BIT       I3FR
      000000CFH   SFRSYM    DATA     BYTE      T2IE
      00000096H   SFRSYM    DATA     BYTE      TA
      000000C9H   SFRSYM    DATA     BYTE      T2IF
      000000C8H.2 SFRSYM    DATA     BIT       T2CM
      000000DFH   SFRSYM    DATA     BYTE      ADCON0
      000000DEH   SFRSYM    DATA     BYTE      ADCON1
      000000E9H   SFRSYM    DATA     BYTE      ADCON2
      000000B8H   SFRSYM    DATA     BYTE      IP
      000000CEH   SFRSYM    DATA     BYTE      CCEN
      000000D0H.7 SFRSYM    DATA     BIT       CY
      000000D2H   SFRSYM    DATA     BYTE      T34MOD
      00000093H   SFRSYM    DATA     BYTE      DPX0
LX51 LINKER/LOCATER V4.66.1.0                                                         09/07/2023  18:22:32  PAGE 150


      00000095H   SFRSYM    DATA     BYTE      DPX1
      000000F4H   SFRSYM    DATA     BYTE      I2CMSA
      000000F5H   SFRSYM    DATA     BYTE      I2CMCR
      00000081H   SFRSYM    DATA     BYTE      SP
      000000D0H.2 SFRSYM    DATA     BIT       OV
      000000F2H   SFRSYM    DATA     BYTE      I2CSCR
      000000C8H.7 SFRSYM    DATA     BIT       T2PS
      000000D1H   SFRSYM    DATA     BYTE      ADCMPC
      000000CBH   SFRSYM    DATA     BYTE      RLDH
      000000D5H   SFRSYM    DATA     BYTE      ADCMPH
      000000CAH   SFRSYM    DATA     BYTE      RLDL
      00000080H   SFRSYM    DATA     BIT       P00
      00000090H   SFRSYM    DATA     BIT       P10
      00000080H.1 SFRSYM    DATA     BIT       P01
      000000F7H   SFRSYM    DATA     BYTE      I2CMTP
      00000099H   SFRSYM    DATA     BYTE      SBUF
      00000087H   SFRSYM    DATA     BYTE      PCON
      000000A0H   SFRSYM    DATA     BIT       P20
      00000090H.1 SFRSYM    DATA     BIT       P11
      00000080H.2 SFRSYM    DATA     BIT       P02
      000000F5H   SFRSYM    DATA     BYTE      I2CMSR
      000000B0H   SFRSYM    DATA     BIT       P30
      000000A0H.1 SFRSYM    DATA     BIT       P21
      00000090H.2 SFRSYM    DATA     BIT       P12
      00000080H.3 SFRSYM    DATA     BIT       P03
      000000D4H   SFRSYM    DATA     BYTE      ADCMPL
      000000B0H.1 SFRSYM    DATA     BIT       P31
      000000A0H.2 SFRSYM    DATA     BIT       P22
      00000090H.3 SFRSYM    DATA     BIT       P13
      00000080H.4 SFRSYM    DATA     BIT       P04
      000000B0H.2 SFRSYM    DATA     BIT       P32
      000000A0H.3 SFRSYM    DATA     BIT       P23
      00000090H.4 SFRSYM    DATA     BIT       P14
      00000080H.5 SFRSYM    DATA     BIT       P05
      00000089H   SFRSYM    DATA     BYTE      TMOD
      00000088H   SFRSYM    DATA     BYTE      TCON
      000000B0H.3 SFRSYM    DATA     BIT       P33
      000000A0H.4 SFRSYM    DATA     BIT       P24
      00000090H.5 SFRSYM    DATA     BIT       P15
      00000080H.6 SFRSYM    DATA     BIT       P06
      000000B0H.4 SFRSYM    DATA     BIT       P34
      000000A0H.5 SFRSYM    DATA     BIT       P25
      00000090H.6 SFRSYM    DATA     BIT       P16
      00000080H.7 SFRSYM    DATA     BIT       P07
      000000B0H.5 SFRSYM    DATA     BIT       P35
      000000A0H.6 SFRSYM    DATA     BIT       P26
      00000090H.7 SFRSYM    DATA     BIT       P17
      000000F2H   SFRSYM    DATA     BYTE      I2CSSR
      000000B0H.6 SFRSYM    DATA     BIT       P36
      000000A0H.7 SFRSYM    DATA     BIT       P27
      000000ECH   SFRSYM    DATA     BYTE      SPCR
      000000DDH   SFRSYM    DATA     BYTE      ADRESH
      000000B0H.7 SFRSYM    DATA     BIT       P37
      000000EEH   SFRSYM    DATA     BYTE      SPDR
      000000EFH   SFRSYM    DATA     BYTE      SSCR
      000000D3H   SFRSYM    DATA     BYTE      ADDLYL
      000000DCH   SFRSYM    DATA     BYTE      ADRESL
      00000088H.1 SFRSYM    DATA     BIT       IE0
      00000088H.3 SFRSYM    DATA     BIT       IE1
      0000008FH   SFRSYM    DATA     BYTE      CLKDIV
      000000F0H   SFRSYM    DATA     BYTE      B
      00000091H   SFRSYM    DATA     BYTE      FUNCCR
      0000009AH   SFRSYM    DATA     BYTE      P0TRIS
      000000A1H   SFRSYM    DATA     BYTE      P1TRIS
      000000A2H   SFRSYM    DATA     BYTE      P2TRIS
LX51 LINKER/LOCATER V4.66.1.0                                                         09/07/2023  18:22:32  PAGE 151


      000000E0H   SFRSYM    DATA     BYTE      ACC
      000000A3H   SFRSYM    DATA     BYTE      P3TRIS
      000000A8H.4 SFRSYM    DATA     BIT       ES0
      000000A8H.6 SFRSYM    DATA     BIT       ES1
      000000A8H.1 SFRSYM    DATA     BIT       ET0
      000000EDH   SFRSYM    DATA     BYTE      SPSR
      000000A8H.3 SFRSYM    DATA     BIT       ET1
      00000088H.5 SFRSYM    DATA     BIT       TF0
      000000A8H.5 SFRSYM    DATA     BIT       ET2
      00000098H   SFRSYM    DATA     BIT       RI0
      00000088H.7 SFRSYM    DATA     BIT       TF1
      0000008CH   SFRSYM    DATA     BYTE      TH0
      000000A8H   SFRSYM    DATA     BIT       EX0
      00000098H.1 SFRSYM    DATA     BIT       TI0
      00000088H   SFRSYM    DATA     BIT       IT0
      0000008DH   SFRSYM    DATA     BYTE      TH1
      000000A8H.2 SFRSYM    DATA     BIT       EX1
      00000088H.2 SFRSYM    DATA     BIT       IT1
      000000CDH   SFRSYM    DATA     BYTE      TH2
      000000D0H   SFRSYM    DATA     BIT       P
      000000DBH   SFRSYM    DATA     BYTE      TH3
      000000E3H   SFRSYM    DATA     BYTE      TH4
      0000008AH   SFRSYM    DATA     BYTE      TL0
      0000008BH   SFRSYM    DATA     BYTE      TL1
      00000098H.2 SFRSYM    DATA     BIT       U0RB8
      000000CCH   SFRSYM    DATA     BYTE      TL2
      000000B8H.4 SFRSYM    DATA     BIT       PS0
      000000DAH   SFRSYM    DATA     BYTE      TL3
      000000BFH   SFRSYM    DATA     BYTE      BUZCON
      000000B8H.6 SFRSYM    DATA     BIT       PS1
      000000B8H.1 SFRSYM    DATA     BIT       PT0
      00000098H.3 SFRSYM    DATA     BIT       U0TB8
      000000E2H   SFRSYM    DATA     BYTE      TL4
      000000D0H.3 SFRSYM    DATA     BIT       RS0
      000000B8H.3 SFRSYM    DATA     BIT       PT1
      000000D0H.4 SFRSYM    DATA     BIT       RS1
      000000B8H.5 SFRSYM    DATA     BIT       PT2
      00000098H.7 SFRSYM    DATA     BIT       U0SM0
      00000088H.4 SFRSYM    DATA     BIT       TR0
      000000BEH   SFRSYM    DATA     BYTE      BUZDIV
      00000098H.6 SFRSYM    DATA     BIT       U0SM1
      00000088H.6 SFRSYM    DATA     BIT       TR1
      000000B8H   SFRSYM    DATA     BIT       PX0
      00000098H.5 SFRSYM    DATA     BIT       U0SM2
      000000B8H.2 SFRSYM    DATA     BIT       PX1
      000000BDH   SFRSYM    DATA     BYTE      WUTCRH
      00000099H   SFRSYM    DATA     BYTE      SBUF0
      000000EBH   SFRSYM    DATA     BYTE      SBUF1
      000000BCH   SFRSYM    DATA     BYTE      WUTCRL
      00000098H   SFRSYM    DATA     BYTE      SCON0
      000000EAH   SFRSYM    DATA     BYTE      SCON1
      000000C8H   SFRSYM    DATA     BYTE      T2CON
      00000086H   SFRSYM    DATA     BYTE      DPS
      000000FEH   SFRSYM    DATA     BYTE      MDATA
      000000F6H   SFRSYM    DATA     BYTE      I2CMBUF
      000000F1H   SFRSYM    DATA     BYTE      I2CSADR
      00000098H.4 SFRSYM    DATA     BIT       U0REN
      000000C8H.5 SFRSYM    DATA     BIT       CAPES
      000000FDH   SFRSYM    DATA     BYTE      MADRH
      0000008EH   SFRSYM    DATA     BYTE      CKCON
      000000F3H   SFRSYM    DATA     BYTE      I2CSBUF
      000000FCH   SFRSYM    DATA     BYTE      MADRL
      000000D0H.5 SFRSYM    DATA     BIT       F0
      000000FBH   SFRSYM    DATA     BYTE      MLOCK
      000000D0H   SFRSYM    DATA     BYTE      PSW
LX51 LINKER/LOCATER V4.66.1.0                                                         09/07/2023  18:22:32  PAGE 152


      00000097H   SFRSYM    DATA     BYTE      WDCON

      01000995H   BLOCK     CODE     ---       LVL=0
      01000995H   LINE      CODE     ---       #4
      01000995H   LINE      CODE     ---       #5
      01000995H   LINE      CODE     ---       #7
      0100099AH   LINE      CODE     ---       #10
      010009A1H   LINE      CODE     ---       #11
      010009A8H   LINE      CODE     ---       #12
      010009AFH   LINE      CODE     ---       #15
      010009B8H   LINE      CODE     ---       #16
      010009C1H   LINE      CODE     ---       #17
      010009CAH   LINE      CODE     ---       #20
      010009D3H   LINE      CODE     ---       #21
      010009DCH   LINE      CODE     ---       #22
      010009E5H   LINE      CODE     ---       #25
      010009EAH   LINE      CODE     ---       #28
      010009EFH   LINE      CODE     ---       #31
      010009F4H   LINE      CODE     ---       #34
      010009F9H   LINE      CODE     ---       #35
      010009FEH   LINE      CODE     ---       #36
      01000A03H   LINE      CODE     ---       #39
      01000A08H   LINE      CODE     ---       #41
      01000A0BH   LINE      CODE     ---       #43
      01000A11H   LINE      CODE     ---       #45
      01000A14H   LINE      CODE     ---       #48
      ---         BLOCKEND  ---      ---       LVL=0

      01001632H   BLOCK     CODE     ---       LVL=0
      01001632H   LINE      CODE     ---       #53
      01001632H   LINE      CODE     ---       #54
      01001632H   LINE      CODE     ---       #56
      01001638H   LINE      CODE     ---       #57
      0100163CH   LINE      CODE     ---       #58
      01001642H   LINE      CODE     ---       #59
      01001646H   LINE      CODE     ---       #60
      0100164AH   LINE      CODE     ---       #61
      0100164EH   LINE      CODE     ---       #62
      ---         BLOCKEND  ---      ---       LVL=0

      01001F23H   BLOCK     CODE     ---       LVL=0
      01001F23H   LINE      CODE     ---       #66
      01001F23H   LINE      CODE     ---       #67
      01001F23H   LINE      CODE     ---       #68
      01001F26H   LINE      CODE     ---       #69
      ---         BLOCKEND  ---      ---       LVL=0

      ---         MODULE    ---      ---       ?C_INIT
      010008C2H   PUBLIC    CODE     ---       ?C_START

      ---         MODULE    ---      ---       ?C?CLDPTR
      01000907H   PUBLIC    CODE     ---       ?C?CLDPTR

      ---         MODULE    ---      ---       PRINTF
      00000008H   PUBLIC    DATA     ---       ?_PRINTF517?BYTE
      00000008H   PUBLIC    DATA     ---       ?_PRINTF?BYTE
      00000008H   PUBLIC    DATA     ---       ?_SPRINTF517?BYTE
      00000008H   PUBLIC    DATA     ---       ?_SPRINTF?BYTE
      01000118H   PUBLIC    CODE     ---       _PRINTF
      01000118H   PUBLIC    CODE     ---       _PRINTF517
      01000112H   PUBLIC    CODE     ---       _SPRINTF
      01000112H   PUBLIC    CODE     ---       _SPRINTF517

      ---         MODULE    ---      ---       ?C?CLDOPTR
      01000920H   PUBLIC    CODE     ---       ?C?CLDOPTR
LX51 LINKER/LOCATER V4.66.1.0                                                         09/07/2023  18:22:32  PAGE 153



      ---         MODULE    ---      ---       ?C?CSTPTR
      0100094DH   PUBLIC    CODE     ---       ?C?CSTPTR

      ---         MODULE    ---      ---       ?C?PLDIIDATA
      0100095FH   PUBLIC    CODE     ---       ?C?PLDIIDATA

      ---         MODULE    ---      ---       ?C?CCASE
      0100096FH   PUBLIC    CODE     ---       ?C?CCASE



*** WARNING L16: UNCALLED FUNCTION, IGNORED FOR OVERLAY PROCESS
    NAME:    _UART_DISABLEDOUBLEFREQUENCY/UART

*** WARNING L16: UNCALLED FUNCTION, IGNORED FOR OVERLAY PROCESS
    NAME:    _UART_CONFIGBAUDRATE/UART

*** WARNING L16: UNCALLED FUNCTION, IGNORED FOR OVERLAY PROCESS
    NAME:    _UART_DISABLERECEIVE/UART

*** WARNING L16: UNCALLED FUNCTION, IGNORED FOR OVERLAY PROCESS
    NAME:    _UART_DISABLEINT/UART

*** WARNING L16: UNCALLED FUNCTION, IGNORED FOR OVERLAY PROCESS
    NAME:    _UART_SENDNINTHBIT/UART

*** WARNING L16: UNCALLED FUNCTION, IGNORED FOR OVERLAY PROCESS
    NAME:    _UART_GETNINTHBIT/UART

*** WARNING L16: UNCALLED FUNCTION, IGNORED FOR OVERLAY PROCESS
    NAME:    UART_DISABLEBRT/UART

*** WARNING L16: UNCALLED FUNCTION, IGNORED FOR OVERLAY PROCESS
    NAME:    _ACMP_CONFIGPOSITIVE/ACMP

*** WARNING L16: UNCALLED FUNCTION, IGNORED FOR OVERLAY PROCESS
    NAME:    _ACMP_ENABLEREVERSEOUTPUT/ACMP

*** WARNING L16: UNCALLED FUNCTION, IGNORED FOR OVERLAY PROCESS
    NAME:    _ACMP_DISABLEREVERSEOUTPUT/ACMP

*** WARNING L16: UNCALLED FUNCTION, IGNORED FOR OVERLAY PROCESS
    NAME:    _ACMP_ENABLEFILTER/ACMP

*** WARNING L16: UNCALLED FUNCTION, IGNORED FOR OVERLAY PROCESS
    NAME:    _ACMP_DISABLEFILTER/ACMP

*** WARNING L16: UNCALLED FUNCTION, IGNORED FOR OVERLAY PROCESS
    NAME:    _ACMP_ENABLEACMPBRAKE/ACMP

*** WARNING L16: UNCALLED FUNCTION, IGNORED FOR OVERLAY PROCESS
    NAME:    _ACMP_ENABLEINT/ACMP

*** WARNING L16: UNCALLED FUNCTION, IGNORED FOR OVERLAY PROCESS
    NAME:    _ACMP_DISABLEINT/ACMP

*** WARNING L16: UNCALLED FUNCTION, IGNORED FOR OVERLAY PROCESS
    NAME:    _ACMP_GETINTFLAG/ACMP

*** WARNING L16: UNCALLED FUNCTION, IGNORED FOR OVERLAY PROCESS
    NAME:    _ACMP_CLEARINTFLAG/ACMP

*** WARNING L16: UNCALLED FUNCTION, IGNORED FOR OVERLAY PROCESS
    NAME:    _ACMP_ENABLEHYS/ACMP
LX51 LINKER/LOCATER V4.66.1.0                                                         09/07/2023  18:22:32  PAGE 154



*** WARNING L16: UNCALLED FUNCTION, IGNORED FOR OVERLAY PROCESS
    NAME:    _ACMP_DISABLEHYS/ACMP

*** WARNING L16: UNCALLED FUNCTION, IGNORED FOR OVERLAY PROCESS
    NAME:    _ACMP_CONFIGOFFSETADJ/ACMP

*** WARNING L16: UNCALLED FUNCTION, IGNORED FOR OVERLAY PROCESS
    NAME:    _ACMP_GETOFFSETADJVALUE/ACMP

*** WARNING L16: UNCALLED FUNCTION, IGNORED FOR OVERLAY PROCESS
    NAME:    ADC_START/ADC

*** WARNING L16: UNCALLED FUNCTION, IGNORED FOR OVERLAY PROCESS
    NAME:    ADC_STOP/ADC

*** WARNING L16: UNCALLED FUNCTION, IGNORED FOR OVERLAY PROCESS
    NAME:    _ADC_CONFIGRUNMODE/ADC

*** WARNING L16: UNCALLED FUNCTION, IGNORED FOR OVERLAY PROCESS
    NAME:    ADC_ENABLEHARDWARETRIG/ADC

*** WARNING L16: UNCALLED FUNCTION, IGNORED FOR OVERLAY PROCESS
    NAME:    ADC_DISABLEHARDWARETRIG/ADC

*** WARNING L16: UNCALLED FUNCTION, IGNORED FOR OVERLAY PROCESS
    NAME:    _ADC_CONFIGHARDWARETRIG/ADC

*** WARNING L16: UNCALLED FUNCTION, IGNORED FOR OVERLAY PROCESS
    NAME:    _ADC_ENABLECHANNEL/ADC

*** WARNING L16: UNCALLED FUNCTION, IGNORED FOR OVERLAY PROCESS
    NAME:    _ADC_CONFIGAN31/ADC

*** WARNING L16: UNCALLED FUNCTION, IGNORED FOR OVERLAY PROCESS
    NAME:    _ADC_SETTRIGDELAYTIME/ADC

*** WARNING L16: UNCALLED FUNCTION, IGNORED FOR OVERLAY PROCESS
    NAME:    _ADC_CONFIGADCBRAKE/ADC

*** WARNING L16: UNCALLED FUNCTION, IGNORED FOR OVERLAY PROCESS
    NAME:    _ADC_CONFIGCOMPAREVALUE/ADC

*** WARNING L16: UNCALLED FUNCTION, IGNORED FOR OVERLAY PROCESS
    NAME:    ADC_GETCMPRESULT/ADC

*** WARNING L16: UNCALLED FUNCTION, IGNORED FOR OVERLAY PROCESS
    NAME:    ADC_GETADCRESULT/ADC

*** WARNING L16: UNCALLED FUNCTION, IGNORED FOR OVERLAY PROCESS
    NAME:    ADC_ENABLEINT/ADC

*** WARNING L16: UNCALLED FUNCTION, IGNORED FOR OVERLAY PROCESS
    NAME:    ADC_DISABLEINT/ADC

*** WARNING L16: UNCALLED FUNCTION, IGNORED FOR OVERLAY PROCESS
    NAME:    ADC_GETINTFLAG/ADC

*** WARNING L16: UNCALLED FUNCTION, IGNORED FOR OVERLAY PROCESS
    NAME:    ADC_CLEARINTFLAG/ADC

*** WARNING L16: UNCALLED FUNCTION, IGNORED FOR OVERLAY PROCESS
    NAME:    ADC_ENABLELDO/ADC

*** WARNING L16: UNCALLED FUNCTION, IGNORED FOR OVERLAY PROCESS
LX51 LINKER/LOCATER V4.66.1.0                                                         09/07/2023  18:22:32  PAGE 155


    NAME:    ADC_DISABLELDO/ADC

*** WARNING L16: UNCALLED FUNCTION, IGNORED FOR OVERLAY PROCESS
    NAME:    _ADC_CONFIGADCVREF/ADC

*** WARNING L16: UNCALLED FUNCTION, IGNORED FOR OVERLAY PROCESS
    NAME:    BUZ_ENABLEBUZZER/BUZZER

*** WARNING L16: UNCALLED FUNCTION, IGNORED FOR OVERLAY PROCESS
    NAME:    BUZ_DISABLEBUZZER/BUZZER

*** WARNING L16: UNCALLED FUNCTION, IGNORED FOR OVERLAY PROCESS
    NAME:    _BUZ_CONFIGBUZZER/BUZZER

*** WARNING L16: UNCALLED FUNCTION, IGNORED FOR OVERLAY PROCESS
    NAME:    _EPWM_CONFIGCHANNELASYMDUTY/EPWM

*** WARNING L16: UNCALLED FUNCTION, IGNORED FOR OVERLAY PROCESS
    NAME:    _EPWM_ENABLEONESHOTMODE/EPWM

*** WARNING L16: UNCALLED FUNCTION, IGNORED FOR OVERLAY PROCESS
    NAME:    _EPWM_STOP/EPWM

*** WARNING L16: UNCALLED FUNCTION, IGNORED FOR OVERLAY PROCESS
    NAME:    _EPWM_DISABLEOUTPUT/EPWM

*** WARNING L16: UNCALLED FUNCTION, IGNORED FOR OVERLAY PROCESS
    NAME:    _EPWM_ENABLEFAULTBRAKE/EPWM

*** WARNING L16: UNCALLED FUNCTION, IGNORED FOR OVERLAY PROCESS
    NAME:    _EPWM_DISABLEFAULTBRAKE/EPWM

*** WARNING L16: UNCALLED FUNCTION, IGNORED FOR OVERLAY PROCESS
    NAME:    _EPWM_CONFIGCHANNELBRAKELEVEL/EPWM

*** WARNING L16: UNCALLED FUNCTION, IGNORED FOR OVERLAY PROCESS
    NAME:    _EPWM_ENABLEDEADZONE/EPWM

*** WARNING L16: UNCALLED FUNCTION, IGNORED FOR OVERLAY PROCESS
    NAME:    _EPWM_ENABLEMASKCONTROL/EPWM

*** WARNING L16: UNCALLED FUNCTION, IGNORED FOR OVERLAY PROCESS
    NAME:    _EPWM_DISABLEMASKCONTROL/EPWM

*** WARNING L16: UNCALLED FUNCTION, IGNORED FOR OVERLAY PROCESS
    NAME:    _EPWM_ENABLEUPCMPINT/EPWM

*** WARNING L16: UNCALLED FUNCTION, IGNORED FOR OVERLAY PROCESS
    NAME:    _EPWM_DISABLEUPCMPINT/EPWM

*** WARNING L16: UNCALLED FUNCTION, IGNORED FOR OVERLAY PROCESS
    NAME:    _EPWM_GETUPCMPINTFLAG/EPWM

*** WARNING L16: UNCALLED FUNCTION, IGNORED FOR OVERLAY PROCESS
    NAME:    _EPWM_CLEARUPCMPINTFLAG/EPWM

*** WARNING L16: UNCALLED FUNCTION, IGNORED FOR OVERLAY PROCESS
    NAME:    _EPWM_ENABLEDOWNCMPINT/EPWM

*** WARNING L16: UNCALLED FUNCTION, IGNORED FOR OVERLAY PROCESS
    NAME:    _EPWM_DISABLEDOWNCMPINT/EPWM

*** WARNING L16: UNCALLED FUNCTION, IGNORED FOR OVERLAY PROCESS
    NAME:    _EPWM_GETDOWNCMPINTFLAG/EPWM

LX51 LINKER/LOCATER V4.66.1.0                                                         09/07/2023  18:22:32  PAGE 156


*** WARNING L16: UNCALLED FUNCTION, IGNORED FOR OVERLAY PROCESS
    NAME:    _EPWM_CLEARDOWNCMPINTFLAG/EPWM

*** WARNING L16: UNCALLED FUNCTION, IGNORED FOR OVERLAY PROCESS
    NAME:    _EPWM_ENABLEPERIODINT/EPWM

*** WARNING L16: UNCALLED FUNCTION, IGNORED FOR OVERLAY PROCESS
    NAME:    _EPWM_DISABLEPERIODINT/EPWM

*** WARNING L16: UNCALLED FUNCTION, IGNORED FOR OVERLAY PROCESS
    NAME:    _EPWM_CLEARPERIODINTFLAG/EPWM

*** WARNING L16: UNCALLED FUNCTION, IGNORED FOR OVERLAY PROCESS
    NAME:    _EPWM_GETPERIODINTFLAG/EPWM

*** WARNING L16: UNCALLED FUNCTION, IGNORED FOR OVERLAY PROCESS
    NAME:    _EPWM_DISABLEZEROINT/EPWM

*** WARNING L16: UNCALLED FUNCTION, IGNORED FOR OVERLAY PROCESS
    NAME:    _EPWM_CLEARZEROINTFLAG/EPWM

*** WARNING L16: UNCALLED FUNCTION, IGNORED FOR OVERLAY PROCESS
    NAME:    _EPWM_GETZEROINTFLAG/EPWM

*** WARNING L16: UNCALLED FUNCTION, IGNORED FOR OVERLAY PROCESS
    NAME:    EPWM_ENABLEFAULTBRAKEINT/EPWM

*** WARNING L16: UNCALLED FUNCTION, IGNORED FOR OVERLAY PROCESS
    NAME:    EPWM_DISABLEFAULTBRAKEINT/EPWM

*** WARNING L16: UNCALLED FUNCTION, IGNORED FOR OVERLAY PROCESS
    NAME:    EPWM_GETFAULTBRAKEINTFLAG/EPWM

*** WARNING L16: UNCALLED FUNCTION, IGNORED FOR OVERLAY PROCESS
    NAME:    EPWM_CLEARFAULTBRAKEINTFLAG/EPWM

*** WARNING L16: UNCALLED FUNCTION, IGNORED FOR OVERLAY PROCESS
    NAME:    _EPWM_ENABLEREVERSEOUTPUT/EPWM

*** WARNING L16: UNCALLED FUNCTION, IGNORED FOR OVERLAY PROCESS
    NAME:    EPWM_TRIGSOFTWAREBRAKE/EPWM

*** WARNING L16: UNCALLED FUNCTION, IGNORED FOR OVERLAY PROCESS
    NAME:    EPWM_DISABLESOFTWAREBRAKE/EPWM

*** WARNING L16: UNCALLED FUNCTION, IGNORED FOR OVERLAY PROCESS
    NAME:    _EPWM_CONFIGFBBRAKE/EPWM

*** WARNING L16: UNCALLED FUNCTION, IGNORED FOR OVERLAY PROCESS
    NAME:    EPWM_ALLINTDISABLE/EPWM

*** WARNING L16: UNCALLED FUNCTION, IGNORED FOR OVERLAY PROCESS
    NAME:    _EXTINT_CONFIGINT/EXTINT

*** WARNING L16: UNCALLED FUNCTION, IGNORED FOR OVERLAY PROCESS
    NAME:    _EXTINT_ENABLEINT/EXTINT

*** WARNING L16: UNCALLED FUNCTION, IGNORED FOR OVERLAY PROCESS
    NAME:    _EXTINT_DISABLEINT/EXTINT

*** WARNING L16: UNCALLED FUNCTION, IGNORED FOR OVERLAY PROCESS
    NAME:    _EXTINT_GETINTFLAG/EXTINT

*** WARNING L16: UNCALLED FUNCTION, IGNORED FOR OVERLAY PROCESS
    NAME:    _EXTINT_CLEARINTFLAG/EXTINT
LX51 LINKER/LOCATER V4.66.1.0                                                         09/07/2023  18:22:32  PAGE 157



*** WARNING L16: UNCALLED FUNCTION, IGNORED FOR OVERLAY PROCESS
    NAME:    FLASH_UNLOCK/FLASH

*** WARNING L16: UNCALLED FUNCTION, IGNORED FOR OVERLAY PROCESS
    NAME:    FLASH_LOCK/FLASH

*** WARNING L16: UNCALLED FUNCTION, IGNORED FOR OVERLAY PROCESS
    NAME:    _FLASH_WRITE/FLASH

*** WARNING L16: UNCALLED FUNCTION, IGNORED FOR OVERLAY PROCESS
    NAME:    _FLASH_READ/FLASH

*** WARNING L16: UNCALLED FUNCTION, IGNORED FOR OVERLAY PROCESS
    NAME:    _FLASH_ERASE/FLASH

*** WARNING L16: UNCALLED FUNCTION, IGNORED FOR OVERLAY PROCESS
    NAME:    _GPIO_CONFIGGPIOMODE/GPIO

*** WARNING L16: UNCALLED FUNCTION, IGNORED FOR OVERLAY PROCESS
    NAME:    _GPIO_ENABLEINT/GPIO

*** WARNING L16: UNCALLED FUNCTION, IGNORED FOR OVERLAY PROCESS
    NAME:    _GPIO_DISABLEINT/GPIO

*** WARNING L16: UNCALLED FUNCTION, IGNORED FOR OVERLAY PROCESS
    NAME:    _GPIO_GETINTFLAG/GPIO

*** WARNING L16: UNCALLED FUNCTION, IGNORED FOR OVERLAY PROCESS
    NAME:    _GPIO_CLEARINTFLAG/GPIO

*** WARNING L16: UNCALLED FUNCTION, IGNORED FOR OVERLAY PROCESS
    NAME:    _I2C_CONFIGCLK/I2C

*** WARNING L16: UNCALLED FUNCTION, IGNORED FOR OVERLAY PROCESS
    NAME:    I2C_ENABLEMASTERMODE/I2C

*** WARNING L16: UNCALLED FUNCTION, IGNORED FOR OVERLAY PROCESS
    NAME:    I2C_DISABLEMASTERMODE/I2C

*** WARNING L16: UNCALLED FUNCTION, IGNORED FOR OVERLAY PROCESS
    NAME:    I2C_GETMASTERSENDADDRFLAG/I2C

*** WARNING L16: UNCALLED FUNCTION, IGNORED FOR OVERLAY PROCESS
    NAME:    I2C_GETBUSARBITRATIONFLAG/I2C

*** WARNING L16: UNCALLED FUNCTION, IGNORED FOR OVERLAY PROCESS
    NAME:    I2C_GETMASTERERRORFLAG/I2C

*** WARNING L16: UNCALLED FUNCTION, IGNORED FOR OVERLAY PROCESS
    NAME:    I2C_GETMASTERBUSYFLAG/I2C

*** WARNING L16: UNCALLED FUNCTION, IGNORED FOR OVERLAY PROCESS
    NAME:    I2C_GETI2CBUSBUSYFLAG/I2C

*** WARNING L16: UNCALLED FUNCTION, IGNORED FOR OVERLAY PROCESS
    NAME:    I2C_GETMASTERIDLEFLAG/I2C

*** WARNING L16: UNCALLED FUNCTION, IGNORED FOR OVERLAY PROCESS
    NAME:    I2C_ENABLEINT/I2C

*** WARNING L16: UNCALLED FUNCTION, IGNORED FOR OVERLAY PROCESS
    NAME:    I2C_DISABLEINT/I2C

*** WARNING L16: UNCALLED FUNCTION, IGNORED FOR OVERLAY PROCESS
LX51 LINKER/LOCATER V4.66.1.0                                                         09/07/2023  18:22:32  PAGE 158


    NAME:    I2C_GETMASTERINTFLAG/I2C

*** WARNING L16: UNCALLED FUNCTION, IGNORED FOR OVERLAY PROCESS
    NAME:    I2C_CLEARMASTERINTFLAG/I2C

*** WARNING L16: UNCALLED FUNCTION, IGNORED FOR OVERLAY PROCESS
    NAME:    LSE_ENABLELSE/LSE

*** WARNING L16: UNCALLED FUNCTION, IGNORED FOR OVERLAY PROCESS
    NAME:    LSE_DISABLELSE/LSE

*** WARNING L16: UNCALLED FUNCTION, IGNORED FOR OVERLAY PROCESS
    NAME:    LSE_START/LSE

*** WARNING L16: UNCALLED FUNCTION, IGNORED FOR OVERLAY PROCESS
    NAME:    LSE_STOP/LSE

*** WARNING L16: UNCALLED FUNCTION, IGNORED FOR OVERLAY PROCESS
    NAME:    _LSE_CONFIGLSE/LSE

*** WARNING L16: UNCALLED FUNCTION, IGNORED FOR OVERLAY PROCESS
    NAME:    LSE_ENABLELSEWAKEUP/LSE

*** WARNING L16: UNCALLED FUNCTION, IGNORED FOR OVERLAY PROCESS
    NAME:    LSE_DISABLELSEWAKEUP/LSE

*** WARNING L16: UNCALLED FUNCTION, IGNORED FOR OVERLAY PROCESS
    NAME:    LSE_ENABLELSEINT/LSE

*** WARNING L16: UNCALLED FUNCTION, IGNORED FOR OVERLAY PROCESS
    NAME:    LSE_DISABLELSEINT/LSE

*** WARNING L16: UNCALLED FUNCTION, IGNORED FOR OVERLAY PROCESS
    NAME:    LSE_GETLSEINTFLAG/LSE

*** WARNING L16: UNCALLED FUNCTION, IGNORED FOR OVERLAY PROCESS
    NAME:    LSE_CLEARLSEINTFLAG/LSE

*** WARNING L16: UNCALLED FUNCTION, IGNORED FOR OVERLAY PROCESS
    NAME:    LSE_GETLSESTATE/LSE

*** WARNING L16: UNCALLED FUNCTION, IGNORED FOR OVERLAY PROCESS
    NAME:    _OPA_CONFIGPOSITIVE/OPA

*** WARNING L16: UNCALLED FUNCTION, IGNORED FOR OVERLAY PROCESS
    NAME:    _OPA_CONFIGNEGATIVE/OPA

*** WARNING L16: UNCALLED FUNCTION, IGNORED FOR OVERLAY PROCESS
    NAME:    _OPA_ENABLEOUTPUT/OPA

*** WARNING L16: UNCALLED FUNCTION, IGNORED FOR OVERLAY PROCESS
    NAME:    _OPA_DISABLEOUTPUT/OPA

*** WARNING L16: UNCALLED FUNCTION, IGNORED FOR OVERLAY PROCESS
    NAME:    _OPA_CONFIGOFFSETADJ/OPA

*** WARNING L16: UNCALLED FUNCTION, IGNORED FOR OVERLAY PROCESS
    NAME:    _OPA_GETOFFSETADJVALUE/OPA

*** WARNING L16: UNCALLED FUNCTION, IGNORED FOR OVERLAY PROCESS
    NAME:    _PGA_ENABLENORMALMODE/PGA

*** WARNING L16: UNCALLED FUNCTION, IGNORED FOR OVERLAY PROCESS
    NAME:    _PGA_CONFIGINPUT/PGA

LX51 LINKER/LOCATER V4.66.1.0                                                         09/07/2023  18:22:32  PAGE 159


*** WARNING L16: UNCALLED FUNCTION, IGNORED FOR OVERLAY PROCESS
    NAME:    PGA_ENABLEOUTPUT/PGA

*** WARNING L16: UNCALLED FUNCTION, IGNORED FOR OVERLAY PROCESS
    NAME:    PGA_DISABLEOUTPUT/PGA

*** WARNING L16: UNCALLED FUNCTION, IGNORED FOR OVERLAY PROCESS
    NAME:    _PGA_CONFIGGAIN/PGA

*** WARNING L16: UNCALLED FUNCTION, IGNORED FOR OVERLAY PROCESS
    NAME:    _PGA_CONFIGOFFSETADJ/PGA

*** WARNING L16: UNCALLED FUNCTION, IGNORED FOR OVERLAY PROCESS
    NAME:    PGA_ENABLESHA/PGA

*** WARNING L16: UNCALLED FUNCTION, IGNORED FOR OVERLAY PROCESS
    NAME:    _PGA_CONFIGSAMPLETIME/PGA

*** WARNING L16: UNCALLED FUNCTION, IGNORED FOR OVERLAY PROCESS
    NAME:    _PGA_GETOFFSETADJVALUE/PGA

*** WARNING L16: UNCALLED FUNCTION, IGNORED FOR OVERLAY PROCESS
    NAME:    SPI_START/SPI

*** WARNING L16: UNCALLED FUNCTION, IGNORED FOR OVERLAY PROCESS
    NAME:    SPI_STOP/SPI

*** WARNING L16: UNCALLED FUNCTION, IGNORED FOR OVERLAY PROCESS
    NAME:    _SPI_CONFIGCLK/SPI

*** WARNING L16: UNCALLED FUNCTION, IGNORED FOR OVERLAY PROCESS
    NAME:    _SPI_CONFIGRUNMODE/SPI

*** WARNING L16: UNCALLED FUNCTION, IGNORED FOR OVERLAY PROCESS
    NAME:    SPI_ENABLEMASTERMODE/SPI

*** WARNING L16: UNCALLED FUNCTION, IGNORED FOR OVERLAY PROCESS
    NAME:    SPI_DISABLEMASTERMODE/SPI

*** WARNING L16: UNCALLED FUNCTION, IGNORED FOR OVERLAY PROCESS
    NAME:    SPI_ENABLESLAVEMODE/SPI

*** WARNING L16: UNCALLED FUNCTION, IGNORED FOR OVERLAY PROCESS
    NAME:    SPI_DISABLESLAVEMODE/SPI

*** WARNING L16: UNCALLED FUNCTION, IGNORED FOR OVERLAY PROCESS
    NAME:    SPI_GETTRANSFERINTFLAG/SPI

*** WARNING L16: UNCALLED FUNCTION, IGNORED FOR OVERLAY PROCESS
    NAME:    SPI_CLEARTRANSFERINTFLAG/SPI

*** WARNING L16: UNCALLED FUNCTION, IGNORED FOR OVERLAY PROCESS
    NAME:    SPI_GETWRITEERRORINTFLAG/SPI

*** WARNING L16: UNCALLED FUNCTION, IGNORED FOR OVERLAY PROCESS
    NAME:    SPI_CLEARWRITEERRORINTFLAG/SPI

*** WARNING L16: UNCALLED FUNCTION, IGNORED FOR OVERLAY PROCESS
    NAME:    SPI_ENABLEINTFLAG/SPI

*** WARNING L16: UNCALLED FUNCTION, IGNORED FOR OVERLAY PROCESS
    NAME:    SPI_DISABLEINTFLAG/SPI

*** WARNING L16: UNCALLED FUNCTION, IGNORED FOR OVERLAY PROCESS
    NAME:    SYS_ENABLELVD/SYSTEM
LX51 LINKER/LOCATER V4.66.1.0                                                         09/07/2023  18:22:32  PAGE 160



*** WARNING L16: UNCALLED FUNCTION, IGNORED FOR OVERLAY PROCESS
    NAME:    SYS_DISABLELVD/SYSTEM

*** WARNING L16: UNCALLED FUNCTION, IGNORED FOR OVERLAY PROCESS
    NAME:    _SYS_CONFIGLVD/SYSTEM

*** WARNING L16: UNCALLED FUNCTION, IGNORED FOR OVERLAY PROCESS
    NAME:    SYS_ENABLELVDINT/SYSTEM

*** WARNING L16: UNCALLED FUNCTION, IGNORED FOR OVERLAY PROCESS
    NAME:    SYS_DISABLELVDINT/SYSTEM

*** WARNING L16: UNCALLED FUNCTION, IGNORED FOR OVERLAY PROCESS
    NAME:    SYS_GETLVDINTFLAG/SYSTEM

*** WARNING L16: UNCALLED FUNCTION, IGNORED FOR OVERLAY PROCESS
    NAME:    SYS_CLEARLVDINTFLAG/SYSTEM

*** WARNING L16: UNCALLED FUNCTION, IGNORED FOR OVERLAY PROCESS
    NAME:    SYS_ENABLEWDTRESET/SYSTEM

*** WARNING L16: UNCALLED FUNCTION, IGNORED FOR OVERLAY PROCESS
    NAME:    SYS_DISABLEWDTRESET/SYSTEM

*** WARNING L16: UNCALLED FUNCTION, IGNORED FOR OVERLAY PROCESS
    NAME:    SYS_GETWDTRESETFLAG/SYSTEM

*** WARNING L16: UNCALLED FUNCTION, IGNORED FOR OVERLAY PROCESS
    NAME:    SYS_CLEARWDTRESETFLAG/SYSTEM

*** WARNING L16: UNCALLED FUNCTION, IGNORED FOR OVERLAY PROCESS
    NAME:    SYS_ENABLESOFTWARERESET/SYSTEM

*** WARNING L16: UNCALLED FUNCTION, IGNORED FOR OVERLAY PROCESS
    NAME:    SYS_DISABLESOFTWARERESET/SYSTEM

*** WARNING L16: UNCALLED FUNCTION, IGNORED FOR OVERLAY PROCESS
    NAME:    SYS_GETPOWERONRESETFLAG/SYSTEM

*** WARNING L16: UNCALLED FUNCTION, IGNORED FOR OVERLAY PROCESS
    NAME:    SYS_CLEARPOWERONRESETFLAG/SYSTEM

*** WARNING L16: UNCALLED FUNCTION, IGNORED FOR OVERLAY PROCESS
    NAME:    SYS_ENABLEWAKEUP/SYSTEM

*** WARNING L16: UNCALLED FUNCTION, IGNORED FOR OVERLAY PROCESS
    NAME:    SYS_DISABLEWAKEUP/SYSTEM

*** WARNING L16: UNCALLED FUNCTION, IGNORED FOR OVERLAY PROCESS
    NAME:    SYS_ENTERSTOP/SYSTEM

*** WARNING L16: UNCALLED FUNCTION, IGNORED FOR OVERLAY PROCESS
    NAME:    SYS_ENTERIDLE/SYSTEM

*** WARNING L16: UNCALLED FUNCTION, IGNORED FOR OVERLAY PROCESS
    NAME:    SYS_ENABLEWAKEUPTRIG/SYSTEM

*** WARNING L16: UNCALLED FUNCTION, IGNORED FOR OVERLAY PROCESS
    NAME:    SYS_DISABLEWAKEUPTRIG/SYSTEM

*** WARNING L16: UNCALLED FUNCTION, IGNORED FOR OVERLAY PROCESS
    NAME:    _SYS_CONFIGWUTCLK/SYSTEM

*** WARNING L16: UNCALLED FUNCTION, IGNORED FOR OVERLAY PROCESS
LX51 LINKER/LOCATER V4.66.1.0                                                         09/07/2023  18:22:32  PAGE 161


    NAME:    _SYS_CONFIGWUTTIME/SYSTEM

*** WARNING L16: UNCALLED FUNCTION, IGNORED FOR OVERLAY PROCESS
    NAME:    _TMR_ENABLEGATE/TIMER

*** WARNING L16: UNCALLED FUNCTION, IGNORED FOR OVERLAY PROCESS
    NAME:    _TMR_DISABLEGATE/TIMER

*** WARNING L16: UNCALLED FUNCTION, IGNORED FOR OVERLAY PROCESS
    NAME:    _TMR_GETCOUNTVALUE/TIMER

*** WARNING L16: UNCALLED FUNCTION, IGNORED FOR OVERLAY PROCESS
    NAME:    _TMR_DISABLEOVERFLOWINT/TIMER

*** WARNING L16: UNCALLED FUNCTION, IGNORED FOR OVERLAY PROCESS
    NAME:    _TMR_GETOVERFLOWINTFLAG/TIMER

*** WARNING L16: UNCALLED FUNCTION, IGNORED FOR OVERLAY PROCESS
    NAME:    _TMR_CLEAROVERFLOWINTFLAG/TIMER

*** WARNING L16: UNCALLED FUNCTION, IGNORED FOR OVERLAY PROCESS
    NAME:    _TMR_STOP/TIMER

*** WARNING L16: UNCALLED FUNCTION, IGNORED FOR OVERLAY PROCESS
    NAME:    _TMR2_CONFIGRUNMODE/TIMER

*** WARNING L16: UNCALLED FUNCTION, IGNORED FOR OVERLAY PROCESS
    NAME:    _TMR2_CONFIGTIMERCLK/TIMER

*** WARNING L16: UNCALLED FUNCTION, IGNORED FOR OVERLAY PROCESS
    NAME:    _TMR2_CONFIGTIMERPERIOD/TIMER

*** WARNING L16: UNCALLED FUNCTION, IGNORED FOR OVERLAY PROCESS
    NAME:    TMR2_ENABLEGATE/TIMER

*** WARNING L16: UNCALLED FUNCTION, IGNORED FOR OVERLAY PROCESS
    NAME:    TMR2_DISABLEGATE/TIMER

*** WARNING L16: UNCALLED FUNCTION, IGNORED FOR OVERLAY PROCESS
    NAME:    _TMR2_ENABLECOMPARE/TIMER

*** WARNING L16: UNCALLED FUNCTION, IGNORED FOR OVERLAY PROCESS
    NAME:    _TMR2_DISABLECOMPARE/TIMER

*** WARNING L16: UNCALLED FUNCTION, IGNORED FOR OVERLAY PROCESS
    NAME:    _TMR2_CONFIGCOMPAREVALUE/TIMER

*** WARNING L16: UNCALLED FUNCTION, IGNORED FOR OVERLAY PROCESS
    NAME:    _TMR2_CONFIGCOMPAREINTMODE/TIMER

*** WARNING L16: UNCALLED FUNCTION, IGNORED FOR OVERLAY PROCESS
    NAME:    _TMR2_ENABLECAPTURE/TIMER

*** WARNING L16: UNCALLED FUNCTION, IGNORED FOR OVERLAY PROCESS
    NAME:    _TMR2_DISABLECAPTURE/TIMER

*** WARNING L16: UNCALLED FUNCTION, IGNORED FOR OVERLAY PROCESS
    NAME:    _TMR2_GETCAPTUREVALUE/TIMER

*** WARNING L16: UNCALLED FUNCTION, IGNORED FOR OVERLAY PROCESS
    NAME:    TMR2_ENABLEOVERFLOWINT/TIMER

*** WARNING L16: UNCALLED FUNCTION, IGNORED FOR OVERLAY PROCESS
    NAME:    TMR2_DISABLEOVERFLOWINT/TIMER

LX51 LINKER/LOCATER V4.66.1.0                                                         09/07/2023  18:22:32  PAGE 162


*** WARNING L16: UNCALLED FUNCTION, IGNORED FOR OVERLAY PROCESS
    NAME:    TMR2_GETOVERFLOWINTFLAG/TIMER

*** WARNING L16: UNCALLED FUNCTION, IGNORED FOR OVERLAY PROCESS
    NAME:    TMR2_CLEAROVERFLOWINTFLAG/TIMER

*** WARNING L16: UNCALLED FUNCTION, IGNORED FOR OVERLAY PROCESS
    NAME:    TMR2_ENABLET2EXINT/TIMER

*** WARNING L16: UNCALLED FUNCTION, IGNORED FOR OVERLAY PROCESS
    NAME:    TMR2_DISABLET2EXINT/TIMER

*** WARNING L16: UNCALLED FUNCTION, IGNORED FOR OVERLAY PROCESS
    NAME:    TMR2_GETT2EXINTFLAG/TIMER

*** WARNING L16: UNCALLED FUNCTION, IGNORED FOR OVERLAY PROCESS
    NAME:    TMR2_CLEART2EXINTFLAG/TIMER

*** WARNING L16: UNCALLED FUNCTION, IGNORED FOR OVERLAY PROCESS
    NAME:    _TMR2_ENABLECOMPAREINT/TIMER

*** WARNING L16: UNCALLED FUNCTION, IGNORED FOR OVERLAY PROCESS
    NAME:    _TMR2_DISABLECOMPAREINT/TIMER

*** WARNING L16: UNCALLED FUNCTION, IGNORED FOR OVERLAY PROCESS
    NAME:    _TMR2_GETCOMPAREINTFLAG/TIMER

*** WARNING L16: UNCALLED FUNCTION, IGNORED FOR OVERLAY PROCESS
    NAME:    _TMR2_CLEARCOMPAREINTFLAG/TIMER

*** WARNING L16: UNCALLED FUNCTION, IGNORED FOR OVERLAY PROCESS
    NAME:    _TMR2_ENABLECAPTUREINT/TIMER

*** WARNING L16: UNCALLED FUNCTION, IGNORED FOR OVERLAY PROCESS
    NAME:    _TMR2_DISABLECAPTUREINT/TIMER

*** WARNING L16: UNCALLED FUNCTION, IGNORED FOR OVERLAY PROCESS
    NAME:    _TMR2_GETCAPTUREINTFLAG/TIMER

*** WARNING L16: UNCALLED FUNCTION, IGNORED FOR OVERLAY PROCESS
    NAME:    _TMR2_CLEARCAPTUREINTFLAG/TIMER

*** WARNING L16: UNCALLED FUNCTION, IGNORED FOR OVERLAY PROCESS
    NAME:    TMR2_ALLINTENABLE/TIMER

*** WARNING L16: UNCALLED FUNCTION, IGNORED FOR OVERLAY PROCESS
    NAME:    TMR2_ALLINTDISABLE/TIMER

*** WARNING L16: UNCALLED FUNCTION, IGNORED FOR OVERLAY PROCESS
    NAME:    TMR2_START/TIMER

*** WARNING L16: UNCALLED FUNCTION, IGNORED FOR OVERLAY PROCESS
    NAME:    TMR2_STOP/TIMER

*** WARNING L16: UNCALLED FUNCTION, IGNORED FOR OVERLAY PROCESS
    NAME:    _WDT_CONFIGOVERFLOWTIME/WDT

*** WARNING L16: UNCALLED FUNCTION, IGNORED FOR OVERLAY PROCESS
    NAME:    WDT_CLEARWDT/WDT

*** WARNING L16: UNCALLED FUNCTION, IGNORED FOR OVERLAY PROCESS
    NAME:    WDT_ENABLEOVERFLOWINT/WDT

*** WARNING L16: UNCALLED FUNCTION, IGNORED FOR OVERLAY PROCESS
    NAME:    WDT_DISABLEOVERFLOWINT/WDT
LX51 LINKER/LOCATER V4.66.1.0                                                         09/07/2023  18:22:32  PAGE 163



*** WARNING L16: UNCALLED FUNCTION, IGNORED FOR OVERLAY PROCESS
    NAME:    WDT_GETOVERFLOWINTFLAG/WDT

*** WARNING L16: UNCALLED FUNCTION, IGNORED FOR OVERLAY PROCESS
    NAME:    WDT_CLEAROVERFLOWINTFLAG/WDT

*** WARNING L16: UNCALLED FUNCTION, IGNORED FOR OVERLAY PROCESS
    NAME:    _UART_ISR_CONFIG/TEST_UART

*** WARNING L16: UNCALLED FUNCTION, IGNORED FOR OVERLAY PROCESS
    NAME:    GETCHAR/TEST_UART

*** WARNING L16: UNCALLED FUNCTION, IGNORED FOR OVERLAY PROCESS
    NAME:    _PUTS/TEST_UART

*** WARNING L16: UNCALLED FUNCTION, IGNORED FOR OVERLAY PROCESS
    NAME:    LED_RUN/TEST_LED

*** WARNING L16: UNCALLED FUNCTION, IGNORED FOR OVERLAY PROCESS
    NAME:    TIMER_CONFIG/TEST_TIMER

Program Size: data=55.1 xdata=0 const=0 code=8085
LX51 RUN COMPLETE.  220 WARNING(S),  0 ERROR(S)
