LX51 LINKER/LOCATER V4.66.1.0                                                           09/08/2023  16:42:41  PAGE 1


LX51 LINKER/LOCATER V4.66.1.0, INVOKED BY:
C:\KEIL\C51\BIN\LX51.EXE .\Objects\main.obj, .\Objects\isr.obj, .\Objects\uart.obj, .\Objects\acmp.obj, .\Objects\adc.ob
>> j, .\Objects\buzzer.obj, .\Objects\epwm.obj, .\Objects\extint.obj, .\Objects\flash.obj, .\Objects\gpio.obj, .\Objects
>> \i2c.obj, .\Objects\lse.obj, .\Objects\opa.obj, .\Objects\pga.obj, .\Objects\spi.obj, .\Objects\system.obj, .\Objects
>> \timer.obj, .\Objects\wdt.obj, .\Objects\startup_cms8s6990.obj, .\Objects\Test_Uart.obj, .\Objects\Test_LED.obj, .\Ob
>> jects\Test_timer.obj, .\Objects\delay.obj, .\Objects\Breathing_lamp.obj, .\Objects\Voltage_Sampling.obj TO .\Objects\
>> project PRINT (.\Listings\project.map)


CPU MODE:     8051 MODE
MEMORY MODEL: SMALL


INPUT MODULES INCLUDED:
  .\Objects\main.obj (MAIN)
         COMMENT TYPE 0: C51 V9.52.0.0
  .\Objects\isr.obj (ISR)
         COMMENT TYPE 0: C51 V9.52.0.0
  .\Objects\uart.obj (UART)
         COMMENT TYPE 0: C51 V9.52.0.0
  .\Objects\acmp.obj (ACMP)
         COMMENT TYPE 0: C51 V9.52.0.0
  .\Objects\adc.obj (ADC)
         COMMENT TYPE 0: C51 V9.52.0.0
  .\Objects\buzzer.obj (BUZZER)
         COMMENT TYPE 0: C51 V9.52.0.0
  .\Objects\epwm.obj (EPWM)
         COMMENT TYPE 0: C51 V9.52.0.0
  .\Objects\extint.obj (EXTINT)
         COMMENT TYPE 0: C51 V9.52.0.0
  .\Objects\flash.obj (FLASH)
         COMMENT TYPE 0: C51 V9.52.0.0
  .\Objects\gpio.obj (GPIO)
         COMMENT TYPE 0: C51 V9.52.0.0
  .\Objects\i2c.obj (I2C)
         COMMENT TYPE 0: C51 V9.52.0.0
  .\Objects\lse.obj (LSE)
         COMMENT TYPE 0: C51 V9.52.0.0
  .\Objects\opa.obj (OPA)
         COMMENT TYPE 0: C51 V9.52.0.0
  .\Objects\pga.obj (PGA)
         COMMENT TYPE 0: C51 V9.52.0.0
  .\Objects\spi.obj (SPI)
         COMMENT TYPE 0: C51 V9.52.0.0
  .\Objects\system.obj (SYSTEM)
         COMMENT TYPE 0: C51 V9.52.0.0
  .\Objects\timer.obj (TIMER)
         COMMENT TYPE 0: C51 V9.52.0.0
  .\Objects\wdt.obj (WDT)
         COMMENT TYPE 0: C51 V9.52.0.0
  .\Objects\startup_cms8s6990.obj (?C_STARTUP)
         COMMENT TYPE 1: A51 / ASM51 Assembler
  .\Objects\Test_Uart.obj (TEST_UART)
         COMMENT TYPE 0: C51 V9.52.0.0
  .\Objects\Test_LED.obj (TEST_LED)
         COMMENT TYPE 0: C51 V9.52.0.0
  .\Objects\Test_timer.obj (TEST_TIMER)
         COMMENT TYPE 0: C51 V9.52.0.0
  .\Objects\delay.obj (DELAY)
         COMMENT TYPE 0: C51 V9.52.0.0
  .\Objects\Breathing_lamp.obj (BREATHING_LAMP)
         COMMENT TYPE 0: C51 V9.52.0.0
  .\Objects\Voltage_Sampling.obj (VOLTAGE_SAMPLING)
         COMMENT TYPE 0: C51 V9.52.0.0
  C:\KEIL\C51\LIB\C51S.LIB (?C_INIT)
         COMMENT TYPE 1: A51 / ASM51 Assembler
LX51 LINKER/LOCATER V4.66.1.0                                                         09/08/2023  16:42:41  PAGE 2


  C:\KEIL\C51\LIB\C51S.LIB (?C?CLDPTR)
         COMMENT TYPE 1: A51 / ASM51 Assembler
  C:\KEIL\C51\LIB\C51S.LIB (PRINTF)
         COMMENT TYPE 1: A51 / ASM51 Assembler
  C:\KEIL\C51\LIB\C51S.LIB (?C?CLDOPTR)
         COMMENT TYPE 1: A51 / ASM51 Assembler
  C:\KEIL\C51\LIB\C51S.LIB (?C?CSTPTR)
         COMMENT TYPE 1: A51 / ASM51 Assembler
  C:\KEIL\C51\LIB\C51S.LIB (?C?PLDIIDATA)
         COMMENT TYPE 1: A51 / ASM51 Assembler
  C:\KEIL\C51\LIB\C51S.LIB (?C?CCASE)
         COMMENT TYPE 1: A51 / ASM51 Assembler


ACTIVE MEMORY CLASSES OF MODULE:  .\Objects\project (MAIN)

BASE        START       END         USED      MEMORY CLASS
==========================================================
C:000000H   C:000000H   C:00FFFFH   001FEFH   CODE
I:000000H   I:000000H   I:00007FH   000032H   DATA
I:000000H   I:000000H   I:0000FFH   000001H   IDATA
I:000020H.0 I:000020H.0 I:00002FH.7 000001H.1 BIT


MEMORY MAP OF MODULE:  .\Objects\project (MAIN)


START     STOP      LENGTH    ALIGN  RELOC    MEMORY CLASS   SEGMENT NAME
=========================================================================

* * * * * * * * * * *   D A T A   M E M O R Y   * * * * * * * * * * * * *
000000H   000007H   000008H   ---    AT..     DATA           "REG BANK 0"
000008H   00001DH   000016H   BYTE   UNIT     DATA           _DATA_GROUP_
00001EH   00001EH   000001H   BYTE   UNIT     DATA           ?DT?ACMP_DELAY?ACMP
00001FH   00001FH   000001H   BYTE   UNIT     DATA           ?DT?OPA_DELAY?OPA
000020H.0 000021H.0 000001H.1 BIT    UNIT     BIT            _BIT_GROUP_
000021H.1 000021H   000000H.7 ---    ---      **GAP**
000022H   000027H   000006H   BYTE   UNIT     DATA           ?DT?_ACMP_GETOFFSETADJVALUE?ACMP
000028H   00002CH   000005H   BYTE   UNIT     DATA           ?DT?_UART_CONFIGBAUDRATE?UART
00002DH   000030H   000004H   BYTE   UNIT     DATA           ?DT?MAIN
000031H   000031H   000001H   BYTE   UNIT     DATA           ?DT?_OPA_GETOFFSETADJVALUE?OPA
000032H   000032H   000001H   BYTE   UNIT     DATA           ?DT?PGA_DELAY?PGA
000033H   000033H   000001H   BYTE   UNIT     DATA           ?DT?_UART_ISR_CONFIG?TEST_UART
000034H   000034H   000001H   BYTE   UNIT     IDATA          ?STACK

* * * * * * * * * * *   C O D E   M E M O R Y   * * * * * * * * * * * * *
000000H   000002H   000003H   ---    OFFS..   CODE           ?CO??C_STARTUP?0
000003H   000005H   000003H   BYTE   OFFS..   CODE           ?ISR?00003
000006H   00000AH   000005H   BYTE   UNIT     CODE           ?PR?SPI_CLEARTRANSFERINTFLAG?SPI
00000BH   00000DH   000003H   BYTE   OFFS..   CODE           ?ISR?0000B
00000EH   000012H   000005H   BYTE   UNIT     CODE           ?PR?SPI_CLEARWRITEERRORINTFLAG?SPI
000013H   000015H   000003H   BYTE   OFFS..   CODE           ?ISR?00013
000016H   00001AH   000005H   BYTE   UNIT     CODE           ?CO?VOLTAGE_SAMPLING
00001BH   00001DH   000003H   BYTE   OFFS..   CODE           ?ISR?0001B
00001EH   000021H   000004H   BYTE   UNIT     CODE           ?PR?ADC_START?ADC
000022H   000022H   000001H   BYTE   UNIT     CODE           ?PR?TIMER0_IRQHANDLER?ISR
000023H   000025H   000003H   BYTE   OFFS..   CODE           ?ISR?00023
000026H   000029H   000004H   BYTE   UNIT     CODE           ?PR?ADC_STOP?ADC
00002AH   00002AH   000001H   BYTE   UNIT     CODE           ?PR?INT1_IRQHANDLER?ISR
00002BH   00002DH   000003H   BYTE   OFFS..   CODE           ?ISR?0002B
00002EH   000031H   000004H   BYTE   UNIT     CODE           ?PR?ADC_ENABLEHARDWARETRIG?ADC
000032H   000032H   000001H   BYTE   UNIT     CODE           ?PR?TIMER1_IRQHANDLER?ISR
000033H   000035H   000003H   BYTE   OFFS..   CODE           ?ISR?00033
000036H   000039H   000004H   BYTE   UNIT     CODE           ?PR?ADC_DISABLEHARDWARETRIG?ADC
00003AH   00003AH   000001H   BYTE   UNIT     CODE           ?PR?TIMER2_IRQHANDLER?ISR
LX51 LINKER/LOCATER V4.66.1.0                                                         09/08/2023  16:42:41  PAGE 3


00003BH   00003DH   000003H   BYTE   OFFS..   CODE           ?ISR?0003B
00003EH   000041H   000004H   BYTE   UNIT     CODE           ?PR?ADC_ENABLEINT?ADC
000042H   000042H   000001H   BYTE   UNIT     CODE           ?PR?UART1_IRQHANDLER?ISR
000043H   000045H   000003H   BYTE   OFFS..   CODE           ?ISR?00043
000046H   000049H   000004H   BYTE   UNIT     CODE           ?PR?ADC_DISABLEINT?ADC
00004AH   00004AH   000001H   BYTE   UNIT     CODE           ?PR?P0EI_IRQHANDLER?ISR
00004BH   00004DH   000003H   BYTE   OFFS..   CODE           ?ISR?0004B
00004EH   000051H   000004H   BYTE   UNIT     CODE           ?PR?ADC_CLEARINTFLAG?ADC
000052H   000052H   000001H   BYTE   UNIT     CODE           ?PR?P1EI_IRQHANDLER?ISR
000053H   000055H   000003H   BYTE   OFFS..   CODE           ?ISR?00053
000056H   000062H   00000DH   BYTE   UNIT     CODE           ?PR?_UART_ENABLEDOUBLEFREQUENCY?UART
000063H   000065H   000003H   BYTE   OFFS..   CODE           ?ISR?00063
000066H   000069H   000004H   BYTE   UNIT     CODE           ?PR?BUZ_ENABLEBUZZER?BUZZER
00006AH   00006AH   000001H   BYTE   UNIT     CODE           ?PR?P2EI_IRQHANDLER?ISR
00006BH   00006DH   000003H   BYTE   OFFS..   CODE           ?ISR?0006B
00006EH   000071H   000004H   BYTE   UNIT     CODE           ?PR?BUZ_DISABLEBUZZER?BUZZER
000072H   000072H   000001H   BYTE   UNIT     CODE           ?PR?P3EI_IRQHANDLER?ISR
000073H   000075H   000003H   BYTE   OFFS..   CODE           ?ISR?00073
000076H   000079H   000004H   BYTE   UNIT     CODE           ?PR?EPWM_ALLINTENABLE?EPWM
00007AH   00007AH   000001H   BYTE   UNIT     CODE           ?PR?LVD_IRQHANDLER?ISR
00007BH   00007DH   000003H   BYTE   OFFS..   CODE           ?ISR?0007B
00007EH   000081H   000004H   BYTE   UNIT     CODE           ?PR?EPWM_ALLINTDISABLE?EPWM
000082H   000082H   000001H   BYTE   UNIT     CODE           ?PR?LSE_IRQHANDLER?ISR
000083H   000085H   000003H   BYTE   OFFS..   CODE           ?ISR?00083
000086H   000092H   00000DH   BYTE   UNIT     CODE           ?PR?_UART_DISABLEDOUBLEFREQUENCY?UART
000093H   000095H   000003H   BYTE   OFFS..   CODE           ?ISR?00093
000096H   000099H   000004H   BYTE   UNIT     CODE           ?PR?FLASH_UNLOCK?FLASH
00009AH   00009AH   000001H   BYTE   UNIT     CODE           ?PR?ACMP_IRQHANDLER?ISR
00009BH   00009DH   000003H   BYTE   OFFS..   CODE           ?ISR?0009B
00009EH   0000A1H   000004H   BYTE   UNIT     CODE           ?PR?FLASH_LOCK?FLASH
0000A2H   0000A2H   000001H   BYTE   UNIT     CODE           ?PR?TIMER3_IRQHANDLER?ISR
0000A3H   0000A5H   000003H   BYTE   OFFS..   CODE           ?ISR?000A3
0000A6H   0000A9H   000004H   BYTE   UNIT     CODE           ?PR?I2C_ENABLEINT?I2C
0000AAH   0000AAH   000001H   BYTE   UNIT     CODE           ?PR?TIMER4_IRQHANDLER?ISR
0000ABH   0000ADH   000003H   BYTE   OFFS..   CODE           ?ISR?000AB
0000AEH   0000B1H   000004H   BYTE   UNIT     CODE           ?PR?I2C_DISABLEINT?I2C
0000B2H   0000B2H   000001H   BYTE   UNIT     CODE           ?PR?EPWM_IRQHANDLER?ISR
0000B3H   0000B5H   000003H   BYTE   OFFS..   CODE           ?ISR?000B3
0000B6H   000411H   00035CH   BYTE   UNIT     CODE           ?PR?PRINTF?PRINTF
000412H   000608H   0001F7H   BYTE   UNIT     CODE           ?PR?_ACMP_GETOFFSETADJVALUE?ACMP
000609H   0006E6H   0000DEH   BYTE   UNIT     CODE           ?PR?_GPIO_CONFIGGPIOMODE?GPIO
0006E7H   0007AAH   0000C4H   BYTE   UNIT     CODE           ?PR?_OPA_GETOFFSETADJVALUE?OPA
0007ABH   00086CH   0000C2H   BYTE   UNIT     CODE           ?PR?_EPWM_CONFIGCHANNELASYMDUTY?EPWM
00086DH   000906H   00009AH   BYTE   UNIT     CODE           ?C_C51STARTUP
000907H   000994H   00008EH   BYTE   UNIT     CODE           ?C?LIB_CODE
000995H   000A18H   000084H   BYTE   UNIT     CODE           ?PR?EPWM_CONFIG?BREATHING_LAMP
000A19H   000A98H   000080H   BYTE   UNIT     CODE           ?PR?_EPWM_CONFIGCHANNELPERIOD?EPWM
000A99H   000B18H   000080H   BYTE   UNIT     CODE           ?PR?_EPWM_CONFIGCHANNELSYMDUTY?EPWM
000B19H   000B96H   00007EH   BYTE   UNIT     CODE           ?PR?_UART_ISR_CONFIG?TEST_UART
000B97H   000C11H   00007BH   BYTE   UNIT     CODE           ?PR?_TMR2_ENABLECAPTURE?TIMER
000C12H   000C80H   00006FH   BYTE   UNIT     CODE           ?PR?_ACMP_CONFIGNEGATIVE?ACMP
000C81H   000CEFH   00006FH   BYTE   UNIT     CODE           ?PR?_PGA_GETOFFSETADJVALUE?PGA
000CF0H   000D4DH   00005EH   BYTE   UNIT     CODE           ?PR?UART0_IRQHANDLER?ISR
000D4EH   000DAAH   00005DH   BYTE   UNIT     CODE           ?PR?_UART_CONFIGRUNMODE?UART
000DABH   000E06H   00005CH   BYTE   UNIT     CODE           ?PR?_EPWM_CONFIGCHANNELCLK?EPWM
000E07H   000E5EH   000058H   BYTE   UNIT     CODE           ?PR?_GPIO_GETINTFLAG?GPIO
000E5FH   000EB3H   000055H   BYTE   UNIT     CODE           ?PR?ADC_CONFIG?VOLTAGE_SAMPLING
000EB4H   000EFFH   00004CH   BYTE   UNIT     CODE           ?PR?_GPIO_CLEARINTFLAG?GPIO
000F00H   000F47H   000048H   BYTE   UNIT     CODE           ?PR?_TMR_CONFIGRUNMODE?TIMER
000F48H   000F8DH   000046H   BYTE   UNIT     CODE           ?PR?_TMR_CONFIGTIMERCLK?TIMER
000F8EH   000FD1H   000044H   BYTE   UNIT     CODE           ?PR?_TMR_GETCOUNTVALUE?TIMER
000FD2H   00100DH   00003CH   BYTE   UNIT     CODE           ?PR?_TMR2_GETCAPTUREVALUE?TIMER
00100EH   001049H   00003CH   BYTE   UNIT     CODE           ?PR?_UART_CONFIG?TEST_UART
00104AH   001082H   000039H   BYTE   UNIT     CODE           ?PR?_EPWM_ENABLEDEADZONE?EPWM
001083H   0010BAH   000038H   BYTE   UNIT     CODE           ?PR?_EPWM_ENABLEFAULTBRAKE?EPWM
LX51 LINKER/LOCATER V4.66.1.0                                                         09/08/2023  16:42:41  PAGE 4


0010BBH   0010EDH   000033H   BYTE   UNIT     CODE           ?PR?_ACMP_CONFIGOFFSETADJ?ACMP
0010EEH   001120H   000033H   BYTE   UNIT     CODE           ?PR?_TMR_GETOVERFLOWINTFLAG?TIMER
001121H   001153H   000033H   BYTE   UNIT     CODE           ?PR?_TMR2_ENABLECOMPARE?TIMER
001154H   001185H   000032H   BYTE   UNIT     CODE           ?PR?_FLASH_READ?FLASH
001186H   0011B6H   000031H   BYTE   UNIT     CODE           ?PR?_FLASH_WRITE?FLASH
0011B7H   0011E5H   00002FH   BYTE   UNIT     CODE           ?PR?_FLASH_ERASE?FLASH
0011E6H   001214H   00002FH   BYTE   UNIT     CODE           ?PR?_OPA_CONFIGOFFSETADJ?OPA
001215H   001243H   00002FH   BYTE   UNIT     CODE           ?PR?_DELAY_MS?DELAY
001244H   00126FH   00002CH   BYTE   UNIT     CODE           ?PR?_EPWM_DISABLEDEADZONE?EPWM
001270H   00129AH   00002BH   BYTE   UNIT     CODE           ?PR?_ACMP_ENABLEHYS?ACMP
00129BH   0012C5H   00002BH   BYTE   UNIT     CODE           ?PR?_EPWM_DISABLEFAULTBRAKE?EPWM
0012C6H   0012EEH   000029H   BYTE   UNIT     CODE           ?PR?_OPA_SETRUNMODE?OPA
0012EFH   001317H   000029H   BYTE   UNIT     CODE           ?PR?_OPA_CONFIGNEGATIVE?OPA
001318H   001340H   000029H   BYTE   UNIT     CODE           ?PR?TIMER_CONFIG?TEST_TIMER
001341H   001365H   000025H   BYTE   UNIT     CODE           ?PR?_ACMP_ENABLEFILTER?ACMP
001366H   00138AH   000025H   BYTE   UNIT     CODE           ?PR?ADC_GETADCRESULT?ADC
00138BH   0013AEH   000024H   BYTE   UNIT     CODE           ?PR?LED_RUN?TEST_LED
0013AFH   0013D1H   000023H   BYTE   UNIT     CODE           ?PR?_ACMP_ENABLEACMPBRAKE?ACMP
0013D2H   0013F4H   000023H   BYTE   UNIT     CODE           ?PR?_ACMP_GETRESULT?ACMP
0013F5H   001417H   000023H   BYTE   UNIT     CODE           ?PR?_OPA_GETRESULT?OPA
001418H   00143AH   000023H   BYTE   UNIT     CODE           ?PR?_TMR_CONFIGTIMERPERIOD?TIMER
00143BH   00145CH   000022H   BYTE   UNIT     CODE           ?PR?_GPIO_DISABLEINT?GPIO
00145DH   00147DH   000021H   BYTE   UNIT     CODE           ?PR?_ACMP_CONFIGPOSITIVE?ACMP
00147EH   00149EH   000021H   BYTE   UNIT     CODE           ?PR?_OPA_CONFIGPOSITIVE?OPA
00149FH   0014BDH   00001FH   BYTE   UNIT     CODE           ?PR?_UART_GETRECEIVEINTFLAG?UART
0014BEH   0014DCH   00001FH   BYTE   UNIT     CODE           ?PR?_UART_GETSENDINTFLAG?UART
0014DDH   0014FBH   00001FH   BYTE   UNIT     CODE           ?PR?_EPWM_GETUPCMPINTFLAG?EPWM
0014FCH   00151AH   00001FH   BYTE   UNIT     CODE           ?PR?_EPWM_GETDOWNCMPINTFLAG?EPWM
00151BH   001539H   00001FH   BYTE   UNIT     CODE           ?PR?_EPWM_GETPERIODINTFLAG?EPWM
00153AH   001558H   00001FH   BYTE   UNIT     CODE           ?PR?_EPWM_GETZEROINTFLAG?EPWM
001559H   001577H   00001FH   BYTE   UNIT     CODE           ?PR?_EXTINT_GETINTFLAG?EXTINT
001578H   001596H   00001FH   BYTE   UNIT     CODE           ?PR?_TMR_START?TIMER
001597H   0015B5H   00001FH   BYTE   UNIT     CODE           ?PR?_TMR_STOP?TIMER
0015B6H   0015D4H   00001FH   BYTE   UNIT     CODE           ?PR?_TMR2_CONFIGTIMERPERIOD?TIMER
0015D5H   0015F3H   00001FH   BYTE   UNIT     CODE           ?PR?_TMR2_CONFIGCOMPAREVALUE?TIMER
0015F4H   001611H   00001EH   BYTE   UNIT     CODE           ?PR?_ADC_ENABLECHANNEL?ADC
001612H   00162FH   00001EH   BYTE   UNIT     CODE           ?PR?_GPIO_ENABLEINT?GPIO
001630H   00164CH   00001DH   BYTE   UNIT     CODE           ?PR?_TMR_ENABLEOVERFLOWINT?TIMER
00164DH   001669H   00001DH   BYTE   UNIT     CODE           ?PR?_TMR_DISABLEOVERFLOWINT?TIMER
00166AH   001686H   00001DH   BYTE   UNIT     CODE           ?PR?_TMR_CLEAROVERFLOWINTFLAG?TIMER
001687H   0016A3H   00001DH   BYTE   UNIT     CODE           ?PR?IO_CONFIG?BREATHING_LAMP
0016A4H   0016BFH   00001CH   BYTE   UNIT     CODE           ?PR?_UART_SENDNINTHBIT?UART
0016C0H   0016DBH   00001CH   BYTE   UNIT     CODE           ?PR?_TMR2_GETCOMPAREINTFLAG?TIMER
0016DCH   0016F7H   00001CH   BYTE   UNIT     CODE           ?PR?_TMR2_GETCAPTUREINTFLAG?TIMER
0016F8H   001712H   00001BH   BYTE   UNIT     CODE           ?PR?_UART_CLEARRECEIVEINTFLAG?UART
001713H   00172DH   00001BH   BYTE   UNIT     CODE           ?PR?_UART_CLEARSENDINTFLAG?UART
00172EH   001748H   00001BH   BYTE   UNIT     CODE           ?PR?_EXTINT_CONFIGINT?EXTINT
001749H   001763H   00001BH   BYTE   UNIT     CODE           ?PR?SYS_ENABLEWDTRESET?SYSTEM
001764H   00177EH   00001BH   BYTE   UNIT     CODE           ?PR?SYS_DISABLEWDTRESET?SYSTEM
00177FH   001799H   00001BH   BYTE   UNIT     CODE           ?PR?SYS_CLEARWDTRESETFLAG?SYSTEM
00179AH   0017B4H   00001BH   BYTE   UNIT     CODE           ?PR?SYS_ENABLESOFTWARERESET?SYSTEM
0017B5H   0017CFH   00001BH   BYTE   UNIT     CODE           ?PR?SYS_DISABLESOFTWARERESET?SYSTEM
0017D0H   0017EAH   00001BH   BYTE   UNIT     CODE           ?PR?WDT_CLEARWDT?WDT
0017EBH   001805H   00001BH   BYTE   UNIT     CODE           ?PR?WDT_CLEAROVERFLOWINTFLAG?WDT
001806H   00181EH   000019H   BYTE   UNIT     CODE           ?PR?_EPWM_ENABLEMASKCONTROL?EPWM
00181FH   001837H   000019H   BYTE   UNIT     CODE           ?PR?_PGA_ENABLENORMALMODE?PGA
001838H   001850H   000019H   BYTE   UNIT     CODE           ?PR?_TMR2_DISABLECOMPARE?TIMER
001851H   001869H   000019H   BYTE   UNIT     CODE           ?PR?_TMR2_DISABLECAPTURE?TIMER
00186AH   001881H   000018H   BYTE   UNIT     CODE           ?PR?_ADC_CONFIGRUNMODE?ADC
001882H   001898H   000017H   BYTE   UNIT     CODE           ?PR?_UART_GETNINTHBIT?UART
001899H   0018AEH   000016H   BYTE   UNIT     CODE           ?PR?_SPI_CONFIGRUNMODE?SPI
0018AFH   0018C4H   000016H   BYTE   UNIT     CODE           ?PR?_PUTS?TEST_UART
0018C5H   0018D9H   000015H   BYTE   UNIT     CODE           ?PR?_ACMP_ENABLEREVERSEOUTPUT?ACMP
0018DAH   0018EEH   000015H   BYTE   UNIT     CODE           ?PR?_ACMP_DISABLEREVERSEOUTPUT?ACMP
0018EFH   001903H   000015H   BYTE   UNIT     CODE           ?PR?_ACMP_DISABLEFILTER?ACMP
LX51 LINKER/LOCATER V4.66.1.0                                                         09/08/2023  16:42:41  PAGE 5


001904H   001918H   000015H   BYTE   UNIT     CODE           ?PR?_ACMP_START?ACMP
001919H   00192DH   000015H   BYTE   UNIT     CODE           ?PR?_ACMP_STOP?ACMP
00192EH   001942H   000015H   BYTE   UNIT     CODE           ?PR?_ACMP_DISABLEHYS?ACMP
001943H   001957H   000015H   BYTE   UNIT     CODE           ?PR?_ADC_CONFIGHARDWARETRIG?ADC
001958H   00196CH   000015H   BYTE   UNIT     CODE           ?PR?_OPA_ENABLEOUTPUT?OPA
00196DH   001981H   000015H   BYTE   UNIT     CODE           ?PR?_OPA_DISABLEOUTPUT?OPA
001982H   001996H   000015H   BYTE   UNIT     CODE           ?PR?_OPA_START?OPA
001997H   0019ABH   000015H   BYTE   UNIT     CODE           ?PR?_OPA_STOP?OPA
0019ACH   0019BFH   000014H   BYTE   UNIT     CODE           ?PR?_ACMP_DISABLEINT?ACMP
0019C0H   0019D3H   000014H   BYTE   UNIT     CODE           ?PR?ACMP_DELAY?ACMP
0019D4H   0019E6H   000013H   BYTE   UNIT     CODE           ?PR?_ACMP_ENABLEINT?ACMP
0019E7H   0019F9H   000013H   BYTE   UNIT     CODE           ?PR?_ACMP_GETINTFLAG?ACMP
0019FAH   001A0CH   000013H   BYTE   UNIT     CODE           ?PR?_ADC_CONFIGCOMPAREVALUE?ADC
001A0DH   001A1EH   000012H   BYTE   UNIT     CODE           ?PR?_EPWM_CONFIGCHANNELBRAKELEVEL?EPWM
001A1FH   001A2FH   000011H   BYTE   UNIT     CODE           ?PR?_ACMP_CLEARINTFLAG?ACMP
001A30H   001A40H   000011H   BYTE   UNIT     CODE           ?PR?_EPWM_CLEARUPCMPINTFLAG?EPWM
001A41H   001A51H   000011H   BYTE   UNIT     CODE           ?PR?_EPWM_CLEARDOWNCMPINTFLAG?EPWM
001A52H   001A62H   000011H   BYTE   UNIT     CODE           ?PR?_EPWM_CLEARPERIODINTFLAG?EPWM
001A63H   001A73H   000011H   BYTE   UNIT     CODE           ?PR?_EPWM_CLEARZEROINTFLAG?EPWM
001A74H   001A84H   000011H   BYTE   UNIT     CODE           ?PR?_PGA_CONFIGGAIN?PGA
001A85H   001A95H   000011H   BYTE   UNIT     CODE           ?PR?_PGA_CONFIGOFFSETADJ?PGA
001A96H   001AA6H   000011H   BYTE   UNIT     CODE           ?PR?_SYS_CONFIGWUTTIME?SYSTEM
001AA7H   001AB5H   00000FH   BYTE   UNIT     CODE           ?PR?_UART_GETBUFF?UART
001AB6H   001AC4H   00000FH   BYTE   UNIT     CODE           ?PR?_ADC_CONFIGAN31?ADC
001AC5H   001AD3H   00000FH   BYTE   UNIT     CODE           ?PR?_ADC_SETTRIGDELAYTIME?ADC
001AD4H   001AE2H   00000FH   BYTE   UNIT     CODE           ?PR?_TMR2_DISABLECOMPAREINT?TIMER
001AE3H   001AF1H   00000FH   BYTE   UNIT     CODE           ?PR?_TMR2_CLEARCOMPAREINTFLAG?TIMER
001AF2H   001B00H   00000FH   BYTE   UNIT     CODE           ?PR?_TMR2_DISABLECAPTUREINT?TIMER
001B01H   001B0FH   00000FH   BYTE   UNIT     CODE           ?PR?_TMR2_CLEARCAPTUREINTFLAG?TIMER
001B10H   001B1EH   00000FH   BYTE   UNIT     CODE           ?PR?_WDT_CONFIGOVERFLOWTIME?WDT
001B1FH   001B2CH   00000EH   BYTE   UNIT     CODE           ?PR?_UART_CONFIGBRTCLK?UART
001B2DH   001B3AH   00000EH   BYTE   UNIT     CODE           ?PR?_ADC_CONFIGADCVREF?ADC
001B3BH   001B48H   00000EH   BYTE   UNIT     CODE           ?PR?_EPWM_CONFIGFBBRAKE?EPWM
001B49H   001B56H   00000EH   BYTE   UNIT     CODE           ?PR?_PGA_CONFIGINPUT?PGA
001B57H   001B64H   00000EH   BYTE   UNIT     CODE           ?PR?_PGA_CONFIGSAMPLETIME?PGA
001B65H   001B72H   00000EH   BYTE   UNIT     CODE           ?PR?_SYS_CONFIGLVD?SYSTEM
001B73H   001B80H   00000EH   BYTE   UNIT     CODE           ?PR?_SYS_CONFIGWUTCLK?SYSTEM
001B81H   001B8EH   00000EH   BYTE   UNIT     CODE           ?PR?_TMR2_ENABLECOMPAREINT?TIMER
001B8FH   001B9CH   00000EH   BYTE   UNIT     CODE           ?PR?_TMR2_ENABLECAPTUREINT?TIMER
001B9DH   001BAAH   00000EH   BYTE   UNIT     CODE           ?PR?GPIO_CONFIG?TEST_LED
001BABH   001BB7H   00000DH   BYTE   UNIT     CODE           ?PR?_UART_ENABLERECEIVE?UART
001BB8H   001BC4H   00000DH   BYTE   UNIT     CODE           ?PR?_UART_DISABLERECEIVE?UART
001BC5H   001BD1H   00000DH   BYTE   UNIT     CODE           ?PR?_BUZ_CONFIGBUZZER?BUZZER
001BD2H   001BDEH   00000DH   BYTE   UNIT     CODE           ?PR?_LSE_CONFIGLSE?LSE
001BDFH   001BEBH   00000DH   BYTE   UNIT     CODE           ?PR?_TMR_ENABLEGATE?TIMER
001BECH   001BF8H   00000DH   BYTE   UNIT     CODE           ?PR?_TMR_DISABLEGATE?TIMER
001BF9H   001C05H   00000DH   BYTE   UNIT     CODE           ?PR?_PUTCHAR?TEST_UART
001C06H   001C11H   00000CH   BYTE   UNIT     CODE           ?PR?_UART_CONFIGBAUDRATE?UART
001C12H   001C1DH   00000CH   BYTE   UNIT     CODE           ?PR?_EPWM_ENABLEONESHOTMODE?EPWM
001C1EH   001C29H   00000CH   BYTE   UNIT     CODE           ?PR?_EPWM_STOP?EPWM
001C2AH   001C35H   00000CH   BYTE   UNIT     CODE           ?PR?_EPWM_DISABLEOUTPUT?EPWM
001C36H   001C41H   00000CH   BYTE   UNIT     CODE           ?PR?_EPWM_DISABLEMASKCONTROL?EPWM
001C42H   001C4DH   00000CH   BYTE   UNIT     CODE           ?PR?_EPWM_DISABLEUPCMPINT?EPWM
001C4EH   001C59H   00000CH   BYTE   UNIT     CODE           ?PR?_EPWM_DISABLEDOWNCMPINT?EPWM
001C5AH   001C65H   00000CH   BYTE   UNIT     CODE           ?PR?_EPWM_DISABLEPERIODINT?EPWM
001C66H   001C71H   00000CH   BYTE   UNIT     CODE           ?PR?_EPWM_DISABLEZEROINT?EPWM
001C72H   001C7DH   00000CH   BYTE   UNIT     CODE           ?PR?EPWM_ENABLEFAULTBRAKEINT?EPWM
001C7EH   001C89H   00000CH   BYTE   UNIT     CODE           ?PR?EPWM_GETFAULTBRAKEINTFLAG?EPWM
001C8AH   001C95H   00000CH   BYTE   UNIT     CODE           ?PR?_EPWM_DISABLEREVERSEOUTPUT?EPWM
001C96H   001CA1H   00000CH   BYTE   UNIT     CODE           ?PR?LSE_GETLSEINTFLAG?LSE
001CA2H   001CADH   00000CH   BYTE   UNIT     CODE           ?PR?LSE_GETLSESTATE?LSE
001CAEH   001CB9H   00000CH   BYTE   UNIT     CODE           ?PR?OPA_DELAY?OPA
001CBAH   001CC5H   00000CH   BYTE   UNIT     CODE           ?PR?PGA_GETOUTVALUE?PGA
001CC6H   001CD1H   00000CH   BYTE   UNIT     CODE           ?PR?PGA_DELAY?PGA
001CD2H   001CDDH   00000CH   BYTE   UNIT     CODE           ?PR?SYS_GETLVDINTFLAG?SYSTEM
LX51 LINKER/LOCATER V4.66.1.0                                                         09/08/2023  16:42:41  PAGE 6


001CDEH   001CE9H   00000CH   BYTE   UNIT     CODE           ?PR?SYS_ENTERSTOP?SYSTEM
001CEAH   001CF5H   00000CH   BYTE   UNIT     CODE           ?PR?SYS_ENTERIDLE?SYSTEM
001CF6H   001D01H   00000CH   BYTE   UNIT     CODE           ?PR?_TMR2_CONFIGRUNMODE?TIMER
001D02H   001D0CH   00000BH   BYTE   UNIT     CODE           ?PR?_UART_ENABLEINT?UART
001D0DH   001D17H   00000BH   BYTE   UNIT     CODE           ?PR?_UART_DISABLEINT?UART
001D18H   001D22H   00000BH   BYTE   UNIT     CODE           ?PR?_UART_SENDBUFF?UART
001D23H   001D2DH   00000BH   BYTE   UNIT     CODE           ?PR?_ADC_CONFIGADCBRAKE?ADC
001D2EH   001D38H   00000BH   BYTE   UNIT     CODE           ?PR?_EXTINT_ENABLEINT?EXTINT
001D39H   001D43H   00000BH   BYTE   UNIT     CODE           ?PR?_EXTINT_DISABLEINT?EXTINT
001D44H   001D4EH   00000BH   BYTE   UNIT     CODE           ?PR?_EXTINT_CLEARINTFLAG?EXTINT
001D4FH   001D59H   00000BH   BYTE   UNIT     CODE           ?PR?_SPI_CONFIGCLK?SPI
001D5AH   001D64H   00000BH   BYTE   UNIT     CODE           ?PR?_TMR2_CONFIGTIMERCLK?TIMER
001D65H   001D6FH   00000BH   BYTE   UNIT     CODE           ?PR?TMR2_DISABLEGATE?TIMER
001D70H   001D7AH   00000BH   BYTE   UNIT     CODE           ?PR?_TMR2_CONFIGCOMPAREINTMODE?TIMER
001D7BH   001D85H   00000BH   BYTE   UNIT     CODE           ?PR?GETCHAR?TEST_UART
001D86H   001D8FH   00000AH   BYTE   UNIT     CODE           ?PR?MAIN?MAIN
001D90H   001D99H   00000AH   BYTE   UNIT     CODE           ?PR?ADC_GETCMPRESULT?ADC
001D9AH   001DA3H   00000AH   BYTE   UNIT     CODE           ?PR?ADC_GETINTFLAG?ADC
001DA4H   001DADH   00000AH   BYTE   UNIT     CODE           ?PR?I2C_GETMASTERSENDADDRFLAG?I2C
001DAEH   001DB7H   00000AH   BYTE   UNIT     CODE           ?PR?I2C_GETBUSARBITRATIONFLAG?I2C
001DB8H   001DC1H   00000AH   BYTE   UNIT     CODE           ?PR?I2C_GETMASTERERRORFLAG?I2C
001DC2H   001DCBH   00000AH   BYTE   UNIT     CODE           ?PR?I2C_GETMASTERBUSYFLAG?I2C
001DCCH   001DD5H   00000AH   BYTE   UNIT     CODE           ?PR?I2C_GETI2CBUSBUSYFLAG?I2C
001DD6H   001DDFH   00000AH   BYTE   UNIT     CODE           ?PR?I2C_GETMASTERIDLEFLAG?I2C
001DE0H   001DE9H   00000AH   BYTE   UNIT     CODE           ?PR?I2C_GETMASTERINTFLAG?I2C
001DEAH   001DF3H   00000AH   BYTE   UNIT     CODE           ?PR?SPI_GETTRANSFERINTFLAG?SPI
001DF4H   001DFDH   00000AH   BYTE   UNIT     CODE           ?PR?SPI_GETWRITEERRORINTFLAG?SPI
001DFEH   001E07H   00000AH   BYTE   UNIT     CODE           ?PR?SYS_GETWDTRESETFLAG?SYSTEM
001E08H   001E11H   00000AH   BYTE   UNIT     CODE           ?PR?SYS_GETPOWERONRESETFLAG?SYSTEM
001E12H   001E1BH   00000AH   BYTE   UNIT     CODE           ?PR?TMR2_GETOVERFLOWINTFLAG?TIMER
001E1CH   001E25H   00000AH   BYTE   UNIT     CODE           ?PR?TMR2_GETT2EXINTFLAG?TIMER
001E26H   001E2FH   00000AH   BYTE   UNIT     CODE           ?PR?TMR2_START?TIMER
001E30H   001E39H   00000AH   BYTE   UNIT     CODE           ?PR?WDT_GETOVERFLOWINTFLAG?WDT
001E3AH   001E43H   00000AH   BYTE   UNIT     CODE           ?CO?TEST_LED
001E44H   001E4CH   000009H   BYTE   UNIT     CODE           ?PR?_UART_CONFIGBRTPERIOD?UART
001E4DH   001E54H   000008H   BYTE   UNIT     CODE           ?PR?UART_ENABLEBRT?UART
001E55H   001E5CH   000008H   BYTE   UNIT     CODE           ?PR?UART_DISABLEBRT?UART
001E5DH   001E64H   000008H   BYTE   UNIT     CODE           ?PR?ADC_ENABLELDO?ADC
001E65H   001E6CH   000008H   BYTE   UNIT     CODE           ?PR?ADC_DISABLELDO?ADC
001E6DH   001E74H   000008H   BYTE   UNIT     CODE           ?PR?EPWM_DISABLEFAULTBRAKEINT?EPWM
001E75H   001E7CH   000008H   BYTE   UNIT     CODE           ?PR?EPWM_CLEARFAULTBRAKEINTFLAG?EPWM
001E7DH   001E84H   000008H   BYTE   UNIT     CODE           ?PR?EPWM_TRIGSOFTWAREBRAKE?EPWM
001E85H   001E8CH   000008H   BYTE   UNIT     CODE           ?PR?EPWM_DISABLESOFTWAREBRAKE?EPWM
001E8DH   001E94H   000008H   BYTE   UNIT     CODE           ?PR?LSE_ENABLELSE?LSE
001E95H   001E9CH   000008H   BYTE   UNIT     CODE           ?PR?LSE_DISABLELSE?LSE
001E9DH   001EA4H   000008H   BYTE   UNIT     CODE           ?PR?LSE_START?LSE
001EA5H   001EACH   000008H   BYTE   UNIT     CODE           ?PR?LSE_STOP?LSE
001EADH   001EB4H   000008H   BYTE   UNIT     CODE           ?PR?LSE_ENABLELSEWAKEUP?LSE
001EB5H   001EBCH   000008H   BYTE   UNIT     CODE           ?PR?LSE_DISABLELSEWAKEUP?LSE
001EBDH   001EC4H   000008H   BYTE   UNIT     CODE           ?PR?LSE_ENABLELSEINT?LSE
001EC5H   001ECCH   000008H   BYTE   UNIT     CODE           ?PR?LSE_DISABLELSEINT?LSE
001ECDH   001ED4H   000008H   BYTE   UNIT     CODE           ?PR?LSE_CLEARLSEINTFLAG?LSE
001ED5H   001EDCH   000008H   BYTE   UNIT     CODE           ?PR?PGA_ENABLEOUTPUT?PGA
001EDDH   001EE4H   000008H   BYTE   UNIT     CODE           ?PR?PGA_DISABLEOUTPUT?PGA
001EE5H   001EECH   000008H   BYTE   UNIT     CODE           ?PR?PGA_ENABLESHA?PGA
001EEDH   001EF4H   000008H   BYTE   UNIT     CODE           ?PR?PGA_DISABLESHA?PGA
001EF5H   001EFCH   000008H   BYTE   UNIT     CODE           ?PR?PGA_START?PGA
001EFDH   001F04H   000008H   BYTE   UNIT     CODE           ?PR?PGA_STOP?PGA
001F05H   001F0CH   000008H   BYTE   UNIT     CODE           ?PR?SYS_ENABLELVD?SYSTEM
001F0DH   001F14H   000008H   BYTE   UNIT     CODE           ?PR?SYS_DISABLELVD?SYSTEM
001F15H   001F1CH   000008H   BYTE   UNIT     CODE           ?PR?SYS_ENABLELVDINT?SYSTEM
001F1DH   001F24H   000008H   BYTE   UNIT     CODE           ?PR?SYS_DISABLELVDINT?SYSTEM
001F25H   001F2CH   000008H   BYTE   UNIT     CODE           ?PR?SYS_CLEARLVDINTFLAG?SYSTEM
001F2DH   001F33H   000007H   BYTE   UNIT     CODE           ?C_INITSEG
001F34H   001F3AH   000007H   BYTE   UNIT     CODE           ?PR?_EPWM_ENABLEAUTOLOADMODE?EPWM
LX51 LINKER/LOCATER V4.66.1.0                                                         09/08/2023  16:42:41  PAGE 7


001F3BH   001F41H   000007H   BYTE   UNIT     CODE           ?PR?_EPWM_START?EPWM
001F42H   001F48H   000007H   BYTE   UNIT     CODE           ?PR?_EPWM_ENABLEOUTPUT?EPWM
001F49H   001F4FH   000007H   BYTE   UNIT     CODE           ?PR?_EPWM_ENABLEUPCMPINT?EPWM
001F50H   001F56H   000007H   BYTE   UNIT     CODE           ?PR?_EPWM_ENABLEDOWNCMPINT?EPWM
001F57H   001F5DH   000007H   BYTE   UNIT     CODE           ?PR?_EPWM_ENABLEPERIODINT?EPWM
001F5EH   001F64H   000007H   BYTE   UNIT     CODE           ?PR?_EPWM_ENABLEZEROINT?EPWM
001F65H   001F6BH   000007H   BYTE   UNIT     CODE           ?PR?_EPWM_ENABLEREVERSEOUTPUT?EPWM
001F6CH   001F71H   000006H   BYTE   UNIT     CODE           ?PR?_EPWM_CONFIGRUNMODE?EPWM
001F72H   001F77H   000006H   BYTE   UNIT     CODE           ?PR?I2C_ENABLEMASTERMODE?I2C
001F78H   001F7DH   000006H   BYTE   UNIT     CODE           ?PR?LAMP_RUN?BREATHING_LAMP
001F7EH   001F81H   000004H   BYTE   UNIT     CODE           ?PR?I2C_CLEARMASTERINTFLAG?I2C
001F82H   001F85H   000004H   BYTE   UNIT     CODE           ?PR?SPI_START?SPI
001F86H   001F89H   000004H   BYTE   UNIT     CODE           ?PR?SPI_STOP?SPI
001F8AH   001F8DH   000004H   BYTE   UNIT     CODE           ?PR?SPI_ENABLEMASTERMODE?SPI
001F8EH   001F91H   000004H   BYTE   UNIT     CODE           ?PR?SPI_DISABLEMASTERMODE?SPI
001F92H   001F95H   000004H   BYTE   UNIT     CODE           ?PR?SPI_ENABLESLAVEMODE?SPI
001F96H   001F99H   000004H   BYTE   UNIT     CODE           ?PR?SPI_DISABLESLAVEMODE?SPI
001F9AH   001F9DH   000004H   BYTE   UNIT     CODE           ?PR?SPI_ENABLEINTFLAG?SPI
001F9EH   001FA1H   000004H   BYTE   UNIT     CODE           ?PR?SPI_DISABLEINTFLAG?SPI
001FA2H   001FA5H   000004H   BYTE   UNIT     CODE           ?PR?SYS_CLEARPOWERONRESETFLAG?SYSTEM
001FA6H   001FA9H   000004H   BYTE   UNIT     CODE           ?PR?SYS_ENABLEWAKEUP?SYSTEM
001FAAH   001FADH   000004H   BYTE   UNIT     CODE           ?PR?SYS_DISABLEWAKEUP?SYSTEM
001FAEH   001FB1H   000004H   BYTE   UNIT     CODE           ?PR?SYS_ENABLEWAKEUPTRIG?SYSTEM
001FB2H   001FB5H   000004H   BYTE   UNIT     CODE           ?PR?SYS_DISABLEWAKEUPTRIG?SYSTEM
001FB6H   001FB9H   000004H   BYTE   UNIT     CODE           ?PR?TMR2_ENABLEGATE?TIMER
001FBAH   001FBDH   000004H   BYTE   UNIT     CODE           ?PR?TMR2_ENABLEOVERFLOWINT?TIMER
001FBEH   001FC1H   000004H   BYTE   UNIT     CODE           ?PR?TMR2_DISABLEOVERFLOWINT?TIMER
001FC2H   001FC5H   000004H   BYTE   UNIT     CODE           ?PR?TMR2_CLEAROVERFLOWINTFLAG?TIMER
001FC6H   001FC9H   000004H   BYTE   UNIT     CODE           ?PR?TMR2_ENABLET2EXINT?TIMER
001FCAH   001FCDH   000004H   BYTE   UNIT     CODE           ?PR?TMR2_DISABLET2EXINT?TIMER
001FCEH   001FD1H   000004H   BYTE   UNIT     CODE           ?PR?TMR2_CLEART2EXINTFLAG?TIMER
001FD2H   001FD5H   000004H   BYTE   UNIT     CODE           ?PR?TMR2_STOP?TIMER
001FD6H   001FD9H   000004H   BYTE   UNIT     CODE           ?PR?WDT_ENABLEOVERFLOWINT?WDT
001FDAH   001FDDH   000004H   BYTE   UNIT     CODE           ?PR?WDT_DISABLEOVERFLOWINT?WDT
001FDEH   001FE0H   000003H   BYTE   UNIT     CODE           ?PR?INT0_IRQHANDLER?ISR
001FE1H   001FE3H   000003H   BYTE   UNIT     CODE           ?PR?_I2C_CONFIGCLK?I2C
001FE4H   001FE6H   000003H   BYTE   UNIT     CODE           ?PR?TMR2_ALLINTENABLE?TIMER
001FE7H   001FE9H   000003H   BYTE   UNIT     CODE           ?PR?TMR2_ALLINTDISABLE?TIMER
001FEAH   001FEAH   000001H   BYTE   UNIT     CODE           ?PR?ADC_IRQHANDLER?ISR
001FEBH   001FEBH   000001H   BYTE   UNIT     CODE           ?PR?WDT_IRQHANDLER?ISR
001FECH   001FECH   000001H   BYTE   UNIT     CODE           ?PR?I2C_IRQHANDLER?ISR
001FEDH   001FEDH   000001H   BYTE   UNIT     CODE           ?PR?SPI_IRQHANDLER?ISR
001FEEH   001FEEH   000001H   BYTE   UNIT     CODE           ?PR?I2C_DISABLEMASTERMODE?I2C



OVERLAY MAP OF MODULE:   .\Objects\project (MAIN)


FUNCTION/MODULE                          BIT_GROUP   DATA_GROUP 
--> CALLED FUNCTION/MODULE              START  STOP  START  STOP
================================================================
INT0_IRQHANDLER/ISR                     ----- -----  ----- -----

*** NEW ROOT **************************

TIMER0_IRQHANDLER/ISR                   ----- -----  ----- -----

*** NEW ROOT **************************

INT1_IRQHANDLER/ISR                     ----- -----  ----- -----

*** NEW ROOT **************************

TIMER1_IRQHANDLER/ISR                   ----- -----  ----- -----
LX51 LINKER/LOCATER V4.66.1.0                                                         09/08/2023  16:42:41  PAGE 8



*** NEW ROOT **************************

UART0_IRQHANDLER/ISR                    ----- -----  ----- -----
  +--> _UART_GETSENDINTFLAG/UART
  +--> _UART_CLEARSENDINTFLAG/UART
  +--> _UART_GETRECEIVEINTFLAG/UART
  +--> _UART_GETBUFF/UART
  +--> _UART_SENDBUFF/UART
  +--> _UART_CLEARRECEIVEINTFLAG/UART

_UART_GETSENDINTFLAG/UART               ----- -----  ----- -----

_UART_CLEARSENDINTFLAG/UART             ----- -----  ----- -----

_UART_GETRECEIVEINTFLAG/UART            ----- -----  ----- -----

_UART_GETBUFF/UART                      ----- -----  ----- -----

_UART_SENDBUFF/UART                     ----- -----  ----- -----

_UART_CLEARRECEIVEINTFLAG/UART          ----- -----  ----- -----

*** NEW ROOT **************************

TIMER2_IRQHANDLER/ISR                   ----- -----  ----- -----

*** NEW ROOT **************************

UART1_IRQHANDLER/ISR                    ----- -----  ----- -----

*** NEW ROOT **************************

P0EI_IRQHANDLER/ISR                     ----- -----  ----- -----

*** NEW ROOT **************************

P1EI_IRQHANDLER/ISR                     ----- -----  ----- -----

*** NEW ROOT **************************

P2EI_IRQHANDLER/ISR                     ----- -----  ----- -----

*** NEW ROOT **************************

P3EI_IRQHANDLER/ISR                     ----- -----  ----- -----

*** NEW ROOT **************************

LVD_IRQHANDLER/ISR                      ----- -----  ----- -----

*** NEW ROOT **************************

LSE_IRQHANDLER/ISR                      ----- -----  ----- -----

*** NEW ROOT **************************

ACMP_IRQHANDLER/ISR                     ----- -----  ----- -----

*** NEW ROOT **************************

TIMER3_IRQHANDLER/ISR                   ----- -----  ----- -----

*** NEW ROOT **************************

LX51 LINKER/LOCATER V4.66.1.0                                                         09/08/2023  16:42:41  PAGE 9


TIMER4_IRQHANDLER/ISR                   ----- -----  ----- -----

*** NEW ROOT **************************

EPWM_IRQHANDLER/ISR                     ----- -----  ----- -----

*** NEW ROOT **************************

ADC_IRQHANDLER/ISR                      ----- -----  ----- -----

*** NEW ROOT **************************

WDT_IRQHANDLER/ISR                      ----- -----  ----- -----

*** NEW ROOT **************************

I2C_IRQHANDLER/ISR                      ----- -----  ----- -----

*** NEW ROOT **************************

SPI_IRQHANDLER/ISR                      ----- -----  ----- -----

*** NEW ROOT **************************

?C_C51STARTUP                           ----- -----  ----- -----
  +--> MAIN/MAIN
  +--> ?C_INITSEG

MAIN/MAIN                               ----- -----  0008H 0009H
  +--> _UART_CONFIG/TEST_UART
  +--> ADC_CONFIG/VOLTAGE_SAMPLING

_UART_CONFIG/TEST_UART                  ----- -----  000AH 000EH
  +--> _UART_CONFIGRUNMODE/UART
  +--> _UART_ENABLERECEIVE/UART
  +--> _UART_CONFIGBRTCLK/UART
  +--> _UART_ENABLEDOUBLEFREQUENCY/UART
  +--> _UART_CONFIGBRTPERIOD/UART
  +--> UART_ENABLEBRT/UART

_UART_CONFIGRUNMODE/UART                ----- -----  ----- -----

_UART_ENABLERECEIVE/UART                ----- -----  ----- -----

_UART_CONFIGBRTCLK/UART                 ----- -----  ----- -----

_UART_ENABLEDOUBLEFREQUENCY/UART        ----- -----  ----- -----

_UART_CONFIGBRTPERIOD/UART              ----- -----  ----- -----

UART_ENABLEBRT/UART                     ----- -----  ----- -----

ADC_CONFIG/VOLTAGE_SAMPLING             ----- -----  ----- -----
  +--> _ADC_CONFIGRUNMODE/ADC
  +--> _ADC_ENABLECHANNEL/ADC
  +--> ADC_ENABLELDO/ADC
  +--> _ADC_CONFIGADCVREF/ADC
  +--> ADC_ENABLEHARDWARETRIG/ADC
  +--> _ADC_CONFIGHARDWARETRIG/ADC
  +--> ADC_GETADCRESULT/ADC
  +--> ?CO?VOLTAGE_SAMPLING
  +--> PRINTF/PRINTF
  +--> ADC_ENABLEINT/ADC
  +--> ADC_START/ADC

LX51 LINKER/LOCATER V4.66.1.0                                                         09/08/2023  16:42:41  PAGE 10


_ADC_CONFIGRUNMODE/ADC                  ----- -----  ----- -----

_ADC_ENABLECHANNEL/ADC                  ----- -----  ----- -----

ADC_ENABLELDO/ADC                       ----- -----  ----- -----

_ADC_CONFIGADCVREF/ADC                  ----- -----  ----- -----

ADC_ENABLEHARDWARETRIG/ADC              ----- -----  ----- -----

_ADC_CONFIGHARDWARETRIG/ADC             ----- -----  ----- -----

ADC_GETADCRESULT/ADC                    ----- -----  ----- -----

?CO?VOLTAGE_SAMPLING                    ----- -----  ----- -----

PRINTF/PRINTF                           20H.0 21H.0  000AH 001DH
  +--> _PUTCHAR/TEST_UART

_PUTCHAR/TEST_UART                      ----- -----  ----- -----

ADC_ENABLEINT/ADC                       ----- -----  ----- -----

ADC_START/ADC                           ----- -----  ----- -----

?C_INITSEG                              ----- -----  ----- -----



PUBLIC SYMBOLS OF MODULE:  .\Objects\project (MAIN)


      VALUE       CLASS    TYPE      PUBLIC SYMBOL NAME
      =================================================
      00000022H   DATA     BYTE      ?_ACMP_GetOffsetAdjValue?BYTE
      0000000AH   DATA     ---       ?_PRINTF517?BYTE
      0000000AH   DATA     ---       ?_PRINTF?BYTE
      0000000AH   DATA     ---       ?_SPRINTF517?BYTE
      0000000AH   DATA     ---       ?_SPRINTF?BYTE
      00000028H   DATA     BYTE      ?_UART_ConfigBaudRate?BYTE
      0100096FH   CODE     ---       ?C?CCASE
      01000920H   CODE     ---       ?C?CLDOPTR
      01000907H   CODE     ---       ?C?CLDPTR
      00000000H   NUMBER   ---       ?C?CODESEG
      0100094DH   CODE     ---       ?C?CSTPTR
      0100095FH   CODE     ---       ?C?PLDIIDATA
      00000000H   NUMBER   ---       ?C?XDATASEG
      010008C2H   CODE     ---       ?C_START
      01000000H   CODE     ---       ?C_STARTUP
      01001A1FH   CODE     ---       _ACMP_ClearIntFlag
      01000C12H   CODE     ---       _ACMP_ConfigNegative
      010010BBH   CODE     ---       _ACMP_ConfigOffsetAdj
      0100145DH   CODE     ---       _ACMP_ConfigPositive
      010018EFH   CODE     ---       _ACMP_DisableFilter
      0100192EH   CODE     ---       _ACMP_DisableHYS
      010019ACH   CODE     ---       _ACMP_DisableInt
      010018DAH   CODE     ---       _ACMP_DisableReverseOutput
      010013AFH   CODE     ---       _ACMP_EnableACMPBrake
      01001341H   CODE     ---       _ACMP_EnableFilter
      01001270H   CODE     ---       _ACMP_EnableHYS
      010019D4H   CODE     ---       _ACMP_EnableInt
      010018C5H   CODE     ---       _ACMP_EnableReverseOutput
      010019E7H   CODE     ---       _ACMP_GetIntFlag
      01000412H   CODE     ---       _ACMP_GetOffsetAdjValue
      010013D2H   CODE     ---       _ACMP_GetResult
LX51 LINKER/LOCATER V4.66.1.0                                                         09/08/2023  16:42:41  PAGE 11


      01001904H   CODE     ---       _ACMP_Start
      01001919H   CODE     ---       _ACMP_Stop
      01001D23H   CODE     ---       _ADC_ConfigADCBrake
      01001B2DH   CODE     ---       _ADC_ConfigADCVref
      01001AB6H   CODE     ---       _ADC_ConfigAN31
      010019FAH   CODE     ---       _ADC_ConfigCompareValue
      01001943H   CODE     ---       _ADC_ConfigHardwareTrig
      0100186AH   CODE     ---       _ADC_ConfigRunMode
      010015F4H   CODE     ---       _ADC_EnableChannel
      01001AC5H   CODE     ---       _ADC_SetTrigDelayTime
      01001BC5H   CODE     ---       _BUZ_ConfigBuzzer
      01001215H   CODE     ---       _delay_ms
      01001A41H   CODE     ---       _EPWM_ClearDownCmpIntFlag
      01001A52H   CODE     ---       _EPWM_ClearPeriodIntFlag
      01001A30H   CODE     ---       _EPWM_ClearUpCmpIntFlag
      01001A63H   CODE     ---       _EPWM_ClearZeroIntFlag
      010007ABH   CODE     ---       _EPWM_ConfigChannelAsymDuty
      01001A0DH   CODE     ---       _EPWM_ConfigChannelBrakeLevel
      01000DABH   CODE     ---       _EPWM_ConfigChannelClk
      01000A19H   CODE     ---       _EPWM_ConfigChannelPeriod
      01000A99H   CODE     ---       _EPWM_ConfigChannelSymDuty
      01001B3BH   CODE     ---       _EPWM_ConfigFBBrake
      01001F6CH   CODE     ---       _EPWM_ConfigRunMode
      01001244H   CODE     ---       _EPWM_DisableDeadZone
      01001C4EH   CODE     ---       _EPWM_DisableDownCmpInt
      0100129BH   CODE     ---       _EPWM_DisableFaultBrake
      01001C36H   CODE     ---       _EPWM_DisableMaskControl
      01001C2AH   CODE     ---       _EPWM_DisableOutput
      01001C5AH   CODE     ---       _EPWM_DisablePeriodInt
      01001C8AH   CODE     ---       _EPWM_DisableReverseOutput
      01001C42H   CODE     ---       _EPWM_DisableUpCmpInt
      01001C66H   CODE     ---       _EPWM_DisableZeroInt
      01001F34H   CODE     ---       _EPWM_EnableAutoLoadMode
      0100104AH   CODE     ---       _EPWM_EnableDeadZone
      01001F50H   CODE     ---       _EPWM_EnableDownCmpInt
      01001083H   CODE     ---       _EPWM_EnableFaultBrake
      01001806H   CODE     ---       _EPWM_EnableMaskControl
      01001C12H   CODE     ---       _EPWM_EnableOneShotMode
      01001F42H   CODE     ---       _EPWM_EnableOutput
      01001F57H   CODE     ---       _EPWM_EnablePeriodInt
      01001F65H   CODE     ---       _EPWM_EnableReverseOutput
      01001F49H   CODE     ---       _EPWM_EnableUpCmpInt
      01001F5EH   CODE     ---       _EPWM_EnableZeroInt
      010014FCH   CODE     ---       _EPWM_GetDownCmpIntFlag
      0100151BH   CODE     ---       _EPWM_GetPeriodIntFlag
      010014DDH   CODE     ---       _EPWM_GetUpCmpIntFlag
      0100153AH   CODE     ---       _EPWM_GetZeroIntFlag
      01001F3BH   CODE     ---       _EPWM_Start
      01001C1EH   CODE     ---       _EPWM_Stop
      01001D44H   CODE     ---       _EXTINT_ClearIntFlag
      0100172EH   CODE     ---       _EXTINT_ConfigInt
      01001D39H   CODE     ---       _EXTINT_DisableInt
      01001D2EH   CODE     ---       _EXTINT_EnableInt
      01001559H   CODE     ---       _EXTINT_GetIntFlag
      010011B7H   CODE     ---       _FLASH_Erase
      01001154H   CODE     ---       _FLASH_Read
      01001186H   CODE     ---       _FLASH_Write
      01000EB4H   CODE     ---       _GPIO_ClearIntFlag
      01000609H   CODE     ---       _GPIO_ConfigGPIOMode
      0100143BH   CODE     ---       _GPIO_DisableInt
      01001612H   CODE     ---       _GPIO_EnableInt
      01000E07H   CODE     ---       _GPIO_GetIntFlag
      01001FE1H   CODE     ---       _I2C_ConfigCLK
      01001BD2H   CODE     ---       _LSE_ConfigLSE
      010012EFH   CODE     ---       _OPA_ConfigNegative
LX51 LINKER/LOCATER V4.66.1.0                                                         09/08/2023  16:42:41  PAGE 12


      010011E6H   CODE     ---       _OPA_ConfigOffsetAdj
      0100147EH   CODE     ---       _OPA_ConfigPositive
      0100196DH   CODE     ---       _OPA_DisableOutput
      01001958H   CODE     ---       _OPA_EnableOutput
      010006E7H   CODE     ---       _OPA_GetOffsetAdjValue
      010013F5H   CODE     ---       _OPA_GetResult
      010012C6H   CODE     ---       _OPA_SetRunMode
      01001982H   CODE     ---       _OPA_Start
      01001997H   CODE     ---       _OPA_Stop
      01001A74H   CODE     ---       _PGA_ConfigGain
      01001B49H   CODE     ---       _PGA_ConfigInput
      01001A85H   CODE     ---       _PGA_ConfigOffsetAdj
      01001B57H   CODE     ---       _PGA_ConfigSampleTime
      0100181FH   CODE     ---       _PGA_EnableNormalMode
      01000C81H   CODE     ---       _PGA_GetOffsetAdjValue
      01000118H   CODE     ---       _PRINTF
      01000118H   CODE     ---       _PRINTF517
      01001BF9H   CODE     ---       _putchar
      010018AFH   CODE     ---       _puts
      01001D4FH   CODE     ---       _SPI_ConfigClk
      01001899H   CODE     ---       _SPI_ConfigRunMode
      01000112H   CODE     ---       _SPRINTF
      01000112H   CODE     ---       _SPRINTF517
      01001B65H   CODE     ---       _SYS_ConfigLVD
      01001B73H   CODE     ---       _SYS_ConfigWUTCLK
      01001A96H   CODE     ---       _SYS_ConfigWUTTime
      01001B01H   CODE     ---       _TMR2_ClearCaptureIntFlag
      01001AE3H   CODE     ---       _TMR2_ClearCompareIntFlag
      01001D70H   CODE     ---       _TMR2_ConfigCompareIntMode
      010015D5H   CODE     ---       _TMR2_ConfigCompareValue
      01001CF6H   CODE     ---       _TMR2_ConfigRunMode
      01001D5AH   CODE     ---       _TMR2_ConfigTimerClk
      010015B6H   CODE     ---       _TMR2_ConfigTimerPeriod
      01001851H   CODE     ---       _TMR2_DisableCapture
      01001AF2H   CODE     ---       _TMR2_DisableCaptureInt
      01001838H   CODE     ---       _TMR2_DisableCompare
      01001AD4H   CODE     ---       _TMR2_DisableCompareInt
      01000B97H   CODE     ---       _TMR2_EnableCapture
      01001B8FH   CODE     ---       _TMR2_EnableCaptureInt
      01001121H   CODE     ---       _TMR2_EnableCompare
      01001B81H   CODE     ---       _TMR2_EnableCompareInt
      010016DCH   CODE     ---       _TMR2_GetCaptureIntFlag
      01000FD2H   CODE     ---       _TMR2_GetCaptureValue
      010016C0H   CODE     ---       _TMR2_GetCompareIntFlag
      0100166AH   CODE     ---       _TMR_ClearOverflowIntFlag
      01000F00H   CODE     ---       _TMR_ConfigRunMode
      01000F48H   CODE     ---       _TMR_ConfigTimerClk
      01001418H   CODE     ---       _TMR_ConfigTimerPeriod
      01001BECH   CODE     ---       _TMR_DisableGATE
      0100164DH   CODE     ---       _TMR_DisableOverflowInt
      01001BDFH   CODE     ---       _TMR_EnableGATE
      01001630H   CODE     ---       _TMR_EnableOverflowInt
      01000F8EH   CODE     ---       _TMR_GetCountValue
      010010EEH   CODE     ---       _TMR_GetOverflowIntFlag
      01001578H   CODE     ---       _TMR_Start
      01001597H   CODE     ---       _TMR_Stop
      010016F8H   CODE     ---       _UART_ClearReceiveIntFlag
      01001713H   CODE     ---       _UART_ClearSendIntFlag
      0100100EH   CODE     ---       _UART_Config
      01001C06H   CODE     ---       _UART_ConfigBaudRate
      01001B1FH   CODE     ---       _UART_ConfigBRTClk
      01001E44H   CODE     ---       _UART_ConfigBRTPeriod
      01000D4EH   CODE     ---       _UART_ConfigRunMode
      01000086H   CODE     ---       _UART_DisableDoubleFrequency
      01001D0DH   CODE     ---       _UART_DisableInt
LX51 LINKER/LOCATER V4.66.1.0                                                         09/08/2023  16:42:41  PAGE 13


      01001BB8H   CODE     ---       _UART_DisableReceive
      01000056H   CODE     ---       _UART_EnableDoubleFrequency
      01001D02H   CODE     ---       _UART_EnableInt
      01001BABH   CODE     ---       _UART_EnableReceive
      01001AA7H   CODE     ---       _UART_GetBuff
      01001882H   CODE     ---       _UART_GetNinthBit
      0100149FH   CODE     ---       _UART_GetReceiveIntFlag
      010014BEH   CODE     ---       _UART_GetSendIntFlag
      01000B19H   CODE     ---       _UART_ISR_Config
      01001D18H   CODE     ---       _UART_SendBuff
      010016A4H   CODE     ---       _UART_SendNinthBit
      01001B10H   CODE     ---       _WDT_ConfigOverflowTime
*SFR* 000000D0H.6 DATA     BIT       AC
*SFR* 000000E0H   DATA     BYTE      ACC
      0100009AH   CODE     ---       ACMP_IRQHandler
      0100004EH   CODE     ---       ADC_ClearIntFlag
      01000E5FH   CODE     ---       ADC_Config
      01000036H   CODE     ---       ADC_DisableHardwareTrig
      01000046H   CODE     ---       ADC_DisableInt
      01001E65H   CODE     ---       ADC_DisableLDO
      0100002EH   CODE     ---       ADC_EnableHardwareTrig
      0100003EH   CODE     ---       ADC_EnableInt
      01001E5DH   CODE     ---       ADC_EnableLDO
      01001366H   CODE     ---       ADC_GetADCResult
      01001D90H   CODE     ---       ADC_GetCmpResult
      01001D9AH   CODE     ---       ADC_GetIntFlag
      01001FEAH   CODE     ---       ADC_IRQHandler
      0100001EH   CODE     ---       ADC_Start
      01000026H   CODE     ---       ADC_Stop
*SFR* 000000D1H   DATA     BYTE      ADCMPC
*SFR* 000000D5H   DATA     BYTE      ADCMPH
*SFR* 000000D4H   DATA     BYTE      ADCMPL
*SFR* 000000DFH   DATA     BYTE      ADCON0
*SFR* 000000DEH   DATA     BYTE      ADCON1
*SFR* 000000E9H   DATA     BYTE      ADCON2
*SFR* 000000D3H   DATA     BYTE      ADDLYL
*SFR* 000000DDH   DATA     BYTE      ADRESH
*SFR* 000000DCH   DATA     BYTE      ADRESL
*SFR* 000000F0H   DATA     BYTE      B
      0100006EH   CODE     ---       BUZ_DisableBuzzer
      01000066H   CODE     ---       BUZ_EnableBuzzer
*SFR* 000000BFH   DATA     BYTE      BUZCON
*SFR* 000000BEH   DATA     BYTE      BUZDIV
*SFR* 000000C8H.5 DATA     BIT       CAPES
*SFR* 000000CEH   DATA     BYTE      CCEN
*SFR* 000000C3H   DATA     BYTE      CCH1
*SFR* 000000C5H   DATA     BYTE      CCH2
*SFR* 000000C7H   DATA     BYTE      CCH3
*SFR* 000000C2H   DATA     BYTE      CCL1
*SFR* 000000C4H   DATA     BYTE      CCL2
*SFR* 000000C6H   DATA     BYTE      CCL3
*SFR* 0000008EH   DATA     BYTE      CKCON
*SFR* 0000008FH   DATA     BYTE      CLKDIV
*SFR* 000000D0H.7 DATA     BIT       CY
*SFR* 00000083H   DATA     BYTE      DPH0
*SFR* 00000085H   DATA     BYTE      DPH1
*SFR* 00000082H   DATA     BYTE      DPL0
*SFR* 00000084H   DATA     BYTE      DPL1
*SFR* 00000086H   DATA     BYTE      DPS
*SFR* 00000093H   DATA     BYTE      DPX0
*SFR* 00000095H   DATA     BYTE      DPX1
*SFR* 000000A8H.7 DATA     BIT       EA
*SFR* 000000AAH   DATA     BYTE      EIE2
*SFR* 000000B2H   DATA     BYTE      EIF2
*SFR* 000000B9H   DATA     BYTE      EIP1
LX51 LINKER/LOCATER V4.66.1.0                                                         09/08/2023  16:42:41  PAGE 14


*SFR* 000000BAH   DATA     BYTE      EIP2
      0100007EH   CODE     ---       EPWM_AllIntDisable
      01000076H   CODE     ---       EPWM_AllIntEnable
      01001E75H   CODE     ---       EPWM_ClearFaultBrakeIntFlag
      01000995H   CODE     ---       EPWM_Config
      01001E6DH   CODE     ---       EPWM_DisableFaultBrakeInt
      01001E85H   CODE     ---       EPWM_DisableSoftwareBrake
      01001C72H   CODE     ---       EPWM_EnableFaultBrakeInt
      01001C7EH   CODE     ---       EPWM_GetFaultBrakeIntFlag
      010000B2H   CODE     ---       EPWM_IRQHandler
      01001E7DH   CODE     ---       EPWM_TrigSoftwareBrake
*SFR* 000000A8H.4 DATA     BIT       ES0
*SFR* 000000A8H.6 DATA     BIT       ES1
*SFR* 000000A8H.1 DATA     BIT       ET0
*SFR* 000000A8H.3 DATA     BIT       ET1
*SFR* 000000A8H.5 DATA     BIT       ET2
*SFR* 000000A8H   DATA     BIT       EX0
*SFR* 000000A8H.2 DATA     BIT       EX1
*SFR* 000000D0H.5 DATA     BIT       F0
      0100009EH   CODE     ---       FLASH_Lock
      01000096H   CODE     ---       FLASH_UnLock
*SFR* 00000091H   DATA     BYTE      FUNCCR
      01001D7BH   CODE     ---       getchar
      01001B9DH   CODE     ---       GPIO_Config
      01001F7EH   CODE     ---       I2C_ClearMasterIntFlag
      010000AEH   CODE     ---       I2C_DisableInt
      01001FEEH   CODE     ---       I2C_DisableMasterMode
      010000A6H   CODE     ---       I2C_EnableInt
      01001F72H   CODE     ---       I2C_EnableMasterMode
      01001DAEH   CODE     ---       I2C_GetBusArbitrationFlag
      01001DCCH   CODE     ---       I2C_GetI2CBusBusyFlag
      01001DC2H   CODE     ---       I2C_GetMasterBusyFlag
      01001DB8H   CODE     ---       I2C_GetMasterErrorFlag
      01001DD6H   CODE     ---       I2C_GetMasterIdleFlag
      01001DE0H   CODE     ---       I2C_GetMasterIntFlag
      01001DA4H   CODE     ---       I2C_GetMasterSendAddrFlag
      01001FECH   CODE     ---       I2C_IRQHandler
*SFR* 000000F6H   DATA     BYTE      I2CMBUF
*SFR* 000000F5H   DATA     BYTE      I2CMCR
*SFR* 000000F4H   DATA     BYTE      I2CMSA
*SFR* 000000F5H   DATA     BYTE      I2CMSR
*SFR* 000000F7H   DATA     BYTE      I2CMTP
*SFR* 000000F1H   DATA     BYTE      I2CSADR
*SFR* 000000F3H   DATA     BYTE      I2CSBUF
*SFR* 000000F2H   DATA     BYTE      I2CSCR
*SFR* 000000F2H   DATA     BYTE      I2CSSR
*SFR* 000000C8H.6 DATA     BIT       I3FR
*SFR* 000000A8H   DATA     BYTE      IE
*SFR* 00000088H.1 DATA     BIT       IE0
*SFR* 00000088H.3 DATA     BIT       IE1
      01001FDEH   CODE     ---       INT0_IRQHandler
      0100002AH   CODE     ---       INT1_IRQHandler
      01001687H   CODE     ---       IO_Config
*SFR* 000000B8H   DATA     BYTE      IP
*SFR* 00000088H   DATA     BIT       IT0
*SFR* 00000088H.2 DATA     BIT       IT1
      01001F78H   CODE     ---       Lamp_Run
      0100138BH   CODE     ---       LED_Run
      01001ECDH   CODE     ---       LSE_ClearLSEIntFlag
      01001E95H   CODE     ---       LSE_DisableLSE
      01001EC5H   CODE     ---       LSE_DisableLSEInt
      01001EB5H   CODE     ---       LSE_DisableLSEWakeup
      01001E8DH   CODE     ---       LSE_EnableLSE
      01001EBDH   CODE     ---       LSE_EnableLSEInt
      01001EADH   CODE     ---       LSE_EnableLSEWakeup
LX51 LINKER/LOCATER V4.66.1.0                                                         09/08/2023  16:42:41  PAGE 15


      01001C96H   CODE     ---       LSE_GetLSEIntFlag
      01001CA2H   CODE     ---       LSE_GetLSEState
      01000082H   CODE     ---       LSE_IRQHandler
      01001E9DH   CODE     ---       LSE_Start
      01001EA5H   CODE     ---       LSE_Stop
      0100007AH   CODE     ---       LVD_IRQHandler
*SFR* 000000FDH   DATA     BYTE      MADRH
*SFR* 000000FCH   DATA     BYTE      MADRL
      01001D86H   CODE     ---       main
*SFR* 000000FFH   DATA     BYTE      MCTRL
*SFR* 000000FEH   DATA     BYTE      MDATA
*SFR* 000000FBH   DATA     BYTE      MLOCK
*SFR* 000000D0H.2 DATA     BIT       OV
*SFR* 000000D0H   DATA     BIT       P
*SFR* 00000080H   DATA     BYTE      P0
*SFR* 00000080H   DATA     BIT       P00
*SFR* 00000080H.1 DATA     BIT       P01
*SFR* 00000080H.2 DATA     BIT       P02
*SFR* 00000080H.3 DATA     BIT       P03
*SFR* 00000080H.4 DATA     BIT       P04
*SFR* 00000080H.5 DATA     BIT       P05
*SFR* 00000080H.6 DATA     BIT       P06
*SFR* 00000080H.7 DATA     BIT       P07
      0100004AH   CODE     ---       P0EI_IRQHandler
*SFR* 000000ACH   DATA     BYTE      P0EXTIE
*SFR* 000000B4H   DATA     BYTE      P0EXTIF
*SFR* 0000009AH   DATA     BYTE      P0TRIS
*SFR* 00000090H   DATA     BYTE      P1
*SFR* 00000090H   DATA     BIT       P10
*SFR* 00000090H.1 DATA     BIT       P11
*SFR* 00000090H.2 DATA     BIT       P12
*SFR* 00000090H.3 DATA     BIT       P13
*SFR* 00000090H.4 DATA     BIT       P14
*SFR* 00000090H.5 DATA     BIT       P15
*SFR* 00000090H.6 DATA     BIT       P16
*SFR* 00000090H.7 DATA     BIT       P17
      01000052H   CODE     ---       P1EI_IRQHandler
*SFR* 000000ADH   DATA     BYTE      P1EXTIE
*SFR* 000000B5H   DATA     BYTE      P1EXTIF
*SFR* 000000A1H   DATA     BYTE      P1TRIS
*SFR* 000000A0H   DATA     BYTE      P2
*SFR* 000000A0H   DATA     BIT       P20
*SFR* 000000A0H.1 DATA     BIT       P21
*SFR* 000000A0H.2 DATA     BIT       P22
*SFR* 000000A0H.3 DATA     BIT       P23
*SFR* 000000A0H.4 DATA     BIT       P24
*SFR* 000000A0H.5 DATA     BIT       P25
*SFR* 000000A0H.6 DATA     BIT       P26
*SFR* 000000A0H.7 DATA     BIT       P27
      0100006AH   CODE     ---       P2EI_IRQHandler
*SFR* 000000AEH   DATA     BYTE      P2EXTIE
*SFR* 000000B6H   DATA     BYTE      P2EXTIF
*SFR* 000000A2H   DATA     BYTE      P2TRIS
*SFR* 000000B0H   DATA     BYTE      P3
*SFR* 000000B0H   DATA     BIT       P30
*SFR* 000000B0H.1 DATA     BIT       P31
*SFR* 000000B0H.2 DATA     BIT       P32
*SFR* 000000B0H.3 DATA     BIT       P33
*SFR* 000000B0H.4 DATA     BIT       P34
*SFR* 000000B0H.5 DATA     BIT       P35
*SFR* 000000B0H.6 DATA     BIT       P36
*SFR* 000000B0H.7 DATA     BIT       P37
      01000072H   CODE     ---       P3EI_IRQHandler
*SFR* 000000AFH   DATA     BYTE      P3EXTIE
*SFR* 000000B7H   DATA     BYTE      P3EXTIF
LX51 LINKER/LOCATER V4.66.1.0                                                         09/08/2023  16:42:41  PAGE 16


*SFR* 000000A3H   DATA     BYTE      P3TRIS
*SFR* 00000087H   DATA     BYTE      PCON
      01001EDDH   CODE     ---       PGA_DisableOutput
      01001EEDH   CODE     ---       PGA_DisableSHA
      01001ED5H   CODE     ---       PGA_EnableOutput
      01001EE5H   CODE     ---       PGA_EnableSHA
      01001EF5H   CODE     ---       PGA_Start
      01001EFDH   CODE     ---       PGA_Stop
*SFR* 000000B8H.4 DATA     BIT       PS0
*SFR* 000000B8H.6 DATA     BIT       PS1
*SFR* 000000D0H   DATA     BYTE      PSW
*SFR* 000000B8H.1 DATA     BIT       PT0
*SFR* 000000B8H.3 DATA     BIT       PT1
*SFR* 000000B8H.5 DATA     BIT       PT2
*SFR* 000000B8H   DATA     BIT       PX0
*SFR* 000000B8H.2 DATA     BIT       PX1
*SFR* 00000098H   DATA     BIT       RI0
*SFR* 000000CBH   DATA     BYTE      RLDH
*SFR* 000000CAH   DATA     BYTE      RLDL
*SFR* 000000D0H.3 DATA     BIT       RS0
*SFR* 000000D0H.4 DATA     BIT       RS1
*SFR* 00000099H   DATA     BYTE      SBUF
*SFR* 00000099H   DATA     BYTE      SBUF0
*SFR* 000000EBH   DATA     BYTE      SBUF1
*SFR* 00000098H   DATA     BYTE      SCON0
*SFR* 000000EAH   DATA     BYTE      SCON1
*SFR* 00000081H   DATA     BYTE      SP
*SFR* 000000ECH   DATA     BYTE      SPCR
*SFR* 000000EEH   DATA     BYTE      SPDR
      01000006H   CODE     ---       SPI_ClearTransferIntFlag
      0100000EH   CODE     ---       SPI_ClearWriteErrorIntFlag
      01001F9EH   CODE     ---       SPI_DisableIntFlag
      01001F8EH   CODE     ---       SPI_DisableMasterMode
      01001F96H   CODE     ---       SPI_DisableSlaveMode
      01001F9AH   CODE     ---       SPI_EnableIntFlag
      01001F8AH   CODE     ---       SPI_EnableMasterMode
      01001F92H   CODE     ---       SPI_EnableSlaveMode
      01001DEAH   CODE     ---       SPI_GetTransferIntFlag
      01001DF4H   CODE     ---       SPI_GetWriteErrorIntFlag
      01001FEDH   CODE     ---       SPI_IRQHandler
      01001F82H   CODE     ---       SPI_Start
      01001F86H   CODE     ---       SPI_Stop
*SFR* 000000EDH   DATA     BYTE      SPSR
*SFR* 000000EFH   DATA     BYTE      SSCR
      01001F25H   CODE     ---       SYS_ClearLVDIntFlag
      01001FA2H   CODE     ---       SYS_ClearPowerOnResetFlag
      0100177FH   CODE     ---       SYS_ClearWDTResetFlag
      01001F0DH   CODE     ---       SYS_DisableLVD
      01001F1DH   CODE     ---       SYS_DisableLVDInt
      010017B5H   CODE     ---       SYS_DisableSoftwareReset
      01001FAAH   CODE     ---       SYS_DisableWakeUp
      01001FB2H   CODE     ---       SYS_DisableWakeUpTrig
      01001764H   CODE     ---       SYS_DisableWDTReset
      01001F05H   CODE     ---       SYS_EnableLVD
      01001F15H   CODE     ---       SYS_EnableLVDInt
      0100179AH   CODE     ---       SYS_EnableSoftwareReset
      01001FA6H   CODE     ---       SYS_EnableWakeUp
      01001FAEH   CODE     ---       SYS_EnableWakeUpTrig
      01001749H   CODE     ---       SYS_EnableWDTReset
      01001CEAH   CODE     ---       SYS_EnterIdle
      01001CDEH   CODE     ---       SYS_EnterStop
      01001CD2H   CODE     ---       SYS_GetLVDIntFlag
      01001E08H   CODE     ---       SYS_GetPowerOnResetFlag
      01001DFEH   CODE     ---       SYS_GetWDTResetFlag
      0000002DH   DATA     DWORD     SystemClock
LX51 LINKER/LOCATER V4.66.1.0                                                         09/08/2023  16:42:41  PAGE 17


*SFR* 000000C8H.2 DATA     BIT       T2CM
*SFR* 000000C8H   DATA     BYTE      T2CON
*SFR* 000000C8H   DATA     BIT       T2I0
*SFR* 000000C8H.1 DATA     BIT       T2I1
*SFR* 000000CFH   DATA     BYTE      T2IE
*SFR* 000000C9H   DATA     BYTE      T2IF
*SFR* 000000C8H.7 DATA     BIT       T2PS
*SFR* 000000C8H.3 DATA     BIT       T2R0
*SFR* 000000C8H.4 DATA     BIT       T2R1
*SFR* 000000D2H   DATA     BYTE      T34MOD
*SFR* 00000096H   DATA     BYTE      TA
*SFR* 00000088H   DATA     BYTE      TCON
*SFR* 00000088H.5 DATA     BIT       TF0
*SFR* 00000088H.7 DATA     BIT       TF1
*SFR* 0000008CH   DATA     BYTE      TH0
*SFR* 0000008DH   DATA     BYTE      TH1
*SFR* 000000CDH   DATA     BYTE      TH2
*SFR* 000000DBH   DATA     BYTE      TH3
*SFR* 000000E3H   DATA     BYTE      TH4
*SFR* 00000098H.1 DATA     BIT       TI0
      01000022H   CODE     ---       Timer0_IRQHandler
      01000032H   CODE     ---       Timer1_IRQHandler
      0100003AH   CODE     ---       Timer2_IRQHandler
      010000A2H   CODE     ---       Timer3_IRQHandler
      010000AAH   CODE     ---       Timer4_IRQHandler
      01001318H   CODE     ---       Timer_Config
*SFR* 0000008AH   DATA     BYTE      TL0
*SFR* 0000008BH   DATA     BYTE      TL1
*SFR* 000000CCH   DATA     BYTE      TL2
*SFR* 000000DAH   DATA     BYTE      TL3
*SFR* 000000E2H   DATA     BYTE      TL4
*SFR* 00000089H   DATA     BYTE      TMOD
      01001FE7H   CODE     ---       TMR2_AllIntDisable
      01001FE4H   CODE     ---       TMR2_AllIntEnable
      01001FC2H   CODE     ---       TMR2_ClearOverflowIntFlag
      01001FCEH   CODE     ---       TMR2_ClearT2EXIntFlag
      01001D65H   CODE     ---       TMR2_DisableGATE
      01001FBEH   CODE     ---       TMR2_DisableOverflowInt
      01001FCAH   CODE     ---       TMR2_DisableT2EXInt
      01001FB6H   CODE     ---       TMR2_EnableGATE
      01001FBAH   CODE     ---       TMR2_EnableOverflowInt
      01001FC6H   CODE     ---       TMR2_EnableT2EXInt
      01001E12H   CODE     ---       TMR2_GetOverflowIntFlag
      01001E1CH   CODE     ---       TMR2_GetT2EXIntFlag
      01001E26H   CODE     ---       TMR2_Start
      01001FD2H   CODE     ---       TMR2_Stop
*SFR* 00000088H.4 DATA     BIT       TR0
*SFR* 00000088H.6 DATA     BIT       TR1
*SFR* 00000098H.2 DATA     BIT       U0RB8
*SFR* 00000098H.4 DATA     BIT       U0REN
*SFR* 00000098H.7 DATA     BIT       U0SM0
*SFR* 00000098H.6 DATA     BIT       U0SM1
*SFR* 00000098H.5 DATA     BIT       U0SM2
*SFR* 00000098H.3 DATA     BIT       U0TB8
      01000CF0H   CODE     ---       UART0_IRQHandler
      01000042H   CODE     ---       UART1_IRQHandler
      01001E55H   CODE     ---       UART_DisableBRT
      01001E4DH   CODE     ---       UART_EnableBRT
*SFR* 00000097H   DATA     BYTE      WDCON
      010017EBH   CODE     ---       WDT_ClearOverflowIntFlag
      010017D0H   CODE     ---       WDT_ClearWDT
      01001FDAH   CODE     ---       WDT_DisableOverflowInt
      01001FD6H   CODE     ---       WDT_EnableOverflowInt
      01001E30H   CODE     ---       WDT_GetOverflowIntFlag
      01001FEBH   CODE     ---       WDT_IRQHandler
LX51 LINKER/LOCATER V4.66.1.0                                                         09/08/2023  16:42:41  PAGE 18


*SFR* 000000BDH   DATA     BYTE      WUTCRH
*SFR* 000000BCH   DATA     BYTE      WUTCRL



SYMBOL TABLE OF MODULE:  .\Objects\project (MAIN)

      VALUE       REP       CLASS    TYPE      SYMBOL NAME
      ====================================================
      ---         MODULE    ---      ---       MAIN
      0000002DH   PUBLIC    DATA     DWORD     SystemClock
      01001D86H   PUBLIC    CODE     ---       main
      000000C8H   SFRSYM    DATA     BIT       T2I0
      000000C3H   SFRSYM    DATA     BYTE      CCH1
      00000080H   SFRSYM    DATA     BYTE      P0
      000000C8H.1 SFRSYM    DATA     BIT       T2I1
      000000C5H   SFRSYM    DATA     BYTE      CCH2
      00000090H   SFRSYM    DATA     BYTE      P1
      000000C7H   SFRSYM    DATA     BYTE      CCH3
      000000ACH   SFRSYM    DATA     BYTE      P0EXTIE
      000000A0H   SFRSYM    DATA     BYTE      P2
      000000B4H   SFRSYM    DATA     BYTE      P0EXTIF
      000000B0H   SFRSYM    DATA     BYTE      P3
      000000ADH   SFRSYM    DATA     BYTE      P1EXTIE
      000000D0H.6 SFRSYM    DATA     BIT       AC
      000000FFH   SFRSYM    DATA     BYTE      MCTRL
      000000C2H   SFRSYM    DATA     BYTE      CCL1
      000000B5H   SFRSYM    DATA     BYTE      P1EXTIF
      000000AEH   SFRSYM    DATA     BYTE      P2EXTIE
      000000C4H   SFRSYM    DATA     BYTE      CCL2
      000000B6H   SFRSYM    DATA     BYTE      P2EXTIF
      000000AFH   SFRSYM    DATA     BYTE      P3EXTIE
      000000A8H.7 SFRSYM    DATA     BIT       EA
      000000C6H   SFRSYM    DATA     BYTE      CCL3
      000000B7H   SFRSYM    DATA     BYTE      P3EXTIF
      000000AAH   SFRSYM    DATA     BYTE      EIE2
      000000B2H   SFRSYM    DATA     BYTE      EIF2
      000000C8H.3 SFRSYM    DATA     BIT       T2R0
      000000C8H.4 SFRSYM    DATA     BIT       T2R1
      00000083H   SFRSYM    DATA     BYTE      DPH0
      000000A8H   SFRSYM    DATA     BYTE      IE
      00000085H   SFRSYM    DATA     BYTE      DPH1
      000000B9H   SFRSYM    DATA     BYTE      EIP1
      000000BAH   SFRSYM    DATA     BYTE      EIP2
      00000082H   SFRSYM    DATA     BYTE      DPL0
      00000084H   SFRSYM    DATA     BYTE      DPL1
      000000C8H.6 SFRSYM    DATA     BIT       I3FR
      000000CFH   SFRSYM    DATA     BYTE      T2IE
      00000096H   SFRSYM    DATA     BYTE      TA
      000000C9H   SFRSYM    DATA     BYTE      T2IF
      000000C8H.2 SFRSYM    DATA     BIT       T2CM
      000000DFH   SFRSYM    DATA     BYTE      ADCON0
      000000DEH   SFRSYM    DATA     BYTE      ADCON1
      000000E9H   SFRSYM    DATA     BYTE      ADCON2
      000000B8H   SFRSYM    DATA     BYTE      IP
      000000CEH   SFRSYM    DATA     BYTE      CCEN
      000000D0H.7 SFRSYM    DATA     BIT       CY
      000000D2H   SFRSYM    DATA     BYTE      T34MOD
      00000093H   SFRSYM    DATA     BYTE      DPX0
      00000095H   SFRSYM    DATA     BYTE      DPX1
      000000F4H   SFRSYM    DATA     BYTE      I2CMSA
      000000F5H   SFRSYM    DATA     BYTE      I2CMCR
      00000081H   SFRSYM    DATA     BYTE      SP
      000000D0H.2 SFRSYM    DATA     BIT       OV
      000000F2H   SFRSYM    DATA     BYTE      I2CSCR
LX51 LINKER/LOCATER V4.66.1.0                                                         09/08/2023  16:42:41  PAGE 19


      000000C8H.7 SFRSYM    DATA     BIT       T2PS
      000000D1H   SFRSYM    DATA     BYTE      ADCMPC
      000000CBH   SFRSYM    DATA     BYTE      RLDH
      000000D5H   SFRSYM    DATA     BYTE      ADCMPH
      000000CAH   SFRSYM    DATA     BYTE      RLDL
      00000080H   SFRSYM    DATA     BIT       P00
      00000090H   SFRSYM    DATA     BIT       P10
      00000080H.1 SFRSYM    DATA     BIT       P01
      000000F7H   SFRSYM    DATA     BYTE      I2CMTP
      00000099H   SFRSYM    DATA     BYTE      SBUF
      00000087H   SFRSYM    DATA     BYTE      PCON
      000000A0H   SFRSYM    DATA     BIT       P20
      00000090H.1 SFRSYM    DATA     BIT       P11
      00000080H.2 SFRSYM    DATA     BIT       P02
      000000F5H   SFRSYM    DATA     BYTE      I2CMSR
      000000B0H   SFRSYM    DATA     BIT       P30
      000000A0H.1 SFRSYM    DATA     BIT       P21
      00000090H.2 SFRSYM    DATA     BIT       P12
      00000080H.3 SFRSYM    DATA     BIT       P03
      000000D4H   SFRSYM    DATA     BYTE      ADCMPL
      000000B0H.1 SFRSYM    DATA     BIT       P31
      000000A0H.2 SFRSYM    DATA     BIT       P22
      00000090H.3 SFRSYM    DATA     BIT       P13
      00000080H.4 SFRSYM    DATA     BIT       P04
      000000B0H.2 SFRSYM    DATA     BIT       P32
      000000A0H.3 SFRSYM    DATA     BIT       P23
      00000090H.4 SFRSYM    DATA     BIT       P14
      00000080H.5 SFRSYM    DATA     BIT       P05
      00000089H   SFRSYM    DATA     BYTE      TMOD
      00000088H   SFRSYM    DATA     BYTE      TCON
      000000B0H.3 SFRSYM    DATA     BIT       P33
      000000A0H.4 SFRSYM    DATA     BIT       P24
      00000090H.5 SFRSYM    DATA     BIT       P15
      00000080H.6 SFRSYM    DATA     BIT       P06
      000000B0H.4 SFRSYM    DATA     BIT       P34
      000000A0H.5 SFRSYM    DATA     BIT       P25
      00000090H.6 SFRSYM    DATA     BIT       P16
      00000080H.7 SFRSYM    DATA     BIT       P07
      000000B0H.5 SFRSYM    DATA     BIT       P35
      000000A0H.6 SFRSYM    DATA     BIT       P26
      00000090H.7 SFRSYM    DATA     BIT       P17
      000000F2H   SFRSYM    DATA     BYTE      I2CSSR
      000000B0H.6 SFRSYM    DATA     BIT       P36
      000000A0H.7 SFRSYM    DATA     BIT       P27
      000000ECH   SFRSYM    DATA     BYTE      SPCR
      000000DDH   SFRSYM    DATA     BYTE      ADRESH
      000000B0H.7 SFRSYM    DATA     BIT       P37
      000000EEH   SFRSYM    DATA     BYTE      SPDR
      000000EFH   SFRSYM    DATA     BYTE      SSCR
      000000D3H   SFRSYM    DATA     BYTE      ADDLYL
      000000DCH   SFRSYM    DATA     BYTE      ADRESL
      00000088H.1 SFRSYM    DATA     BIT       IE0
      00000088H.3 SFRSYM    DATA     BIT       IE1
      0000008FH   SFRSYM    DATA     BYTE      CLKDIV
      000000F0H   SFRSYM    DATA     BYTE      B
      00000091H   SFRSYM    DATA     BYTE      FUNCCR
      0000009AH   SFRSYM    DATA     BYTE      P0TRIS
      000000A1H   SFRSYM    DATA     BYTE      P1TRIS
      000000A2H   SFRSYM    DATA     BYTE      P2TRIS
      000000E0H   SFRSYM    DATA     BYTE      ACC
      000000A3H   SFRSYM    DATA     BYTE      P3TRIS
      000000A8H.4 SFRSYM    DATA     BIT       ES0
      000000A8H.6 SFRSYM    DATA     BIT       ES1
      000000A8H.1 SFRSYM    DATA     BIT       ET0
      000000EDH   SFRSYM    DATA     BYTE      SPSR
LX51 LINKER/LOCATER V4.66.1.0                                                         09/08/2023  16:42:41  PAGE 20


      000000A8H.3 SFRSYM    DATA     BIT       ET1
      00000088H.5 SFRSYM    DATA     BIT       TF0
      000000A8H.5 SFRSYM    DATA     BIT       ET2
      00000098H   SFRSYM    DATA     BIT       RI0
      00000088H.7 SFRSYM    DATA     BIT       TF1
      0000008CH   SFRSYM    DATA     BYTE      TH0
      000000A8H   SFRSYM    DATA     BIT       EX0
      00000098H.1 SFRSYM    DATA     BIT       TI0
      00000088H   SFRSYM    DATA     BIT       IT0
      0000008DH   SFRSYM    DATA     BYTE      TH1
      000000A8H.2 SFRSYM    DATA     BIT       EX1
      00000088H.2 SFRSYM    DATA     BIT       IT1
      000000CDH   SFRSYM    DATA     BYTE      TH2
      000000D0H   SFRSYM    DATA     BIT       P
      000000DBH   SFRSYM    DATA     BYTE      TH3
      000000E3H   SFRSYM    DATA     BYTE      TH4
      0000008AH   SFRSYM    DATA     BYTE      TL0
      0000008BH   SFRSYM    DATA     BYTE      TL1
      00000098H.2 SFRSYM    DATA     BIT       U0RB8
      000000CCH   SFRSYM    DATA     BYTE      TL2
      000000B8H.4 SFRSYM    DATA     BIT       PS0
      000000DAH   SFRSYM    DATA     BYTE      TL3
      000000BFH   SFRSYM    DATA     BYTE      BUZCON
      000000B8H.6 SFRSYM    DATA     BIT       PS1
      000000B8H.1 SFRSYM    DATA     BIT       PT0
      00000098H.3 SFRSYM    DATA     BIT       U0TB8
      000000E2H   SFRSYM    DATA     BYTE      TL4
      000000D0H.3 SFRSYM    DATA     BIT       RS0
      000000B8H.3 SFRSYM    DATA     BIT       PT1
      000000D0H.4 SFRSYM    DATA     BIT       RS1
      000000B8H.5 SFRSYM    DATA     BIT       PT2
      00000098H.7 SFRSYM    DATA     BIT       U0SM0
      00000088H.4 SFRSYM    DATA     BIT       TR0
      000000BEH   SFRSYM    DATA     BYTE      BUZDIV
      00000098H.6 SFRSYM    DATA     BIT       U0SM1
      00000088H.6 SFRSYM    DATA     BIT       TR1
      000000B8H   SFRSYM    DATA     BIT       PX0
      00000098H.5 SFRSYM    DATA     BIT       U0SM2
      000000B8H.2 SFRSYM    DATA     BIT       PX1
      000000BDH   SFRSYM    DATA     BYTE      WUTCRH
      00000099H   SFRSYM    DATA     BYTE      SBUF0
      000000EBH   SFRSYM    DATA     BYTE      SBUF1
      000000BCH   SFRSYM    DATA     BYTE      WUTCRL
      00000098H   SFRSYM    DATA     BYTE      SCON0
      000000EAH   SFRSYM    DATA     BYTE      SCON1
      000000C8H   SFRSYM    DATA     BYTE      T2CON
      00000086H   SFRSYM    DATA     BYTE      DPS
      000000FEH   SFRSYM    DATA     BYTE      MDATA
      000000F6H   SFRSYM    DATA     BYTE      I2CMBUF
      000000F1H   SFRSYM    DATA     BYTE      I2CSADR
      00000098H.4 SFRSYM    DATA     BIT       U0REN
      000000C8H.5 SFRSYM    DATA     BIT       CAPES
      000000FDH   SFRSYM    DATA     BYTE      MADRH
      0000008EH   SFRSYM    DATA     BYTE      CKCON
      000000F3H   SFRSYM    DATA     BYTE      I2CSBUF
      000000FCH   SFRSYM    DATA     BYTE      MADRL
      000000D0H.5 SFRSYM    DATA     BIT       F0
      000000FBH   SFRSYM    DATA     BYTE      MLOCK
      000000D0H   SFRSYM    DATA     BYTE      PSW
      00000097H   SFRSYM    DATA     BYTE      WDCON

      01001D86H   BLOCK     CODE     ---       LVL=0
      01001D86H   BLOCK     CODE     NEAR LAB  LVL=1
      00000008H   SYMBOL    DATA     WORD      result
      ---         BLOCKEND  ---      ---       LVL=1
LX51 LINKER/LOCATER V4.66.1.0                                                         09/08/2023  16:42:41  PAGE 21


      01001D86H   LINE      CODE     ---       #5
      01001D86H   LINE      CODE     ---       #6
      01001D86H   LINE      CODE     ---       #9
      01001D8BH   LINE      CODE     ---       #14
      01001D8EH   LINE      CODE     ---       #26
      01001D8EH   LINE      CODE     ---       #27
      01001D8EH   LINE      CODE     ---       #29
      ---         BLOCKEND  ---      ---       LVL=0

      ---         MODULE    ---      ---       ISR
      01001FEDH   PUBLIC    CODE     ---       SPI_IRQHandler
      01001FECH   PUBLIC    CODE     ---       I2C_IRQHandler
      01001FEBH   PUBLIC    CODE     ---       WDT_IRQHandler
      01001FEAH   PUBLIC    CODE     ---       ADC_IRQHandler
      010000B2H   PUBLIC    CODE     ---       EPWM_IRQHandler
      010000AAH   PUBLIC    CODE     ---       Timer4_IRQHandler
      010000A2H   PUBLIC    CODE     ---       Timer3_IRQHandler
      0100009AH   PUBLIC    CODE     ---       ACMP_IRQHandler
      01000082H   PUBLIC    CODE     ---       LSE_IRQHandler
      0100007AH   PUBLIC    CODE     ---       LVD_IRQHandler
      01000072H   PUBLIC    CODE     ---       P3EI_IRQHandler
      0100006AH   PUBLIC    CODE     ---       P2EI_IRQHandler
      01000052H   PUBLIC    CODE     ---       P1EI_IRQHandler
      0100004AH   PUBLIC    CODE     ---       P0EI_IRQHandler
      01000042H   PUBLIC    CODE     ---       UART1_IRQHandler
      0100003AH   PUBLIC    CODE     ---       Timer2_IRQHandler
      01000CF0H   PUBLIC    CODE     ---       UART0_IRQHandler
      01000032H   PUBLIC    CODE     ---       Timer1_IRQHandler
      0100002AH   PUBLIC    CODE     ---       INT1_IRQHandler
      01000022H   PUBLIC    CODE     ---       Timer0_IRQHandler
      01001FDEH   PUBLIC    CODE     ---       INT0_IRQHandler
      000000C8H   SFRSYM    DATA     BIT       T2I0
      000000C3H   SFRSYM    DATA     BYTE      CCH1
      00000080H   SFRSYM    DATA     BYTE      P0
      000000C8H.1 SFRSYM    DATA     BIT       T2I1
      000000C5H   SFRSYM    DATA     BYTE      CCH2
      00000090H   SFRSYM    DATA     BYTE      P1
      000000C7H   SFRSYM    DATA     BYTE      CCH3
      000000ACH   SFRSYM    DATA     BYTE      P0EXTIE
      000000A0H   SFRSYM    DATA     BYTE      P2
      000000B4H   SFRSYM    DATA     BYTE      P0EXTIF
      000000B0H   SFRSYM    DATA     BYTE      P3
      000000ADH   SFRSYM    DATA     BYTE      P1EXTIE
      000000D0H.6 SFRSYM    DATA     BIT       AC
      000000FFH   SFRSYM    DATA     BYTE      MCTRL
      000000C2H   SFRSYM    DATA     BYTE      CCL1
      000000B5H   SFRSYM    DATA     BYTE      P1EXTIF
      000000AEH   SFRSYM    DATA     BYTE      P2EXTIE
      000000C4H   SFRSYM    DATA     BYTE      CCL2
      000000B6H   SFRSYM    DATA     BYTE      P2EXTIF
      000000AFH   SFRSYM    DATA     BYTE      P3EXTIE
      000000A8H.7 SFRSYM    DATA     BIT       EA
      000000C6H   SFRSYM    DATA     BYTE      CCL3
      000000B7H   SFRSYM    DATA     BYTE      P3EXTIF
      000000AAH   SFRSYM    DATA     BYTE      EIE2
      000000B2H   SFRSYM    DATA     BYTE      EIF2
      000000C8H.3 SFRSYM    DATA     BIT       T2R0
      000000C8H.4 SFRSYM    DATA     BIT       T2R1
      00000083H   SFRSYM    DATA     BYTE      DPH0
      000000A8H   SFRSYM    DATA     BYTE      IE
      00000085H   SFRSYM    DATA     BYTE      DPH1
      000000B9H   SFRSYM    DATA     BYTE      EIP1
      000000BAH   SFRSYM    DATA     BYTE      EIP2
      00000082H   SFRSYM    DATA     BYTE      DPL0
      00000084H   SFRSYM    DATA     BYTE      DPL1
LX51 LINKER/LOCATER V4.66.1.0                                                         09/08/2023  16:42:41  PAGE 22


      000000C8H.6 SFRSYM    DATA     BIT       I3FR
      000000CFH   SFRSYM    DATA     BYTE      T2IE
      00000096H   SFRSYM    DATA     BYTE      TA
      000000C9H   SFRSYM    DATA     BYTE      T2IF
      000000C8H.2 SFRSYM    DATA     BIT       T2CM
      000000DFH   SFRSYM    DATA     BYTE      ADCON0
      000000DEH   SFRSYM    DATA     BYTE      ADCON1
      000000E9H   SFRSYM    DATA     BYTE      ADCON2
      000000B8H   SFRSYM    DATA     BYTE      IP
      000000CEH   SFRSYM    DATA     BYTE      CCEN
      000000D0H.7 SFRSYM    DATA     BIT       CY
      000000D2H   SFRSYM    DATA     BYTE      T34MOD
      00000093H   SFRSYM    DATA     BYTE      DPX0
      00000095H   SFRSYM    DATA     BYTE      DPX1
      000000F4H   SFRSYM    DATA     BYTE      I2CMSA
      000000F5H   SFRSYM    DATA     BYTE      I2CMCR
      00000081H   SFRSYM    DATA     BYTE      SP
      000000D0H.2 SFRSYM    DATA     BIT       OV
      000000F2H   SFRSYM    DATA     BYTE      I2CSCR
      000000C8H.7 SFRSYM    DATA     BIT       T2PS
      000000D1H   SFRSYM    DATA     BYTE      ADCMPC
      000000CBH   SFRSYM    DATA     BYTE      RLDH
      000000D5H   SFRSYM    DATA     BYTE      ADCMPH
      000000CAH   SFRSYM    DATA     BYTE      RLDL
      00000080H   SFRSYM    DATA     BIT       P00
      00000090H   SFRSYM    DATA     BIT       P10
      00000080H.1 SFRSYM    DATA     BIT       P01
      000000F7H   SFRSYM    DATA     BYTE      I2CMTP
      00000099H   SFRSYM    DATA     BYTE      SBUF
      00000087H   SFRSYM    DATA     BYTE      PCON
      000000A0H   SFRSYM    DATA     BIT       P20
      00000090H.1 SFRSYM    DATA     BIT       P11
      00000080H.2 SFRSYM    DATA     BIT       P02
      000000F5H   SFRSYM    DATA     BYTE      I2CMSR
      000000B0H   SFRSYM    DATA     BIT       P30
      000000A0H.1 SFRSYM    DATA     BIT       P21
      00000090H.2 SFRSYM    DATA     BIT       P12
      00000080H.3 SFRSYM    DATA     BIT       P03
      000000D4H   SFRSYM    DATA     BYTE      ADCMPL
      000000B0H.1 SFRSYM    DATA     BIT       P31
      000000A0H.2 SFRSYM    DATA     BIT       P22
      00000090H.3 SFRSYM    DATA     BIT       P13
      00000080H.4 SFRSYM    DATA     BIT       P04
      000000B0H.2 SFRSYM    DATA     BIT       P32
      000000A0H.3 SFRSYM    DATA     BIT       P23
      00000090H.4 SFRSYM    DATA     BIT       P14
      00000080H.5 SFRSYM    DATA     BIT       P05
      00000089H   SFRSYM    DATA     BYTE      TMOD
      00000088H   SFRSYM    DATA     BYTE      TCON
      000000B0H.3 SFRSYM    DATA     BIT       P33
      000000A0H.4 SFRSYM    DATA     BIT       P24
      00000090H.5 SFRSYM    DATA     BIT       P15
      00000080H.6 SFRSYM    DATA     BIT       P06
      000000B0H.4 SFRSYM    DATA     BIT       P34
      000000A0H.5 SFRSYM    DATA     BIT       P25
      00000090H.6 SFRSYM    DATA     BIT       P16
      00000080H.7 SFRSYM    DATA     BIT       P07
      000000B0H.5 SFRSYM    DATA     BIT       P35
      000000A0H.6 SFRSYM    DATA     BIT       P26
      00000090H.7 SFRSYM    DATA     BIT       P17
      000000F2H   SFRSYM    DATA     BYTE      I2CSSR
      000000B0H.6 SFRSYM    DATA     BIT       P36
      000000A0H.7 SFRSYM    DATA     BIT       P27
      000000ECH   SFRSYM    DATA     BYTE      SPCR
      000000DDH   SFRSYM    DATA     BYTE      ADRESH
LX51 LINKER/LOCATER V4.66.1.0                                                         09/08/2023  16:42:41  PAGE 23


      000000B0H.7 SFRSYM    DATA     BIT       P37
      000000EEH   SFRSYM    DATA     BYTE      SPDR
      000000EFH   SFRSYM    DATA     BYTE      SSCR
      000000D3H   SFRSYM    DATA     BYTE      ADDLYL
      000000DCH   SFRSYM    DATA     BYTE      ADRESL
      00000088H.1 SFRSYM    DATA     BIT       IE0
      00000088H.3 SFRSYM    DATA     BIT       IE1
      0000008FH   SFRSYM    DATA     BYTE      CLKDIV
      000000F0H   SFRSYM    DATA     BYTE      B
      00000091H   SFRSYM    DATA     BYTE      FUNCCR
      0000009AH   SFRSYM    DATA     BYTE      P0TRIS
      000000A1H   SFRSYM    DATA     BYTE      P1TRIS
      000000A2H   SFRSYM    DATA     BYTE      P2TRIS
      000000E0H   SFRSYM    DATA     BYTE      ACC
      000000A3H   SFRSYM    DATA     BYTE      P3TRIS
      000000A8H.4 SFRSYM    DATA     BIT       ES0
      000000A8H.6 SFRSYM    DATA     BIT       ES1
      000000A8H.1 SFRSYM    DATA     BIT       ET0
      000000EDH   SFRSYM    DATA     BYTE      SPSR
      000000A8H.3 SFRSYM    DATA     BIT       ET1
      00000088H.5 SFRSYM    DATA     BIT       TF0
      000000A8H.5 SFRSYM    DATA     BIT       ET2
      00000098H   SFRSYM    DATA     BIT       RI0
      00000088H.7 SFRSYM    DATA     BIT       TF1
      0000008CH   SFRSYM    DATA     BYTE      TH0
      000000A8H   SFRSYM    DATA     BIT       EX0
      00000098H.1 SFRSYM    DATA     BIT       TI0
      00000088H   SFRSYM    DATA     BIT       IT0
      0000008DH   SFRSYM    DATA     BYTE      TH1
      000000A8H.2 SFRSYM    DATA     BIT       EX1
      00000088H.2 SFRSYM    DATA     BIT       IT1
      000000CDH   SFRSYM    DATA     BYTE      TH2
      000000D0H   SFRSYM    DATA     BIT       P
      000000DBH   SFRSYM    DATA     BYTE      TH3
      000000E3H   SFRSYM    DATA     BYTE      TH4
      0000008AH   SFRSYM    DATA     BYTE      TL0
      0000008BH   SFRSYM    DATA     BYTE      TL1
      00000098H.2 SFRSYM    DATA     BIT       U0RB8
      000000CCH   SFRSYM    DATA     BYTE      TL2
      000000B8H.4 SFRSYM    DATA     BIT       PS0
      000000DAH   SFRSYM    DATA     BYTE      TL3
      000000BFH   SFRSYM    DATA     BYTE      BUZCON
      000000B8H.6 SFRSYM    DATA     BIT       PS1
      000000B8H.1 SFRSYM    DATA     BIT       PT0
      00000098H.3 SFRSYM    DATA     BIT       U0TB8
      000000E2H   SFRSYM    DATA     BYTE      TL4
      000000D0H.3 SFRSYM    DATA     BIT       RS0
      000000B8H.3 SFRSYM    DATA     BIT       PT1
      000000D0H.4 SFRSYM    DATA     BIT       RS1
      000000B8H.5 SFRSYM    DATA     BIT       PT2
      00000098H.7 SFRSYM    DATA     BIT       U0SM0
      00000088H.4 SFRSYM    DATA     BIT       TR0
      000000BEH   SFRSYM    DATA     BYTE      BUZDIV
      00000098H.6 SFRSYM    DATA     BIT       U0SM1
      00000088H.6 SFRSYM    DATA     BIT       TR1
      000000B8H   SFRSYM    DATA     BIT       PX0
      00000098H.5 SFRSYM    DATA     BIT       U0SM2
      000000B8H.2 SFRSYM    DATA     BIT       PX1
      000000BDH   SFRSYM    DATA     BYTE      WUTCRH
      00000099H   SFRSYM    DATA     BYTE      SBUF0
      000000EBH   SFRSYM    DATA     BYTE      SBUF1
      000000BCH   SFRSYM    DATA     BYTE      WUTCRL
      00000098H   SFRSYM    DATA     BYTE      SCON0
      000000EAH   SFRSYM    DATA     BYTE      SCON1
      000000C8H   SFRSYM    DATA     BYTE      T2CON
LX51 LINKER/LOCATER V4.66.1.0                                                         09/08/2023  16:42:41  PAGE 24


      00000086H   SFRSYM    DATA     BYTE      DPS
      000000FEH   SFRSYM    DATA     BYTE      MDATA
      000000F6H   SFRSYM    DATA     BYTE      I2CMBUF
      000000F1H   SFRSYM    DATA     BYTE      I2CSADR
      00000098H.4 SFRSYM    DATA     BIT       U0REN
      000000C8H.5 SFRSYM    DATA     BIT       CAPES
      000000FDH   SFRSYM    DATA     BYTE      MADRH
      0000008EH   SFRSYM    DATA     BYTE      CKCON
      000000F3H   SFRSYM    DATA     BYTE      I2CSBUF
      000000FCH   SFRSYM    DATA     BYTE      MADRL
      000000D0H.5 SFRSYM    DATA     BIT       F0
      000000FBH   SFRSYM    DATA     BYTE      MLOCK
      000000D0H   SFRSYM    DATA     BYTE      PSW
      00000097H   SFRSYM    DATA     BYTE      WDCON

      01001FDEH   BLOCK     CODE     ---       LVL=0
      01001FDEH   LINE      CODE     ---       #68
      01001FDEH   LINE      CODE     ---       #70
      01001FE0H   LINE      CODE     ---       #71
      ---         BLOCKEND  ---      ---       LVL=0

      01000022H   BLOCK     CODE     ---       LVL=0
      01000022H   LINE      CODE     ---       #79
      01000022H   LINE      CODE     ---       #81
      ---         BLOCKEND  ---      ---       LVL=0

      0100002AH   BLOCK     CODE     ---       LVL=0
      0100002AH   LINE      CODE     ---       #89
      0100002AH   LINE      CODE     ---       #92
      ---         BLOCKEND  ---      ---       LVL=0

      01000032H   BLOCK     CODE     ---       LVL=0
      01000032H   LINE      CODE     ---       #100
      01000032H   LINE      CODE     ---       #105
      ---         BLOCKEND  ---      ---       LVL=0

      01000CF0H   BLOCK     CODE     ---       LVL=0
      01000CF0H   LINE      CODE     ---       #113
      01000D0DH   LINE      CODE     ---       #115
      01000D15H   LINE      CODE     ---       #116
      01000D15H   LINE      CODE     ---       #118
      01000D1AH   LINE      CODE     ---       #119
      01000D1AH   LINE      CODE     ---       #120
      01000D22H   LINE      CODE     ---       #121
      01000D22H   LINE      CODE     ---       #122
      01000D2EH   LINE      CODE     ---       #123
      01000D33H   LINE      CODE     ---       #124
      01000D33H   LINE      CODE     ---       #125
      ---         BLOCKEND  ---      ---       LVL=0

      0100003AH   BLOCK     CODE     ---       LVL=0
      0100003AH   LINE      CODE     ---       #133
      0100003AH   LINE      CODE     ---       #135
      ---         BLOCKEND  ---      ---       LVL=0

      01000042H   BLOCK     CODE     ---       LVL=0
      01000042H   LINE      CODE     ---       #143
      01000042H   LINE      CODE     ---       #146
      ---         BLOCKEND  ---      ---       LVL=0

      0100004AH   BLOCK     CODE     ---       LVL=0
      0100004AH   LINE      CODE     ---       #154
      0100004AH   LINE      CODE     ---       #156
      ---         BLOCKEND  ---      ---       LVL=0

LX51 LINKER/LOCATER V4.66.1.0                                                         09/08/2023  16:42:41  PAGE 25


      01000052H   BLOCK     CODE     ---       LVL=0
      01000052H   LINE      CODE     ---       #164
      01000052H   LINE      CODE     ---       #167
      ---         BLOCKEND  ---      ---       LVL=0

      0100006AH   BLOCK     CODE     ---       LVL=0
      0100006AH   LINE      CODE     ---       #175
      0100006AH   LINE      CODE     ---       #177
      ---         BLOCKEND  ---      ---       LVL=0

      01000072H   BLOCK     CODE     ---       LVL=0
      01000072H   LINE      CODE     ---       #185
      01000072H   LINE      CODE     ---       #188
      ---         BLOCKEND  ---      ---       LVL=0

      0100007AH   BLOCK     CODE     ---       LVL=0
      0100007AH   LINE      CODE     ---       #197
      0100007AH   LINE      CODE     ---       #199
      ---         BLOCKEND  ---      ---       LVL=0

      01000082H   BLOCK     CODE     ---       LVL=0
      01000082H   LINE      CODE     ---       #207
      01000082H   LINE      CODE     ---       #209
      ---         BLOCKEND  ---      ---       LVL=0

      0100009AH   BLOCK     CODE     ---       LVL=0
      0100009AH   LINE      CODE     ---       #218
      0100009AH   LINE      CODE     ---       #220
      ---         BLOCKEND  ---      ---       LVL=0

      010000A2H   BLOCK     CODE     ---       LVL=0
      010000A2H   LINE      CODE     ---       #228
      010000A2H   LINE      CODE     ---       #230
      ---         BLOCKEND  ---      ---       LVL=0

      010000AAH   BLOCK     CODE     ---       LVL=0
      010000AAH   LINE      CODE     ---       #238
      010000AAH   LINE      CODE     ---       #240
      ---         BLOCKEND  ---      ---       LVL=0

      010000B2H   BLOCK     CODE     ---       LVL=0
      010000B2H   LINE      CODE     ---       #248
      010000B2H   LINE      CODE     ---       #250
      ---         BLOCKEND  ---      ---       LVL=0

      01001FEAH   BLOCK     CODE     ---       LVL=0
      01001FEAH   LINE      CODE     ---       #258
      01001FEAH   LINE      CODE     ---       #260
      ---         BLOCKEND  ---      ---       LVL=0

      01001FEBH   BLOCK     CODE     ---       LVL=0
      01001FEBH   LINE      CODE     ---       #268
      01001FEBH   LINE      CODE     ---       #270
      ---         BLOCKEND  ---      ---       LVL=0

      01001FECH   BLOCK     CODE     ---       LVL=0
      01001FECH   LINE      CODE     ---       #278
      01001FECH   LINE      CODE     ---       #281
      ---         BLOCKEND  ---      ---       LVL=0

      01001FEDH   BLOCK     CODE     ---       LVL=0
      01001FEDH   LINE      CODE     ---       #289
      01001FEDH   LINE      CODE     ---       #292
      ---         BLOCKEND  ---      ---       LVL=0

LX51 LINKER/LOCATER V4.66.1.0                                                         09/08/2023  16:42:41  PAGE 26


      ---         MODULE    ---      ---       UART
      01001E55H   PUBLIC    CODE     ---       UART_DisableBRT
      01001E44H   PUBLIC    CODE     ---       _UART_ConfigBRTPeriod
      01001B1FH   PUBLIC    CODE     ---       _UART_ConfigBRTClk
      01001E4DH   PUBLIC    CODE     ---       UART_EnableBRT
      01001882H   PUBLIC    CODE     ---       _UART_GetNinthBit
      010016A4H   PUBLIC    CODE     ---       _UART_SendNinthBit
      01001D18H   PUBLIC    CODE     ---       _UART_SendBuff
      01001AA7H   PUBLIC    CODE     ---       _UART_GetBuff
      01001713H   PUBLIC    CODE     ---       _UART_ClearSendIntFlag
      010014BEH   PUBLIC    CODE     ---       _UART_GetSendIntFlag
      010016F8H   PUBLIC    CODE     ---       _UART_ClearReceiveIntFlag
      0100149FH   PUBLIC    CODE     ---       _UART_GetReceiveIntFlag
      01001D0DH   PUBLIC    CODE     ---       _UART_DisableInt
      01001D02H   PUBLIC    CODE     ---       _UART_EnableInt
      01001BB8H   PUBLIC    CODE     ---       _UART_DisableReceive
      01001BABH   PUBLIC    CODE     ---       _UART_EnableReceive
      00000028H   PUBLIC    DATA     BYTE      ?_UART_ConfigBaudRate?BYTE
      01001C06H   PUBLIC    CODE     ---       _UART_ConfigBaudRate
      01000086H   PUBLIC    CODE     ---       _UART_DisableDoubleFrequency
      01000056H   PUBLIC    CODE     ---       _UART_EnableDoubleFrequency
      01000D4EH   PUBLIC    CODE     ---       _UART_ConfigRunMode
      000000C8H   SFRSYM    DATA     BIT       T2I0
      000000C3H   SFRSYM    DATA     BYTE      CCH1
      00000080H   SFRSYM    DATA     BYTE      P0
      000000C8H.1 SFRSYM    DATA     BIT       T2I1
      000000C5H   SFRSYM    DATA     BYTE      CCH2
      00000090H   SFRSYM    DATA     BYTE      P1
      000000C7H   SFRSYM    DATA     BYTE      CCH3
      000000ACH   SFRSYM    DATA     BYTE      P0EXTIE
      000000A0H   SFRSYM    DATA     BYTE      P2
      000000B4H   SFRSYM    DATA     BYTE      P0EXTIF
      000000B0H   SFRSYM    DATA     BYTE      P3
      000000ADH   SFRSYM    DATA     BYTE      P1EXTIE
      000000D0H.6 SFRSYM    DATA     BIT       AC
      000000FFH   SFRSYM    DATA     BYTE      MCTRL
      000000C2H   SFRSYM    DATA     BYTE      CCL1
      000000B5H   SFRSYM    DATA     BYTE      P1EXTIF
      000000AEH   SFRSYM    DATA     BYTE      P2EXTIE
      000000C4H   SFRSYM    DATA     BYTE      CCL2
      000000B6H   SFRSYM    DATA     BYTE      P2EXTIF
      000000AFH   SFRSYM    DATA     BYTE      P3EXTIE
      000000A8H.7 SFRSYM    DATA     BIT       EA
      000000C6H   SFRSYM    DATA     BYTE      CCL3
      000000B7H   SFRSYM    DATA     BYTE      P3EXTIF
      000000AAH   SFRSYM    DATA     BYTE      EIE2
      000000B2H   SFRSYM    DATA     BYTE      EIF2
      000000C8H.3 SFRSYM    DATA     BIT       T2R0
      000000C8H.4 SFRSYM    DATA     BIT       T2R1
      00000083H   SFRSYM    DATA     BYTE      DPH0
      000000A8H   SFRSYM    DATA     BYTE      IE
      00000085H   SFRSYM    DATA     BYTE      DPH1
      000000B9H   SFRSYM    DATA     BYTE      EIP1
      000000BAH   SFRSYM    DATA     BYTE      EIP2
      00000082H   SFRSYM    DATA     BYTE      DPL0
      00000084H   SFRSYM    DATA     BYTE      DPL1
      000000C8H.6 SFRSYM    DATA     BIT       I3FR
      000000CFH   SFRSYM    DATA     BYTE      T2IE
      00000096H   SFRSYM    DATA     BYTE      TA
      000000C9H   SFRSYM    DATA     BYTE      T2IF
      000000C8H.2 SFRSYM    DATA     BIT       T2CM
      000000DFH   SFRSYM    DATA     BYTE      ADCON0
      000000DEH   SFRSYM    DATA     BYTE      ADCON1
      000000E9H   SFRSYM    DATA     BYTE      ADCON2
      000000B8H   SFRSYM    DATA     BYTE      IP
LX51 LINKER/LOCATER V4.66.1.0                                                         09/08/2023  16:42:41  PAGE 27


      000000CEH   SFRSYM    DATA     BYTE      CCEN
      000000D0H.7 SFRSYM    DATA     BIT       CY
      000000D2H   SFRSYM    DATA     BYTE      T34MOD
      00000093H   SFRSYM    DATA     BYTE      DPX0
      00000095H   SFRSYM    DATA     BYTE      DPX1
      000000F4H   SFRSYM    DATA     BYTE      I2CMSA
      000000F5H   SFRSYM    DATA     BYTE      I2CMCR
      00000081H   SFRSYM    DATA     BYTE      SP
      000000D0H.2 SFRSYM    DATA     BIT       OV
      000000F2H   SFRSYM    DATA     BYTE      I2CSCR
      000000C8H.7 SFRSYM    DATA     BIT       T2PS
      000000D1H   SFRSYM    DATA     BYTE      ADCMPC
      000000CBH   SFRSYM    DATA     BYTE      RLDH
      000000D5H   SFRSYM    DATA     BYTE      ADCMPH
      000000CAH   SFRSYM    DATA     BYTE      RLDL
      00000080H   SFRSYM    DATA     BIT       P00
      00000090H   SFRSYM    DATA     BIT       P10
      00000080H.1 SFRSYM    DATA     BIT       P01
      000000F7H   SFRSYM    DATA     BYTE      I2CMTP
      00000099H   SFRSYM    DATA     BYTE      SBUF
      00000087H   SFRSYM    DATA     BYTE      PCON
      000000A0H   SFRSYM    DATA     BIT       P20
      00000090H.1 SFRSYM    DATA     BIT       P11
      00000080H.2 SFRSYM    DATA     BIT       P02
      000000F5H   SFRSYM    DATA     BYTE      I2CMSR
      000000B0H   SFRSYM    DATA     BIT       P30
      000000A0H.1 SFRSYM    DATA     BIT       P21
      00000090H.2 SFRSYM    DATA     BIT       P12
      00000080H.3 SFRSYM    DATA     BIT       P03
      000000D4H   SFRSYM    DATA     BYTE      ADCMPL
      000000B0H.1 SFRSYM    DATA     BIT       P31
      000000A0H.2 SFRSYM    DATA     BIT       P22
      00000090H.3 SFRSYM    DATA     BIT       P13
      00000080H.4 SFRSYM    DATA     BIT       P04
      000000B0H.2 SFRSYM    DATA     BIT       P32
      000000A0H.3 SFRSYM    DATA     BIT       P23
      00000090H.4 SFRSYM    DATA     BIT       P14
      00000080H.5 SFRSYM    DATA     BIT       P05
      00000089H   SFRSYM    DATA     BYTE      TMOD
      00000088H   SFRSYM    DATA     BYTE      TCON
      000000B0H.3 SFRSYM    DATA     BIT       P33
      000000A0H.4 SFRSYM    DATA     BIT       P24
      00000090H.5 SFRSYM    DATA     BIT       P15
      00000080H.6 SFRSYM    DATA     BIT       P06
      000000B0H.4 SFRSYM    DATA     BIT       P34
      000000A0H.5 SFRSYM    DATA     BIT       P25
      00000090H.6 SFRSYM    DATA     BIT       P16
      00000080H.7 SFRSYM    DATA     BIT       P07
      000000B0H.5 SFRSYM    DATA     BIT       P35
      000000A0H.6 SFRSYM    DATA     BIT       P26
      00000090H.7 SFRSYM    DATA     BIT       P17
      000000F2H   SFRSYM    DATA     BYTE      I2CSSR
      000000B0H.6 SFRSYM    DATA     BIT       P36
      000000A0H.7 SFRSYM    DATA     BIT       P27
      000000ECH   SFRSYM    DATA     BYTE      SPCR
      000000DDH   SFRSYM    DATA     BYTE      ADRESH
      000000B0H.7 SFRSYM    DATA     BIT       P37
      000000EEH   SFRSYM    DATA     BYTE      SPDR
      000000EFH   SFRSYM    DATA     BYTE      SSCR
      000000D3H   SFRSYM    DATA     BYTE      ADDLYL
      000000DCH   SFRSYM    DATA     BYTE      ADRESL
      00000088H.1 SFRSYM    DATA     BIT       IE0
      00000088H.3 SFRSYM    DATA     BIT       IE1
      0000008FH   SFRSYM    DATA     BYTE      CLKDIV
      000000F0H   SFRSYM    DATA     BYTE      B
LX51 LINKER/LOCATER V4.66.1.0                                                         09/08/2023  16:42:41  PAGE 28


      00000091H   SFRSYM    DATA     BYTE      FUNCCR
      0000009AH   SFRSYM    DATA     BYTE      P0TRIS
      000000A1H   SFRSYM    DATA     BYTE      P1TRIS
      000000A2H   SFRSYM    DATA     BYTE      P2TRIS
      000000E0H   SFRSYM    DATA     BYTE      ACC
      000000A3H   SFRSYM    DATA     BYTE      P3TRIS
      000000A8H.4 SFRSYM    DATA     BIT       ES0
      000000A8H.6 SFRSYM    DATA     BIT       ES1
      000000A8H.1 SFRSYM    DATA     BIT       ET0
      000000EDH   SFRSYM    DATA     BYTE      SPSR
      000000A8H.3 SFRSYM    DATA     BIT       ET1
      00000088H.5 SFRSYM    DATA     BIT       TF0
      000000A8H.5 SFRSYM    DATA     BIT       ET2
      00000098H   SFRSYM    DATA     BIT       RI0
      00000088H.7 SFRSYM    DATA     BIT       TF1
      0000008CH   SFRSYM    DATA     BYTE      TH0
      000000A8H   SFRSYM    DATA     BIT       EX0
      00000098H.1 SFRSYM    DATA     BIT       TI0
      00000088H   SFRSYM    DATA     BIT       IT0
      0000008DH   SFRSYM    DATA     BYTE      TH1
      000000A8H.2 SFRSYM    DATA     BIT       EX1
      00000088H.2 SFRSYM    DATA     BIT       IT1
      000000CDH   SFRSYM    DATA     BYTE      TH2
      000000D0H   SFRSYM    DATA     BIT       P
      000000DBH   SFRSYM    DATA     BYTE      TH3
      000000E3H   SFRSYM    DATA     BYTE      TH4
      0000008AH   SFRSYM    DATA     BYTE      TL0
      0000008BH   SFRSYM    DATA     BYTE      TL1
      00000098H.2 SFRSYM    DATA     BIT       U0RB8
      000000CCH   SFRSYM    DATA     BYTE      TL2
      000000B8H.4 SFRSYM    DATA     BIT       PS0
      000000DAH   SFRSYM    DATA     BYTE      TL3
      000000BFH   SFRSYM    DATA     BYTE      BUZCON
      000000B8H.6 SFRSYM    DATA     BIT       PS1
      000000B8H.1 SFRSYM    DATA     BIT       PT0
      00000098H.3 SFRSYM    DATA     BIT       U0TB8
      000000E2H   SFRSYM    DATA     BYTE      TL4
      000000D0H.3 SFRSYM    DATA     BIT       RS0
      000000B8H.3 SFRSYM    DATA     BIT       PT1
      000000D0H.4 SFRSYM    DATA     BIT       RS1
      000000B8H.5 SFRSYM    DATA     BIT       PT2
      00000098H.7 SFRSYM    DATA     BIT       U0SM0
      00000088H.4 SFRSYM    DATA     BIT       TR0
      000000BEH   SFRSYM    DATA     BYTE      BUZDIV
      00000098H.6 SFRSYM    DATA     BIT       U0SM1
      00000088H.6 SFRSYM    DATA     BIT       TR1
      000000B8H   SFRSYM    DATA     BIT       PX0
      00000098H.5 SFRSYM    DATA     BIT       U0SM2
      000000B8H.2 SFRSYM    DATA     BIT       PX1
      000000BDH   SFRSYM    DATA     BYTE      WUTCRH
      00000099H   SFRSYM    DATA     BYTE      SBUF0
      000000EBH   SFRSYM    DATA     BYTE      SBUF1
      000000BCH   SFRSYM    DATA     BYTE      WUTCRL
      00000098H   SFRSYM    DATA     BYTE      SCON0
      000000EAH   SFRSYM    DATA     BYTE      SCON1
      000000C8H   SFRSYM    DATA     BYTE      T2CON
      00000086H   SFRSYM    DATA     BYTE      DPS
      000000FEH   SFRSYM    DATA     BYTE      MDATA
      000000F6H   SFRSYM    DATA     BYTE      I2CMBUF
      000000F1H   SFRSYM    DATA     BYTE      I2CSADR
      00000098H.4 SFRSYM    DATA     BIT       U0REN
      000000C8H.5 SFRSYM    DATA     BIT       CAPES
      000000FDH   SFRSYM    DATA     BYTE      MADRH
      0000008EH   SFRSYM    DATA     BYTE      CKCON
      000000F3H   SFRSYM    DATA     BYTE      I2CSBUF
LX51 LINKER/LOCATER V4.66.1.0                                                         09/08/2023  16:42:41  PAGE 29


      000000FCH   SFRSYM    DATA     BYTE      MADRL
      000000D0H.5 SFRSYM    DATA     BIT       F0
      000000FBH   SFRSYM    DATA     BYTE      MLOCK
      000000D0H   SFRSYM    DATA     BYTE      PSW
      00000097H   SFRSYM    DATA     BYTE      WDCON

      01000D4EH   BLOCK     CODE     ---       LVL=0
      00000007H   SYMBOL    DATA     BYTE      UARTn
      00000005H   SYMBOL    DATA     BYTE      UARTMode
      00000003H   SYMBOL    DATA     BYTE      UARTBaudTimer
      01000D4EH   BLOCK     CODE     NEAR LAB  LVL=1
      00000006H   SYMBOL    DATA     BYTE      Temp
      ---         BLOCKEND  ---      ---       LVL=1
      01000D4EH   LINE      CODE     ---       #70
      01000D4EH   LINE      CODE     ---       #71
      01000D4EH   LINE      CODE     ---       #72
      01000D4EH   LINE      CODE     ---       #74
      01000D51H   LINE      CODE     ---       #75
      01000D51H   LINE      CODE     ---       #76
      01000D53H   LINE      CODE     ---       #77
      01000D56H   LINE      CODE     ---       #78
      01000D5EH   LINE      CODE     ---       #79
      01000D60H   LINE      CODE     ---       #81
      01000D63H   LINE      CODE     ---       #82
      01000D6FH   LINE      CODE     ---       #83
      01000D6FH   LINE      CODE     ---       #84
      01000D6FH   LINE      CODE     ---       #85
      01000D6FH   LINE      CODE     ---       #86
      01000D6FH   LINE      CODE     ---       #87
      01000D72H   LINE      CODE     ---       #88
      01000D74H   LINE      CODE     ---       #89
      01000D74H   LINE      CODE     ---       #90
      01000D77H   LINE      CODE     ---       #91
      01000D79H   LINE      CODE     ---       #92
      01000D79H   LINE      CODE     ---       #93
      01000D7CH   LINE      CODE     ---       #94
      01000D7CH   LINE      CODE     ---       #95
      01000D7CH   LINE      CODE     ---       #96
      01000D7CH   LINE      CODE     ---       #97
      01000D7CH   LINE      CODE     ---       #99
      01000D7CH   LINE      CODE     ---       #100
      01000D81H   LINE      CODE     ---       #101
      01000D81H   LINE      CODE     ---       #102
      01000D83H   LINE      CODE     ---       #103
      01000D86H   LINE      CODE     ---       #104
      01000D8EH   LINE      CODE     ---       #105
      01000D90H   LINE      CODE     ---       #107
      01000D93H   LINE      CODE     ---       #108
      01000D9FH   LINE      CODE     ---       #109
      01000D9FH   LINE      CODE     ---       #110
      01000D9FH   LINE      CODE     ---       #111
      01000D9FH   LINE      CODE     ---       #112
      01000D9FH   LINE      CODE     ---       #113
      01000DA2H   LINE      CODE     ---       #114
      01000DA3H   LINE      CODE     ---       #115
      01000DA3H   LINE      CODE     ---       #116
      01000DA6H   LINE      CODE     ---       #117
      01000DA7H   LINE      CODE     ---       #118
      01000DA7H   LINE      CODE     ---       #119
      01000DAAH   LINE      CODE     ---       #120
      01000DAAH   LINE      CODE     ---       #121
      01000DAAH   LINE      CODE     ---       #122
      01000DAAH   LINE      CODE     ---       #123
      01000DAAH   LINE      CODE     ---       #124
      01000DAAH   LINE      CODE     ---       #125
LX51 LINKER/LOCATER V4.66.1.0                                                         09/08/2023  16:42:41  PAGE 30


      ---         BLOCKEND  ---      ---       LVL=0

      01000056H   BLOCK     CODE     ---       LVL=0
      00000007H   SYMBOL    DATA     BYTE      UARTn
      01000056H   LINE      CODE     ---       #133
      01000056H   LINE      CODE     ---       #134
      01000056H   LINE      CODE     ---       #135
      01000059H   LINE      CODE     ---       #136
      01000059H   LINE      CODE     ---       #137
      0100005CH   LINE      CODE     ---       #138
      0100005CH   LINE      CODE     ---       #139
      0100005FH   LINE      CODE     ---       #140
      0100005FH   LINE      CODE     ---       #141
      01000062H   LINE      CODE     ---       #142
      01000062H   LINE      CODE     ---       #143
      ---         BLOCKEND  ---      ---       LVL=0

      01000086H   BLOCK     CODE     ---       LVL=0
      00000007H   SYMBOL    DATA     BYTE      UARTn
      01000086H   LINE      CODE     ---       #151
      01000086H   LINE      CODE     ---       #152
      01000086H   LINE      CODE     ---       #153
      01000089H   LINE      CODE     ---       #154
      01000089H   LINE      CODE     ---       #155
      0100008CH   LINE      CODE     ---       #156
      0100008CH   LINE      CODE     ---       #157
      0100008FH   LINE      CODE     ---       #158
      0100008FH   LINE      CODE     ---       #159
      01000092H   LINE      CODE     ---       #160
      01000092H   LINE      CODE     ---       #161
      ---         BLOCKEND  ---      ---       LVL=0

      01001C06H   BLOCK     CODE     ---       LVL=0
      00000007H   SYMBOL    DATA     BYTE      UARTn
      00000029H   SYMBOL    DATA     DWORD     BaudRateValue
      01001C06H   LINE      CODE     ---       #173
      01001C06H   LINE      CODE     ---       #174
      01001C06H   LINE      CODE     ---       #267
      01001C08H   LINE      CODE     ---       #268
      01001C10H   LINE      CODE     ---       #269
      01001C11H   LINE      CODE     ---       #271
      ---         BLOCKEND  ---      ---       LVL=0

      01001BABH   BLOCK     CODE     ---       LVL=0
      00000007H   SYMBOL    DATA     BYTE      UARTn
      01001BABH   LINE      CODE     ---       #280
      01001BABH   LINE      CODE     ---       #281
      01001BABH   LINE      CODE     ---       #282
      01001BAEH   LINE      CODE     ---       #283
      01001BAEH   LINE      CODE     ---       #284
      01001BB1H   LINE      CODE     ---       #285
      01001BB1H   LINE      CODE     ---       #286
      01001BB4H   LINE      CODE     ---       #287
      01001BB4H   LINE      CODE     ---       #288
      01001BB7H   LINE      CODE     ---       #289
      01001BB7H   LINE      CODE     ---       #290
      ---         BLOCKEND  ---      ---       LVL=0

      01001BB8H   BLOCK     CODE     ---       LVL=0
      00000007H   SYMBOL    DATA     BYTE      UARTn
      01001BB8H   LINE      CODE     ---       #298
      01001BB8H   LINE      CODE     ---       #299
      01001BB8H   LINE      CODE     ---       #300
      01001BBBH   LINE      CODE     ---       #301
      01001BBBH   LINE      CODE     ---       #302
LX51 LINKER/LOCATER V4.66.1.0                                                         09/08/2023  16:42:41  PAGE 31


      01001BBEH   LINE      CODE     ---       #303
      01001BBEH   LINE      CODE     ---       #304
      01001BC1H   LINE      CODE     ---       #305
      01001BC1H   LINE      CODE     ---       #306
      01001BC4H   LINE      CODE     ---       #307
      01001BC4H   LINE      CODE     ---       #308
      ---         BLOCKEND  ---      ---       LVL=0

      01001D02H   BLOCK     CODE     ---       LVL=0
      00000007H   SYMBOL    DATA     BYTE      UARTn
      01001D02H   LINE      CODE     ---       #317
      01001D02H   LINE      CODE     ---       #318
      01001D02H   LINE      CODE     ---       #319
      01001D05H   LINE      CODE     ---       #320
      01001D05H   LINE      CODE     ---       #321
      01001D07H   LINE      CODE     ---       #322
      01001D07H   LINE      CODE     ---       #323
      01001D0AH   LINE      CODE     ---       #324
      01001D0AH   LINE      CODE     ---       #325
      01001D0CH   LINE      CODE     ---       #326
      01001D0CH   LINE      CODE     ---       #327
      ---         BLOCKEND  ---      ---       LVL=0

      01001D0DH   BLOCK     CODE     ---       LVL=0
      00000007H   SYMBOL    DATA     BYTE      UARTn
      01001D0DH   LINE      CODE     ---       #335
      01001D0DH   LINE      CODE     ---       #336
      01001D0DH   LINE      CODE     ---       #337
      01001D10H   LINE      CODE     ---       #338
      01001D10H   LINE      CODE     ---       #339
      01001D12H   LINE      CODE     ---       #340
      01001D12H   LINE      CODE     ---       #341
      01001D15H   LINE      CODE     ---       #342
      01001D15H   LINE      CODE     ---       #343
      01001D17H   LINE      CODE     ---       #344
      01001D17H   LINE      CODE     ---       #345
      ---         BLOCKEND  ---      ---       LVL=0

      0100149FH   BLOCK     CODE     ---       LVL=0
      00000006H   SYMBOL    DATA     BYTE      UARTn
      0100149FH   LINE      CODE     ---       #353
      010014A1H   LINE      CODE     ---       #354
      010014A1H   LINE      CODE     ---       #355
      010014A4H   LINE      CODE     ---       #356
      010014A4H   LINE      CODE     ---       #357
      010014AEH   LINE      CODE     ---       #358
      010014AEH   LINE      CODE     ---       #359
      010014B1H   LINE      CODE     ---       #360
      010014B1H   LINE      CODE     ---       #361
      010014BBH   LINE      CODE     ---       #362
      010014BBH   LINE      CODE     ---       #363
      010014BDH   LINE      CODE     ---       #364
      ---         BLOCKEND  ---      ---       LVL=0

      010016F8H   BLOCK     CODE     ---       LVL=0
      00000007H   SYMBOL    DATA     BYTE      UARTn
      010016F8H   BLOCK     CODE     NEAR LAB  LVL=1
      00000006H   SYMBOL    DATA     BYTE      temp
      ---         BLOCKEND  ---      ---       LVL=1
      010016F8H   LINE      CODE     ---       #373
      010016F8H   LINE      CODE     ---       #374
      010016F8H   LINE      CODE     ---       #377
      010016FBH   LINE      CODE     ---       #378
      010016FBH   LINE      CODE     ---       #379
      010016FDH   LINE      CODE     ---       #380
LX51 LINKER/LOCATER V4.66.1.0                                                         09/08/2023  16:42:41  PAGE 32


      01001700H   LINE      CODE     ---       #381
      01001705H   LINE      CODE     ---       #382
      01001705H   LINE      CODE     ---       #383
      01001708H   LINE      CODE     ---       #384
      01001708H   LINE      CODE     ---       #385
      0100170AH   LINE      CODE     ---       #386
      0100170DH   LINE      CODE     ---       #387
      01001712H   LINE      CODE     ---       #388
      01001712H   LINE      CODE     ---       #389
      ---         BLOCKEND  ---      ---       LVL=0

      010014BEH   BLOCK     CODE     ---       LVL=0
      00000006H   SYMBOL    DATA     BYTE      UARTn
      010014BEH   LINE      CODE     ---       #398
      010014C0H   LINE      CODE     ---       #399
      010014C0H   LINE      CODE     ---       #400
      010014C3H   LINE      CODE     ---       #401
      010014C3H   LINE      CODE     ---       #402
      010014CDH   LINE      CODE     ---       #403
      010014CDH   LINE      CODE     ---       #404
      010014D0H   LINE      CODE     ---       #405
      010014D0H   LINE      CODE     ---       #406
      010014DAH   LINE      CODE     ---       #407
      010014DAH   LINE      CODE     ---       #408
      010014DCH   LINE      CODE     ---       #409
      ---         BLOCKEND  ---      ---       LVL=0

      01001713H   BLOCK     CODE     ---       LVL=0
      00000007H   SYMBOL    DATA     BYTE      UARTn
      01001713H   BLOCK     CODE     NEAR LAB  LVL=1
      00000006H   SYMBOL    DATA     BYTE      temp
      ---         BLOCKEND  ---      ---       LVL=1
      01001713H   LINE      CODE     ---       #418
      01001713H   LINE      CODE     ---       #419
      01001713H   LINE      CODE     ---       #422
      01001716H   LINE      CODE     ---       #423
      01001716H   LINE      CODE     ---       #424
      01001718H   LINE      CODE     ---       #425
      0100171BH   LINE      CODE     ---       #426
      01001720H   LINE      CODE     ---       #427
      01001720H   LINE      CODE     ---       #428
      01001723H   LINE      CODE     ---       #429
      01001723H   LINE      CODE     ---       #430
      01001725H   LINE      CODE     ---       #431
      01001728H   LINE      CODE     ---       #432
      0100172DH   LINE      CODE     ---       #433
      0100172DH   LINE      CODE     ---       #434
      ---         BLOCKEND  ---      ---       LVL=0

      01001AA7H   BLOCK     CODE     ---       LVL=0
      00000007H   SYMBOL    DATA     BYTE      UARTn
      01001AA7H   LINE      CODE     ---       #443
      01001AA7H   LINE      CODE     ---       #444
      01001AA7H   LINE      CODE     ---       #445
      01001AAAH   LINE      CODE     ---       #446
      01001AAAH   LINE      CODE     ---       #447
      01001AADH   LINE      CODE     ---       #448
      01001AADH   LINE      CODE     ---       #449
      01001AB0H   LINE      CODE     ---       #450
      01001AB0H   LINE      CODE     ---       #451
      01001AB3H   LINE      CODE     ---       #452
      01001AB3H   LINE      CODE     ---       #453
      01001AB5H   LINE      CODE     ---       #454
      ---         BLOCKEND  ---      ---       LVL=0

LX51 LINKER/LOCATER V4.66.1.0                                                         09/08/2023  16:42:41  PAGE 33


      01001D18H   BLOCK     CODE     ---       LVL=0
      00000007H   SYMBOL    DATA     BYTE      UARTn
      00000005H   SYMBOL    DATA     BYTE      UARTSendValue
      01001D18H   LINE      CODE     ---       #464
      01001D18H   LINE      CODE     ---       #465
      01001D18H   LINE      CODE     ---       #466
      01001D1BH   LINE      CODE     ---       #467
      01001D1BH   LINE      CODE     ---       #468
      01001D1DH   LINE      CODE     ---       #469
      01001D1DH   LINE      CODE     ---       #470
      01001D20H   LINE      CODE     ---       #471
      01001D20H   LINE      CODE     ---       #472
      01001D22H   LINE      CODE     ---       #473
      01001D22H   LINE      CODE     ---       #474
      ---         BLOCKEND  ---      ---       LVL=0

      010016A4H   BLOCK     CODE     ---       LVL=0
      00000007H   SYMBOL    DATA     BYTE      UARTn
      00000005H   SYMBOL    DATA     BYTE      UARTSendValue
      010016A4H   LINE      CODE     ---       #484
      010016A4H   LINE      CODE     ---       #485
      010016A4H   LINE      CODE     ---       #486
      010016A7H   LINE      CODE     ---       #487
      010016A7H   LINE      CODE     ---       #488
      010016AAH   LINE      CODE     ---       #489
      010016AAH   LINE      CODE     ---       #490
      010016ADH   LINE      CODE     ---       #491
      010016AFH   LINE      CODE     ---       #493
      010016AFH   LINE      CODE     ---       #494
      010016B2H   LINE      CODE     ---       #495
      010016B2H   LINE      CODE     ---       #496
      010016B2H   LINE      CODE     ---       #497
      010016B5H   LINE      CODE     ---       #498
      010016B5H   LINE      CODE     ---       #499
      010016B8H   LINE      CODE     ---       #500
      010016B8H   LINE      CODE     ---       #501
      010016BBH   LINE      CODE     ---       #502
      010016BCH   LINE      CODE     ---       #504
      010016BCH   LINE      CODE     ---       #505
      010016BFH   LINE      CODE     ---       #506
      010016BFH   LINE      CODE     ---       #507
      010016BFH   LINE      CODE     ---       #508
      ---         BLOCKEND  ---      ---       LVL=0

      01001882H   BLOCK     CODE     ---       LVL=0
      00000007H   SYMBOL    DATA     BYTE      UARTn
      01001882H   LINE      CODE     ---       #516
      01001882H   LINE      CODE     ---       #517
      01001882H   LINE      CODE     ---       #518
      01001885H   LINE      CODE     ---       #519
      01001885H   LINE      CODE     ---       #520
      0100188FH   LINE      CODE     ---       #521
      0100188FH   LINE      CODE     ---       #523
      0100188FH   LINE      CODE     ---       #524
      01001898H   LINE      CODE     ---       #525
      01001898H   LINE      CODE     ---       #526
      ---         BLOCKEND  ---      ---       LVL=0

      01001E4DH   BLOCK     CODE     ---       LVL=0
      01001E4DH   LINE      CODE     ---       #534
      01001E4DH   LINE      CODE     ---       #535
      01001E4DH   LINE      CODE     ---       #536
      01001E54H   LINE      CODE     ---       #537
      ---         BLOCKEND  ---      ---       LVL=0

LX51 LINKER/LOCATER V4.66.1.0                                                         09/08/2023  16:42:41  PAGE 34


      01001B1FH   BLOCK     CODE     ---       LVL=0
      00000007H   SYMBOL    DATA     BYTE      BRTClkDiv
      01001B1FH   BLOCK     CODE     NEAR LAB  LVL=1
      00000006H   SYMBOL    DATA     BYTE      Temp
      ---         BLOCKEND  ---      ---       LVL=1
      01001B1FH   LINE      CODE     ---       #544
      01001B1FH   LINE      CODE     ---       #545
      01001B1FH   LINE      CODE     ---       #546
      01001B1FH   LINE      CODE     ---       #548
      01001B24H   LINE      CODE     ---       #549
      01001B27H   LINE      CODE     ---       #550
      01001B2AH   LINE      CODE     ---       #551
      01001B2CH   LINE      CODE     ---       #552
      ---         BLOCKEND  ---      ---       LVL=0

      01001E44H   BLOCK     CODE     ---       LVL=0
      00000006H   SYMBOL    DATA     WORD      BRTPeriod
      01001E44H   LINE      CODE     ---       #560
      01001E44H   LINE      CODE     ---       #561
      01001E44H   LINE      CODE     ---       #562
      01001E49H   LINE      CODE     ---       #563
      01001E4CH   LINE      CODE     ---       #564
      ---         BLOCKEND  ---      ---       LVL=0

      01001E55H   BLOCK     CODE     ---       LVL=0
      01001E55H   LINE      CODE     ---       #571
      01001E55H   LINE      CODE     ---       #572
      01001E55H   LINE      CODE     ---       #573
      01001E5CH   LINE      CODE     ---       #574
      ---         BLOCKEND  ---      ---       LVL=0

      ---         MODULE    ---      ---       ACMP
      00000022H   PUBLIC    DATA     BYTE      ?_ACMP_GetOffsetAdjValue?BYTE
      01000412H   PUBLIC    CODE     ---       _ACMP_GetOffsetAdjValue
      010010BBH   PUBLIC    CODE     ---       _ACMP_ConfigOffsetAdj
      0100192EH   PUBLIC    CODE     ---       _ACMP_DisableHYS
      01001270H   PUBLIC    CODE     ---       _ACMP_EnableHYS
      010013D2H   PUBLIC    CODE     ---       _ACMP_GetResult
      01001919H   PUBLIC    CODE     ---       _ACMP_Stop
      01001904H   PUBLIC    CODE     ---       _ACMP_Start
      01001A1FH   PUBLIC    CODE     ---       _ACMP_ClearIntFlag
      010019E7H   PUBLIC    CODE     ---       _ACMP_GetIntFlag
      010019ACH   PUBLIC    CODE     ---       _ACMP_DisableInt
      010019D4H   PUBLIC    CODE     ---       _ACMP_EnableInt
      010013AFH   PUBLIC    CODE     ---       _ACMP_EnableACMPBrake
      010018EFH   PUBLIC    CODE     ---       _ACMP_DisableFilter
      01001341H   PUBLIC    CODE     ---       _ACMP_EnableFilter
      010018DAH   PUBLIC    CODE     ---       _ACMP_DisableReverseOutput
      010018C5H   PUBLIC    CODE     ---       _ACMP_EnableReverseOutput
      01000C12H   PUBLIC    CODE     ---       _ACMP_ConfigNegative
      0100145DH   PUBLIC    CODE     ---       _ACMP_ConfigPositive
      000000C8H   SFRSYM    DATA     BIT       T2I0
      000000C3H   SFRSYM    DATA     BYTE      CCH1
      00000080H   SFRSYM    DATA     BYTE      P0
      000000C8H.1 SFRSYM    DATA     BIT       T2I1
      000000C5H   SFRSYM    DATA     BYTE      CCH2
      00000090H   SFRSYM    DATA     BYTE      P1
      000000C7H   SFRSYM    DATA     BYTE      CCH3
      000000ACH   SFRSYM    DATA     BYTE      P0EXTIE
      000000A0H   SFRSYM    DATA     BYTE      P2
      000000B4H   SFRSYM    DATA     BYTE      P0EXTIF
      000000B0H   SFRSYM    DATA     BYTE      P3
      000000ADH   SFRSYM    DATA     BYTE      P1EXTIE
      000000D0H.6 SFRSYM    DATA     BIT       AC
      000000FFH   SFRSYM    DATA     BYTE      MCTRL
LX51 LINKER/LOCATER V4.66.1.0                                                         09/08/2023  16:42:41  PAGE 35


      000000C2H   SFRSYM    DATA     BYTE      CCL1
      000000B5H   SFRSYM    DATA     BYTE      P1EXTIF
      000000AEH   SFRSYM    DATA     BYTE      P2EXTIE
      000000C4H   SFRSYM    DATA     BYTE      CCL2
      000000B6H   SFRSYM    DATA     BYTE      P2EXTIF
      000000AFH   SFRSYM    DATA     BYTE      P3EXTIE
      000000A8H.7 SFRSYM    DATA     BIT       EA
      000000C6H   SFRSYM    DATA     BYTE      CCL3
      000000B7H   SFRSYM    DATA     BYTE      P3EXTIF
      000000AAH   SFRSYM    DATA     BYTE      EIE2
      000000B2H   SFRSYM    DATA     BYTE      EIF2
      000000C8H.3 SFRSYM    DATA     BIT       T2R0
      000000C8H.4 SFRSYM    DATA     BIT       T2R1
      00000083H   SFRSYM    DATA     BYTE      DPH0
      000000A8H   SFRSYM    DATA     BYTE      IE
      00000085H   SFRSYM    DATA     BYTE      DPH1
      000000B9H   SFRSYM    DATA     BYTE      EIP1
      000000BAH   SFRSYM    DATA     BYTE      EIP2
      00000082H   SFRSYM    DATA     BYTE      DPL0
      00000084H   SFRSYM    DATA     BYTE      DPL1
      000000C8H.6 SFRSYM    DATA     BIT       I3FR
      000000CFH   SFRSYM    DATA     BYTE      T2IE
      00000096H   SFRSYM    DATA     BYTE      TA
      000000C9H   SFRSYM    DATA     BYTE      T2IF
      000000C8H.2 SFRSYM    DATA     BIT       T2CM
      000000DFH   SFRSYM    DATA     BYTE      ADCON0
      000000DEH   SFRSYM    DATA     BYTE      ADCON1
      000000E9H   SFRSYM    DATA     BYTE      ADCON2
      000000B8H   SFRSYM    DATA     BYTE      IP
      000000CEH   SFRSYM    DATA     BYTE      CCEN
      000000D0H.7 SFRSYM    DATA     BIT       CY
      000000D2H   SFRSYM    DATA     BYTE      T34MOD
      00000093H   SFRSYM    DATA     BYTE      DPX0
      00000095H   SFRSYM    DATA     BYTE      DPX1
      000000F4H   SFRSYM    DATA     BYTE      I2CMSA
      000000F5H   SFRSYM    DATA     BYTE      I2CMCR
      00000081H   SFRSYM    DATA     BYTE      SP
      000000D0H.2 SFRSYM    DATA     BIT       OV
      000000F2H   SFRSYM    DATA     BYTE      I2CSCR
      000000C8H.7 SFRSYM    DATA     BIT       T2PS
      000000D1H   SFRSYM    DATA     BYTE      ADCMPC
      000000CBH   SFRSYM    DATA     BYTE      RLDH
      000000D5H   SFRSYM    DATA     BYTE      ADCMPH
      000000CAH   SFRSYM    DATA     BYTE      RLDL
      00000080H   SFRSYM    DATA     BIT       P00
      00000090H   SFRSYM    DATA     BIT       P10
      00000080H.1 SFRSYM    DATA     BIT       P01
      000000F7H   SFRSYM    DATA     BYTE      I2CMTP
      00000099H   SFRSYM    DATA     BYTE      SBUF
      00000087H   SFRSYM    DATA     BYTE      PCON
      000000A0H   SFRSYM    DATA     BIT       P20
      00000090H.1 SFRSYM    DATA     BIT       P11
      00000080H.2 SFRSYM    DATA     BIT       P02
      000000F5H   SFRSYM    DATA     BYTE      I2CMSR
      000000B0H   SFRSYM    DATA     BIT       P30
      000000A0H.1 SFRSYM    DATA     BIT       P21
      00000090H.2 SFRSYM    DATA     BIT       P12
      00000080H.3 SFRSYM    DATA     BIT       P03
      000000D4H   SFRSYM    DATA     BYTE      ADCMPL
      000000B0H.1 SFRSYM    DATA     BIT       P31
      000000A0H.2 SFRSYM    DATA     BIT       P22
      00000090H.3 SFRSYM    DATA     BIT       P13
      00000080H.4 SFRSYM    DATA     BIT       P04
      000000B0H.2 SFRSYM    DATA     BIT       P32
      000000A0H.3 SFRSYM    DATA     BIT       P23
LX51 LINKER/LOCATER V4.66.1.0                                                         09/08/2023  16:42:41  PAGE 36


      00000090H.4 SFRSYM    DATA     BIT       P14
      00000080H.5 SFRSYM    DATA     BIT       P05
      00000089H   SFRSYM    DATA     BYTE      TMOD
      00000088H   SFRSYM    DATA     BYTE      TCON
      000000B0H.3 SFRSYM    DATA     BIT       P33
      000000A0H.4 SFRSYM    DATA     BIT       P24
      00000090H.5 SFRSYM    DATA     BIT       P15
      00000080H.6 SFRSYM    DATA     BIT       P06
      000000B0H.4 SFRSYM    DATA     BIT       P34
      000000A0H.5 SFRSYM    DATA     BIT       P25
      00000090H.6 SFRSYM    DATA     BIT       P16
      00000080H.7 SFRSYM    DATA     BIT       P07
      000000B0H.5 SFRSYM    DATA     BIT       P35
      000000A0H.6 SFRSYM    DATA     BIT       P26
      00000090H.7 SFRSYM    DATA     BIT       P17
      000000F2H   SFRSYM    DATA     BYTE      I2CSSR
      000000B0H.6 SFRSYM    DATA     BIT       P36
      000000A0H.7 SFRSYM    DATA     BIT       P27
      000000ECH   SFRSYM    DATA     BYTE      SPCR
      000000DDH   SFRSYM    DATA     BYTE      ADRESH
      000000B0H.7 SFRSYM    DATA     BIT       P37
      000000EEH   SFRSYM    DATA     BYTE      SPDR
      000000EFH   SFRSYM    DATA     BYTE      SSCR
      000000D3H   SFRSYM    DATA     BYTE      ADDLYL
      000000DCH   SFRSYM    DATA     BYTE      ADRESL
      00000088H.1 SFRSYM    DATA     BIT       IE0
      00000088H.3 SFRSYM    DATA     BIT       IE1
      0000008FH   SFRSYM    DATA     BYTE      CLKDIV
      000000F0H   SFRSYM    DATA     BYTE      B
      00000091H   SFRSYM    DATA     BYTE      FUNCCR
      0000009AH   SFRSYM    DATA     BYTE      P0TRIS
      000000A1H   SFRSYM    DATA     BYTE      P1TRIS
      000000A2H   SFRSYM    DATA     BYTE      P2TRIS
      000000E0H   SFRSYM    DATA     BYTE      ACC
      000000A3H   SFRSYM    DATA     BYTE      P3TRIS
      000000A8H.4 SFRSYM    DATA     BIT       ES0
      000000A8H.6 SFRSYM    DATA     BIT       ES1
      000000A8H.1 SFRSYM    DATA     BIT       ET0
      000000EDH   SFRSYM    DATA     BYTE      SPSR
      000000A8H.3 SFRSYM    DATA     BIT       ET1
      00000088H.5 SFRSYM    DATA     BIT       TF0
      000000A8H.5 SFRSYM    DATA     BIT       ET2
      00000098H   SFRSYM    DATA     BIT       RI0
      00000088H.7 SFRSYM    DATA     BIT       TF1
      0000008CH   SFRSYM    DATA     BYTE      TH0
      000000A8H   SFRSYM    DATA     BIT       EX0
      00000098H.1 SFRSYM    DATA     BIT       TI0
      00000088H   SFRSYM    DATA     BIT       IT0
      0000008DH   SFRSYM    DATA     BYTE      TH1
      000000A8H.2 SFRSYM    DATA     BIT       EX1
      00000088H.2 SFRSYM    DATA     BIT       IT1
      000000CDH   SFRSYM    DATA     BYTE      TH2
      000000D0H   SFRSYM    DATA     BIT       P
      000000DBH   SFRSYM    DATA     BYTE      TH3
      000000E3H   SFRSYM    DATA     BYTE      TH4
      0000008AH   SFRSYM    DATA     BYTE      TL0
      0000008BH   SFRSYM    DATA     BYTE      TL1
      00000098H.2 SFRSYM    DATA     BIT       U0RB8
      000000CCH   SFRSYM    DATA     BYTE      TL2
      000000B8H.4 SFRSYM    DATA     BIT       PS0
      000000DAH   SFRSYM    DATA     BYTE      TL3
      000000BFH   SFRSYM    DATA     BYTE      BUZCON
      000000B8H.6 SFRSYM    DATA     BIT       PS1
      000000B8H.1 SFRSYM    DATA     BIT       PT0
      00000098H.3 SFRSYM    DATA     BIT       U0TB8
LX51 LINKER/LOCATER V4.66.1.0                                                         09/08/2023  16:42:41  PAGE 37


      000000E2H   SFRSYM    DATA     BYTE      TL4
      000000D0H.3 SFRSYM    DATA     BIT       RS0
      000000B8H.3 SFRSYM    DATA     BIT       PT1
      000000D0H.4 SFRSYM    DATA     BIT       RS1
      000000B8H.5 SFRSYM    DATA     BIT       PT2
      00000098H.7 SFRSYM    DATA     BIT       U0SM0
      00000088H.4 SFRSYM    DATA     BIT       TR0
      000000BEH   SFRSYM    DATA     BYTE      BUZDIV
      00000098H.6 SFRSYM    DATA     BIT       U0SM1
      00000088H.6 SFRSYM    DATA     BIT       TR1
      000000B8H   SFRSYM    DATA     BIT       PX0
      00000098H.5 SFRSYM    DATA     BIT       U0SM2
      000000B8H.2 SFRSYM    DATA     BIT       PX1
      000000BDH   SFRSYM    DATA     BYTE      WUTCRH
      00000099H   SFRSYM    DATA     BYTE      SBUF0
      000000EBH   SFRSYM    DATA     BYTE      SBUF1
      000000BCH   SFRSYM    DATA     BYTE      WUTCRL
      00000098H   SFRSYM    DATA     BYTE      SCON0
      000000EAH   SFRSYM    DATA     BYTE      SCON1
      000000C8H   SFRSYM    DATA     BYTE      T2CON
      00000086H   SFRSYM    DATA     BYTE      DPS
      000000FEH   SFRSYM    DATA     BYTE      MDATA
      000000F6H   SFRSYM    DATA     BYTE      I2CMBUF
      000000F1H   SFRSYM    DATA     BYTE      I2CSADR
      00000098H.4 SFRSYM    DATA     BIT       U0REN
      000000C8H.5 SFRSYM    DATA     BIT       CAPES
      000000FDH   SFRSYM    DATA     BYTE      MADRH
      0000008EH   SFRSYM    DATA     BYTE      CKCON
      000000F3H   SFRSYM    DATA     BYTE      I2CSBUF
      000000FCH   SFRSYM    DATA     BYTE      MADRL
      000000D0H.5 SFRSYM    DATA     BIT       F0
      000000FBH   SFRSYM    DATA     BYTE      MLOCK
      000000D0H   SFRSYM    DATA     BYTE      PSW
      00000097H   SFRSYM    DATA     BYTE      WDCON
      010019C0H   SYMBOL    CODE     ---       ACMP_Delay

      0100145DH   BLOCK     CODE     ---       LVL=0
      00000007H   SYMBOL    DATA     BYTE      ACMPn
      00000005H   SYMBOL    DATA     BYTE      PositiveSource
      0100145DH   BLOCK     CODE     NEAR LAB  LVL=1
      00000006H   SYMBOL    DATA     BYTE      Temp
      ---         BLOCKEND  ---      ---       LVL=1
      0100145DH   LINE      CODE     ---       #73
      0100145DH   LINE      CODE     ---       #74
      0100145DH   LINE      CODE     ---       #75
      0100145DH   LINE      CODE     ---       #77
      01001460H   LINE      CODE     ---       #78
      01001460H   LINE      CODE     ---       #79
      01001465H   LINE      CODE     ---       #80
      01001468H   LINE      CODE     ---       #81
      0100146BH   LINE      CODE     ---       #82
      0100146DH   LINE      CODE     ---       #83
      0100146DH   LINE      CODE     ---       #84
      01001470H   LINE      CODE     ---       #85
      01001470H   LINE      CODE     ---       #86
      01001475H   LINE      CODE     ---       #87
      01001478H   LINE      CODE     ---       #88
      0100147BH   LINE      CODE     ---       #89
      0100147DH   LINE      CODE     ---       #90
      0100147DH   LINE      CODE     ---       #91
      ---         BLOCKEND  ---      ---       LVL=0

      01000C12H   BLOCK     CODE     ---       LVL=0
      00000007H   SYMBOL    DATA     BYTE      ACMPn
      00000005H   SYMBOL    DATA     BYTE      NegativeSource
LX51 LINKER/LOCATER V4.66.1.0                                                         09/08/2023  16:42:41  PAGE 38


      00000003H   SYMBOL    DATA     BYTE      Vref_k
      01000C12H   BLOCK     CODE     NEAR LAB  LVL=1
      00000006H   SYMBOL    DATA     BYTE      Temp
      ---         BLOCKEND  ---      ---       LVL=1
      01000C12H   LINE      CODE     ---       #105
      01000C12H   LINE      CODE     ---       #106
      01000C12H   LINE      CODE     ---       #107
      01000C12H   LINE      CODE     ---       #109
      01000C15H   LINE      CODE     ---       #110
      01000C15H   LINE      CODE     ---       #111
      01000C1AH   LINE      CODE     ---       #112
      01000C1DH   LINE      CODE     ---       #113
      01000C20H   LINE      CODE     ---       #114
      01000C2DH   LINE      CODE     ---       #115
      01000C2DH   LINE      CODE     ---       #116
      01000C32H   LINE      CODE     ---       #117
      01000C32H   LINE      CODE     ---       #118
      01000C32H   LINE      CODE     ---       #119
      01000C37H   LINE      CODE     ---       #120
      01000C37H   LINE      CODE     ---       #121
      01000C3CH   LINE      CODE     ---       #122
      01000C3FH   LINE      CODE     ---       #123
      01000C42H   LINE      CODE     ---       #125
      01000C4FH   LINE      CODE     ---       #126
      01000C4FH   LINE      CODE     ---       #127
      01000C54H   LINE      CODE     ---       #128
      01000C54H   LINE      CODE     ---       #129
      01000C54H   LINE      CODE     ---       #131
      01000C57H   LINE      CODE     ---       #132
      01000C57H   LINE      CODE     ---       #133
      01000C5EH   LINE      CODE     ---       #134
      01000C5EH   LINE      CODE     ---       #136
      01000C61H   LINE      CODE     ---       #137
      01000C61H   LINE      CODE     ---       #138
      01000C66H   LINE      CODE     ---       #139
      01000C6FH   LINE      CODE     ---       #140
      01000C6FH   LINE      CODE     ---       #142
      01000C72H   LINE      CODE     ---       #143
      01000C72H   LINE      CODE     ---       #144
      01000C77H   LINE      CODE     ---       #145
      01000C80H   LINE      CODE     ---       #146
      01000C80H   LINE      CODE     ---       #147
      ---         BLOCKEND  ---      ---       LVL=0

      010018C5H   BLOCK     CODE     ---       LVL=0
      00000007H   SYMBOL    DATA     BYTE      ACMPn
      010018C5H   LINE      CODE     ---       #155
      010018C5H   LINE      CODE     ---       #156
      010018C5H   LINE      CODE     ---       #157
      010018C8H   LINE      CODE     ---       #158
      010018C8H   LINE      CODE     ---       #159
      010018CFH   LINE      CODE     ---       #160
      010018CFH   LINE      CODE     ---       #161
      010018D2H   LINE      CODE     ---       #162
      010018D2H   LINE      CODE     ---       #163
      010018D9H   LINE      CODE     ---       #164
      010018D9H   LINE      CODE     ---       #165
      ---         BLOCKEND  ---      ---       LVL=0

      010018DAH   BLOCK     CODE     ---       LVL=0
      00000007H   SYMBOL    DATA     BYTE      ACMPn
      010018DAH   LINE      CODE     ---       #173
      010018DAH   LINE      CODE     ---       #174
      010018DAH   LINE      CODE     ---       #175
      010018DDH   LINE      CODE     ---       #176
LX51 LINKER/LOCATER V4.66.1.0                                                         09/08/2023  16:42:41  PAGE 39


      010018DDH   LINE      CODE     ---       #177
      010018E4H   LINE      CODE     ---       #178
      010018E4H   LINE      CODE     ---       #179
      010018E7H   LINE      CODE     ---       #180
      010018E7H   LINE      CODE     ---       #181
      010018EEH   LINE      CODE     ---       #182
      010018EEH   LINE      CODE     ---       #183
      ---         BLOCKEND  ---      ---       LVL=0

      01001341H   BLOCK     CODE     ---       LVL=0
      00000007H   SYMBOL    DATA     BYTE      ACMPn
      00000005H   SYMBOL    DATA     BYTE      FilterTime
      01001341H   BLOCK     CODE     NEAR LAB  LVL=1
      00000006H   SYMBOL    DATA     BYTE      Temp
      ---         BLOCKEND  ---      ---       LVL=1
      01001341H   LINE      CODE     ---       #193
      01001341H   LINE      CODE     ---       #194
      01001341H   LINE      CODE     ---       #195
      01001341H   LINE      CODE     ---       #197
      01001344H   LINE      CODE     ---       #198
      01001344H   LINE      CODE     ---       #199
      01001349H   LINE      CODE     ---       #200
      0100134CH   LINE      CODE     ---       #201
      01001351H   LINE      CODE     ---       #202
      01001353H   LINE      CODE     ---       #203
      01001353H   LINE      CODE     ---       #204
      01001356H   LINE      CODE     ---       #205
      01001356H   LINE      CODE     ---       #206
      0100135BH   LINE      CODE     ---       #207
      0100135EH   LINE      CODE     ---       #208
      01001363H   LINE      CODE     ---       #209
      01001365H   LINE      CODE     ---       #210
      01001365H   LINE      CODE     ---       #211
      ---         BLOCKEND  ---      ---       LVL=0

      010018EFH   BLOCK     CODE     ---       LVL=0
      00000007H   SYMBOL    DATA     BYTE      ACMPn
      010018EFH   LINE      CODE     ---       #219
      010018EFH   LINE      CODE     ---       #220
      010018EFH   LINE      CODE     ---       #221
      010018F2H   LINE      CODE     ---       #222
      010018F2H   LINE      CODE     ---       #223
      010018F9H   LINE      CODE     ---       #224
      010018F9H   LINE      CODE     ---       #225
      010018FCH   LINE      CODE     ---       #226
      010018FCH   LINE      CODE     ---       #227
      01001903H   LINE      CODE     ---       #228
      01001903H   LINE      CODE     ---       #229
      ---         BLOCKEND  ---      ---       LVL=0

      010013AFH   BLOCK     CODE     ---       LVL=0
      00000007H   SYMBOL    DATA     BYTE      ACMPn
      00000005H   SYMBOL    DATA     BYTE      ACMPBrake
      010013AFH   BLOCK     CODE     NEAR LAB  LVL=1
      00000006H   SYMBOL    DATA     BYTE      Temp
      ---         BLOCKEND  ---      ---       LVL=1
      010013AFH   LINE      CODE     ---       #240
      010013AFH   LINE      CODE     ---       #241
      010013AFH   LINE      CODE     ---       #242
      010013AFH   LINE      CODE     ---       #244
      010013B2H   LINE      CODE     ---       #245
      010013B2H   LINE      CODE     ---       #246
      010013B7H   LINE      CODE     ---       #247
      010013BAH   LINE      CODE     ---       #248
      010013BDH   LINE      CODE     ---       #249
LX51 LINKER/LOCATER V4.66.1.0                                                         09/08/2023  16:42:41  PAGE 40


      010013BFH   LINE      CODE     ---       #250
      010013BFH   LINE      CODE     ---       #251
      010013C2H   LINE      CODE     ---       #252
      010013C2H   LINE      CODE     ---       #253
      010013C7H   LINE      CODE     ---       #254
      010013CAH   LINE      CODE     ---       #255
      010013CFH   LINE      CODE     ---       #256
      010013D1H   LINE      CODE     ---       #257
      010013D1H   LINE      CODE     ---       #258
      ---         BLOCKEND  ---      ---       LVL=0

      010019D4H   BLOCK     CODE     ---       LVL=0
      00000007H   SYMBOL    DATA     BYTE      ACMPn
      010019D4H   LINE      CODE     ---       #266
      010019D4H   LINE      CODE     ---       #267
      010019D4H   LINE      CODE     ---       #268
      010019E6H   LINE      CODE     ---       #269
      ---         BLOCKEND  ---      ---       LVL=0

      010019ACH   BLOCK     CODE     ---       LVL=0
      00000007H   SYMBOL    DATA     BYTE      ACMPn
      010019ACH   LINE      CODE     ---       #277
      010019ACH   LINE      CODE     ---       #278
      010019ACH   LINE      CODE     ---       #279
      010019BFH   LINE      CODE     ---       #280
      ---         BLOCKEND  ---      ---       LVL=0

      010019E7H   BLOCK     CODE     ---       LVL=0
      00000007H   SYMBOL    DATA     BYTE      ACMPn
      010019E7H   LINE      CODE     ---       #288
      010019E7H   LINE      CODE     ---       #289
      010019E7H   LINE      CODE     ---       #290
      010019F9H   LINE      CODE     ---       #291
      ---         BLOCKEND  ---      ---       LVL=0

      01001A1FH   BLOCK     CODE     ---       LVL=0
      00000007H   SYMBOL    DATA     BYTE      ACMPn
      01001A1FH   LINE      CODE     ---       #299
      01001A1FH   LINE      CODE     ---       #300
      01001A1FH   LINE      CODE     ---       #301
      01001A2FH   LINE      CODE     ---       #302
      ---         BLOCKEND  ---      ---       LVL=0

      01001904H   BLOCK     CODE     ---       LVL=0
      00000007H   SYMBOL    DATA     BYTE      ACMPn
      01001904H   LINE      CODE     ---       #311
      01001904H   LINE      CODE     ---       #312
      01001904H   LINE      CODE     ---       #313
      01001907H   LINE      CODE     ---       #314
      01001907H   LINE      CODE     ---       #315
      0100190EH   LINE      CODE     ---       #316
      0100190EH   LINE      CODE     ---       #317
      01001911H   LINE      CODE     ---       #318
      01001911H   LINE      CODE     ---       #319
      01001918H   LINE      CODE     ---       #320
      01001918H   LINE      CODE     ---       #321
      ---         BLOCKEND  ---      ---       LVL=0

      01001919H   BLOCK     CODE     ---       LVL=0
      00000007H   SYMBOL    DATA     BYTE      ACMPn
      01001919H   LINE      CODE     ---       #330
      01001919H   LINE      CODE     ---       #331
      01001919H   LINE      CODE     ---       #332
      0100191CH   LINE      CODE     ---       #333
      0100191CH   LINE      CODE     ---       #334
LX51 LINKER/LOCATER V4.66.1.0                                                         09/08/2023  16:42:41  PAGE 41


      01001923H   LINE      CODE     ---       #335
      01001923H   LINE      CODE     ---       #336
      01001926H   LINE      CODE     ---       #337
      01001926H   LINE      CODE     ---       #338
      0100192DH   LINE      CODE     ---       #339
      0100192DH   LINE      CODE     ---       #340
      ---         BLOCKEND  ---      ---       LVL=0

      010013D2H   BLOCK     CODE     ---       LVL=0
      00000006H   SYMBOL    DATA     BYTE      ACMPn
      010013D2H   LINE      CODE     ---       #349
      010013D4H   LINE      CODE     ---       #350
      010013D4H   LINE      CODE     ---       #351
      010013D7H   LINE      CODE     ---       #352
      010013D7H   LINE      CODE     ---       #353
      010013E3H   LINE      CODE     ---       #354
      010013E3H   LINE      CODE     ---       #355
      010013E6H   LINE      CODE     ---       #356
      010013E6H   LINE      CODE     ---       #357
      010013F2H   LINE      CODE     ---       #358
      010013F2H   LINE      CODE     ---       #359
      010013F4H   LINE      CODE     ---       #360
      ---         BLOCKEND  ---      ---       LVL=0

      01001270H   BLOCK     CODE     ---       LVL=0
      00000007H   SYMBOL    DATA     BYTE      ACMPn
      00000005H   SYMBOL    DATA     BYTE      HYSSelect
      00000003H   SYMBOL    DATA     BYTE      HYSValue
      01001270H   BLOCK     CODE     NEAR LAB  LVL=1
      00000006H   SYMBOL    DATA     BYTE      Temp
      ---         BLOCKEND  ---      ---       LVL=1
      01001270H   LINE      CODE     ---       #375
      01001270H   LINE      CODE     ---       #376
      01001270H   LINE      CODE     ---       #377
      01001270H   LINE      CODE     ---       #379
      01001273H   LINE      CODE     ---       #380
      01001273H   LINE      CODE     ---       #381
      01001278H   LINE      CODE     ---       #382
      0100127BH   LINE      CODE     ---       #383
      01001283H   LINE      CODE     ---       #384
      01001285H   LINE      CODE     ---       #385
      01001285H   LINE      CODE     ---       #386
      01001288H   LINE      CODE     ---       #387
      01001288H   LINE      CODE     ---       #388
      0100128DH   LINE      CODE     ---       #389
      01001290H   LINE      CODE     ---       #390
      01001298H   LINE      CODE     ---       #391
      0100129AH   LINE      CODE     ---       #392
      0100129AH   LINE      CODE     ---       #393
      ---         BLOCKEND  ---      ---       LVL=0

      0100192EH   BLOCK     CODE     ---       LVL=0
      00000007H   SYMBOL    DATA     BYTE      ACMPn
      0100192EH   LINE      CODE     ---       #402
      0100192EH   LINE      CODE     ---       #403
      0100192EH   LINE      CODE     ---       #404
      01001931H   LINE      CODE     ---       #405
      01001931H   LINE      CODE     ---       #406
      01001938H   LINE      CODE     ---       #407
      01001938H   LINE      CODE     ---       #408
      0100193BH   LINE      CODE     ---       #409
      0100193BH   LINE      CODE     ---       #410
      01001942H   LINE      CODE     ---       #411
      01001942H   LINE      CODE     ---       #412
      ---         BLOCKEND  ---      ---       LVL=0
LX51 LINKER/LOCATER V4.66.1.0                                                         09/08/2023  16:42:41  PAGE 42



      010010BBH   BLOCK     CODE     ---       LVL=0
      00000007H   SYMBOL    DATA     BYTE      ACMPn
      00000005H   SYMBOL    DATA     BYTE      OffsetAdjMode
      00000003H   SYMBOL    DATA     BYTE      AdjVlue
      010010BBH   BLOCK     CODE     NEAR LAB  LVL=1
      00000006H   SYMBOL    DATA     BYTE      Temp
      ---         BLOCKEND  ---      ---       LVL=1
      010010BBH   LINE      CODE     ---       #424
      010010BBH   LINE      CODE     ---       #425
      010010BBH   LINE      CODE     ---       #426
      010010BBH   LINE      CODE     ---       #428
      010010BEH   LINE      CODE     ---       #429
      010010BEH   LINE      CODE     ---       #430
      010010C1H   LINE      CODE     ---       #431
      010010C1H   LINE      CODE     ---       #432
      010010C6H   LINE      CODE     ---       #433
      010010C9H   LINE      CODE     ---       #434
      010010CCH   LINE      CODE     ---       #435
      010010CEH   LINE      CODE     ---       #437
      010010D4H   LINE      CODE     ---       #438
      010010D4H   LINE      CODE     ---       #439
      010010D4H   LINE      CODE     ---       #440
      010010D7H   LINE      CODE     ---       #441
      010010D7H   LINE      CODE     ---       #442
      010010DAH   LINE      CODE     ---       #443
      010010DAH   LINE      CODE     ---       #444
      010010DFH   LINE      CODE     ---       #445
      010010E2H   LINE      CODE     ---       #446
      010010E5H   LINE      CODE     ---       #447
      010010E7H   LINE      CODE     ---       #449
      010010EDH   LINE      CODE     ---       #450
      010010EDH   LINE      CODE     ---       #451
      010010EDH   LINE      CODE     ---       #452
      ---         BLOCKEND  ---      ---       LVL=0

      010019C0H   BLOCK     CODE     ---       LVL=0
      ---         BLOCKEND  ---      ---       LVL=0

      010019C8H   BLOCK     CODE     ---       LVL=0
      0000001EH   SYMBOL    DATA     BYTE      i
      010019C8H   BLOCK     CODE     NEAR LAB  LVL=1
      0000001EH   SYMBOL    DATA     BYTE      i
      ---         BLOCKEND  ---      ---       LVL=1
      010019C8H   LINE      CODE     ---       #461
      010019C8H   LINE      CODE     ---       #462
      010019C8H   LINE      CODE     ---       #464
      010019CBH   LINE      CODE     ---       #465
      010019D3H   LINE      CODE     ---       #466
      ---         BLOCKEND  ---      ---       LVL=0

      01000412H   BLOCK     CODE     ---       LVL=0
      00000022H   SYMBOL    DATA     BYTE      ACMPn
      00000023H   SYMBOL    DATA     BYTE      ACMPMode
      00000001H   SYMBOL    DATA     BYTE      InputPort
      00000025H   SYMBOL    DATA     BYTE      NegVref_K
      01000418H   BLOCK     CODE     NEAR LAB  LVL=1
      00000004H   SYMBOL    DATA     BYTE      temp
      00000026H   SYMBOL    DATA     BYTE      AcmpOut
      00000027H   SYMBOL    DATA     BYTE      Adjvalue
      00000002H   SYMBOL    DATA     BYTE      ACMPCON1Temp
      ---         BLOCKEND  ---      ---       LVL=1
      01000412H   LINE      CODE     ---       #480
      01000418H   LINE      CODE     ---       #481
      01000418H   LINE      CODE     ---       #484
LX51 LINKER/LOCATER V4.66.1.0                                                         09/08/2023  16:42:41  PAGE 43


      0100041BH   LINE      CODE     ---       #485
      01000422H   LINE      CODE     ---       #486
      01000422H   LINE      CODE     ---       #488
      01000426H   LINE      CODE     ---       #490
      0100042AH   LINE      CODE     ---       #491
      0100042AH   LINE      CODE     ---       #492
      01000431H   LINE      CODE     ---       #494
      01000436H   LINE      CODE     ---       #495
      01000439H   LINE      CODE     ---       #496
      0100044EH   LINE      CODE     ---       #497
      0100044EH   LINE      CODE     ---       #498
      0100044EH   LINE      CODE     ---       #499
      01000454H   LINE      CODE     ---       #500
      01000454H   LINE      CODE     ---       #501
      01000456H   LINE      CODE     ---       #502
      01000456H   LINE      CODE     ---       #503
      0100045CH   LINE      CODE     ---       #504
      0100045FH   LINE      CODE     ---       #505
      0100045FH   LINE      CODE     ---       #506
      01000461H   LINE      CODE     ---       #507
      01000461H   LINE      CODE     ---       #508
      01000467H   LINE      CODE     ---       #509
      0100046AH   LINE      CODE     ---       #510
      0100046AH   LINE      CODE     ---       #511
      0100046CH   LINE      CODE     ---       #512
      0100046CH   LINE      CODE     ---       #513
      01000472H   LINE      CODE     ---       #514
      01000475H   LINE      CODE     ---       #515
      01000475H   LINE      CODE     ---       #516
      01000477H   LINE      CODE     ---       #517
      01000477H   LINE      CODE     ---       #518
      0100047DH   LINE      CODE     ---       #519
      01000480H   LINE      CODE     ---       #520
      01000480H   LINE      CODE     ---       #521
      01000482H   LINE      CODE     ---       #522
      01000482H   LINE      CODE     ---       #523
      01000485H   LINE      CODE     ---       #524
      01000485H   LINE      CODE     ---       #525
      01000487H   LINE      CODE     ---       #526
      01000487H   LINE      CODE     ---       #527
      0100048AH   LINE      CODE     ---       #528
      0100048FH   LINE      CODE     ---       #529
      0100048FH   LINE      CODE     ---       #530
      0100048FH   LINE      CODE     ---       #531
      0100048FH   LINE      CODE     ---       #532
      01000494H   LINE      CODE     ---       #533
      01000494H   LINE      CODE     ---       #534
      0100049BH   LINE      CODE     ---       #535
      010004A2H   LINE      CODE     ---       #536
      010004A2H   LINE      CODE     ---       #537
      010004A8H   LINE      CODE     ---       #538
      010004A8H   LINE      CODE     ---       #539
      010004AFH   LINE      CODE     ---       #540
      010004B6H   LINE      CODE     ---       #541
      010004BFH   LINE      CODE     ---       #542
      010004C2H   LINE      CODE     ---       #543
      010004C2H   LINE      CODE     ---       #544
      010004C7H   LINE      CODE     ---       #545
      010004C7H   LINE      CODE     ---       #546
      010004C7H   LINE      CODE     ---       #549
      010004CEH   LINE      CODE     ---       #550
      010004D4H   LINE      CODE     ---       #551
      010004DBH   LINE      CODE     ---       #554
      010004E0H   LINE      CODE     ---       #555
      010004E3H   LINE      CODE     ---       #557
LX51 LINKER/LOCATER V4.66.1.0                                                         09/08/2023  16:42:41  PAGE 44


      010004E8H   LINE      CODE     ---       #558
      010004EDH   LINE      CODE     ---       #559
      010004EFH   LINE      CODE     ---       #560
      010004EFH   LINE      CODE     ---       #561
      010004EFH   LINE      CODE     ---       #562
      010004EFH   LINE      CODE     ---       #563
      010004F2H   LINE      CODE     ---       #564
      010004F5H   LINE      CODE     ---       #565
      010004FFH   LINE      CODE     ---       #566
      010004FFH   LINE      CODE     ---       #567
      01000501H   LINE      CODE     ---       #568
      01000503H   LINE      CODE     ---       #569
      01000503H   LINE      CODE     ---       #570
      01000507H   LINE      CODE     ---       #572
      0100050AH   LINE      CODE     ---       #573
      0100050AH   LINE      CODE     ---       #574
      0100050DH   LINE      CODE     ---       #575
      0100050DH   LINE      CODE     ---       #576
      01000516H   LINE      CODE     ---       #577
      01000516H   LINE      CODE     ---       #579
      0100051BH   LINE      CODE     ---       #581
      0100051FH   LINE      CODE     ---       #582
      0100051FH   LINE      CODE     ---       #583
      01000526H   LINE      CODE     ---       #585
      0100052BH   LINE      CODE     ---       #586
      0100052EH   LINE      CODE     ---       #587
      01000543H   LINE      CODE     ---       #588
      01000543H   LINE      CODE     ---       #589
      01000543H   LINE      CODE     ---       #590
      01000549H   LINE      CODE     ---       #591
      01000549H   LINE      CODE     ---       #592
      0100054BH   LINE      CODE     ---       #593
      0100054BH   LINE      CODE     ---       #594
      01000551H   LINE      CODE     ---       #595
      01000554H   LINE      CODE     ---       #596
      01000554H   LINE      CODE     ---       #597
      01000556H   LINE      CODE     ---       #598
      01000556H   LINE      CODE     ---       #599
      0100055CH   LINE      CODE     ---       #600
      0100055FH   LINE      CODE     ---       #601
      0100055FH   LINE      CODE     ---       #602
      01000561H   LINE      CODE     ---       #603
      01000561H   LINE      CODE     ---       #604
      01000567H   LINE      CODE     ---       #605
      0100056AH   LINE      CODE     ---       #606
      0100056AH   LINE      CODE     ---       #607
      0100056CH   LINE      CODE     ---       #608
      0100056CH   LINE      CODE     ---       #609
      01000572H   LINE      CODE     ---       #610
      01000575H   LINE      CODE     ---       #611
      01000575H   LINE      CODE     ---       #612
      01000577H   LINE      CODE     ---       #613
      01000577H   LINE      CODE     ---       #614
      0100057AH   LINE      CODE     ---       #615
      0100057AH   LINE      CODE     ---       #616
      0100057CH   LINE      CODE     ---       #617
      0100057CH   LINE      CODE     ---       #618
      0100057FH   LINE      CODE     ---       #619
      01000584H   LINE      CODE     ---       #620
      01000584H   LINE      CODE     ---       #621
      01000584H   LINE      CODE     ---       #622
      01000584H   LINE      CODE     ---       #623
      01000589H   LINE      CODE     ---       #624
      01000589H   LINE      CODE     ---       #625
      01000590H   LINE      CODE     ---       #626
LX51 LINKER/LOCATER V4.66.1.0                                                         09/08/2023  16:42:41  PAGE 45


      01000597H   LINE      CODE     ---       #627
      01000597H   LINE      CODE     ---       #628
      0100059DH   LINE      CODE     ---       #629
      0100059DH   LINE      CODE     ---       #630
      010005A4H   LINE      CODE     ---       #631
      010005ABH   LINE      CODE     ---       #632
      010005B4H   LINE      CODE     ---       #633
      010005B7H   LINE      CODE     ---       #634
      010005B7H   LINE      CODE     ---       #635
      010005BCH   LINE      CODE     ---       #636
      010005BCH   LINE      CODE     ---       #637
      010005BCH   LINE      CODE     ---       #639
      010005C3H   LINE      CODE     ---       #640
      010005C9H   LINE      CODE     ---       #641
      010005D0H   LINE      CODE     ---       #643
      010005D5H   LINE      CODE     ---       #644
      010005D8H   LINE      CODE     ---       #646
      010005DDH   LINE      CODE     ---       #648
      010005E2H   LINE      CODE     ---       #649
      010005E4H   LINE      CODE     ---       #650
      010005E4H   LINE      CODE     ---       #651
      010005E4H   LINE      CODE     ---       #652
      010005E4H   LINE      CODE     ---       #653
      010005E7H   LINE      CODE     ---       #654
      010005EAH   LINE      CODE     ---       #655
      010005F4H   LINE      CODE     ---       #656
      010005F4H   LINE      CODE     ---       #657
      010005F6H   LINE      CODE     ---       #658
      010005F8H   LINE      CODE     ---       #659
      010005F8H   LINE      CODE     ---       #660
      010005FCH   LINE      CODE     ---       #662
      01000601H   LINE      CODE     ---       #663
      01000603H   LINE      CODE     ---       #664
      01000606H   LINE      CODE     ---       #665
      01000606H   LINE      CODE     ---       #666
      01000608H   LINE      CODE     ---       #667
      ---         BLOCKEND  ---      ---       LVL=0

      ---         MODULE    ---      ---       ADC
      01001B2DH   PUBLIC    CODE     ---       _ADC_ConfigADCVref
      01001E65H   PUBLIC    CODE     ---       ADC_DisableLDO
      01001E5DH   PUBLIC    CODE     ---       ADC_EnableLDO
      0100004EH   PUBLIC    CODE     ---       ADC_ClearIntFlag
      01001D9AH   PUBLIC    CODE     ---       ADC_GetIntFlag
      01000046H   PUBLIC    CODE     ---       ADC_DisableInt
      0100003EH   PUBLIC    CODE     ---       ADC_EnableInt
      01001366H   PUBLIC    CODE     ---       ADC_GetADCResult
      01001D90H   PUBLIC    CODE     ---       ADC_GetCmpResult
      010019FAH   PUBLIC    CODE     ---       _ADC_ConfigCompareValue
      01001D23H   PUBLIC    CODE     ---       _ADC_ConfigADCBrake
      01001AC5H   PUBLIC    CODE     ---       _ADC_SetTrigDelayTime
      01001AB6H   PUBLIC    CODE     ---       _ADC_ConfigAN31
      010015F4H   PUBLIC    CODE     ---       _ADC_EnableChannel
      01001943H   PUBLIC    CODE     ---       _ADC_ConfigHardwareTrig
      01000036H   PUBLIC    CODE     ---       ADC_DisableHardwareTrig
      0100002EH   PUBLIC    CODE     ---       ADC_EnableHardwareTrig
      0100186AH   PUBLIC    CODE     ---       _ADC_ConfigRunMode
      01000026H   PUBLIC    CODE     ---       ADC_Stop
      0100001EH   PUBLIC    CODE     ---       ADC_Start
      000000C8H   SFRSYM    DATA     BIT       T2I0
      000000C3H   SFRSYM    DATA     BYTE      CCH1
      00000080H   SFRSYM    DATA     BYTE      P0
      000000C8H.1 SFRSYM    DATA     BIT       T2I1
      000000C5H   SFRSYM    DATA     BYTE      CCH2
      00000090H   SFRSYM    DATA     BYTE      P1
LX51 LINKER/LOCATER V4.66.1.0                                                         09/08/2023  16:42:41  PAGE 46


      000000C7H   SFRSYM    DATA     BYTE      CCH3
      000000ACH   SFRSYM    DATA     BYTE      P0EXTIE
      000000A0H   SFRSYM    DATA     BYTE      P2
      000000B4H   SFRSYM    DATA     BYTE      P0EXTIF
      000000B0H   SFRSYM    DATA     BYTE      P3
      000000ADH   SFRSYM    DATA     BYTE      P1EXTIE
      000000D0H.6 SFRSYM    DATA     BIT       AC
      000000FFH   SFRSYM    DATA     BYTE      MCTRL
      000000C2H   SFRSYM    DATA     BYTE      CCL1
      000000B5H   SFRSYM    DATA     BYTE      P1EXTIF
      000000AEH   SFRSYM    DATA     BYTE      P2EXTIE
      000000C4H   SFRSYM    DATA     BYTE      CCL2
      000000B6H   SFRSYM    DATA     BYTE      P2EXTIF
      000000AFH   SFRSYM    DATA     BYTE      P3EXTIE
      000000A8H.7 SFRSYM    DATA     BIT       EA
      000000C6H   SFRSYM    DATA     BYTE      CCL3
      000000B7H   SFRSYM    DATA     BYTE      P3EXTIF
      000000AAH   SFRSYM    DATA     BYTE      EIE2
      000000B2H   SFRSYM    DATA     BYTE      EIF2
      000000C8H.3 SFRSYM    DATA     BIT       T2R0
      000000C8H.4 SFRSYM    DATA     BIT       T2R1
      00000083H   SFRSYM    DATA     BYTE      DPH0
      000000A8H   SFRSYM    DATA     BYTE      IE
      00000085H   SFRSYM    DATA     BYTE      DPH1
      000000B9H   SFRSYM    DATA     BYTE      EIP1
      000000BAH   SFRSYM    DATA     BYTE      EIP2
      00000082H   SFRSYM    DATA     BYTE      DPL0
      00000084H   SFRSYM    DATA     BYTE      DPL1
      000000C8H.6 SFRSYM    DATA     BIT       I3FR
      000000CFH   SFRSYM    DATA     BYTE      T2IE
      00000096H   SFRSYM    DATA     BYTE      TA
      000000C9H   SFRSYM    DATA     BYTE      T2IF
      000000C8H.2 SFRSYM    DATA     BIT       T2CM
      000000DFH   SFRSYM    DATA     BYTE      ADCON0
      000000DEH   SFRSYM    DATA     BYTE      ADCON1
      000000E9H   SFRSYM    DATA     BYTE      ADCON2
      000000B8H   SFRSYM    DATA     BYTE      IP
      000000CEH   SFRSYM    DATA     BYTE      CCEN
      000000D0H.7 SFRSYM    DATA     BIT       CY
      000000D2H   SFRSYM    DATA     BYTE      T34MOD
      00000093H   SFRSYM    DATA     BYTE      DPX0
      00000095H   SFRSYM    DATA     BYTE      DPX1
      000000F4H   SFRSYM    DATA     BYTE      I2CMSA
      000000F5H   SFRSYM    DATA     BYTE      I2CMCR
      00000081H   SFRSYM    DATA     BYTE      SP
      000000D0H.2 SFRSYM    DATA     BIT       OV
      000000F2H   SFRSYM    DATA     BYTE      I2CSCR
      000000C8H.7 SFRSYM    DATA     BIT       T2PS
      000000D1H   SFRSYM    DATA     BYTE      ADCMPC
      000000CBH   SFRSYM    DATA     BYTE      RLDH
      000000D5H   SFRSYM    DATA     BYTE      ADCMPH
      000000CAH   SFRSYM    DATA     BYTE      RLDL
      00000080H   SFRSYM    DATA     BIT       P00
      00000090H   SFRSYM    DATA     BIT       P10
      00000080H.1 SFRSYM    DATA     BIT       P01
      000000F7H   SFRSYM    DATA     BYTE      I2CMTP
      00000099H   SFRSYM    DATA     BYTE      SBUF
      00000087H   SFRSYM    DATA     BYTE      PCON
      000000A0H   SFRSYM    DATA     BIT       P20
      00000090H.1 SFRSYM    DATA     BIT       P11
      00000080H.2 SFRSYM    DATA     BIT       P02
      000000F5H   SFRSYM    DATA     BYTE      I2CMSR
      000000B0H   SFRSYM    DATA     BIT       P30
      000000A0H.1 SFRSYM    DATA     BIT       P21
      00000090H.2 SFRSYM    DATA     BIT       P12
LX51 LINKER/LOCATER V4.66.1.0                                                         09/08/2023  16:42:41  PAGE 47


      00000080H.3 SFRSYM    DATA     BIT       P03
      000000D4H   SFRSYM    DATA     BYTE      ADCMPL
      000000B0H.1 SFRSYM    DATA     BIT       P31
      000000A0H.2 SFRSYM    DATA     BIT       P22
      00000090H.3 SFRSYM    DATA     BIT       P13
      00000080H.4 SFRSYM    DATA     BIT       P04
      000000B0H.2 SFRSYM    DATA     BIT       P32
      000000A0H.3 SFRSYM    DATA     BIT       P23
      00000090H.4 SFRSYM    DATA     BIT       P14
      00000080H.5 SFRSYM    DATA     BIT       P05
      00000089H   SFRSYM    DATA     BYTE      TMOD
      00000088H   SFRSYM    DATA     BYTE      TCON
      000000B0H.3 SFRSYM    DATA     BIT       P33
      000000A0H.4 SFRSYM    DATA     BIT       P24
      00000090H.5 SFRSYM    DATA     BIT       P15
      00000080H.6 SFRSYM    DATA     BIT       P06
      000000B0H.4 SFRSYM    DATA     BIT       P34
      000000A0H.5 SFRSYM    DATA     BIT       P25
      00000090H.6 SFRSYM    DATA     BIT       P16
      00000080H.7 SFRSYM    DATA     BIT       P07
      000000B0H.5 SFRSYM    DATA     BIT       P35
      000000A0H.6 SFRSYM    DATA     BIT       P26
      00000090H.7 SFRSYM    DATA     BIT       P17
      000000F2H   SFRSYM    DATA     BYTE      I2CSSR
      000000B0H.6 SFRSYM    DATA     BIT       P36
      000000A0H.7 SFRSYM    DATA     BIT       P27
      000000ECH   SFRSYM    DATA     BYTE      SPCR
      000000DDH   SFRSYM    DATA     BYTE      ADRESH
      000000B0H.7 SFRSYM    DATA     BIT       P37
      000000EEH   SFRSYM    DATA     BYTE      SPDR
      000000EFH   SFRSYM    DATA     BYTE      SSCR
      000000D3H   SFRSYM    DATA     BYTE      ADDLYL
      000000DCH   SFRSYM    DATA     BYTE      ADRESL
      00000088H.1 SFRSYM    DATA     BIT       IE0
      00000088H.3 SFRSYM    DATA     BIT       IE1
      0000008FH   SFRSYM    DATA     BYTE      CLKDIV
      000000F0H   SFRSYM    DATA     BYTE      B
      00000091H   SFRSYM    DATA     BYTE      FUNCCR
      0000009AH   SFRSYM    DATA     BYTE      P0TRIS
      000000A1H   SFRSYM    DATA     BYTE      P1TRIS
      000000A2H   SFRSYM    DATA     BYTE      P2TRIS
      000000E0H   SFRSYM    DATA     BYTE      ACC
      000000A3H   SFRSYM    DATA     BYTE      P3TRIS
      000000A8H.4 SFRSYM    DATA     BIT       ES0
      000000A8H.6 SFRSYM    DATA     BIT       ES1
      000000A8H.1 SFRSYM    DATA     BIT       ET0
      000000EDH   SFRSYM    DATA     BYTE      SPSR
      000000A8H.3 SFRSYM    DATA     BIT       ET1
      00000088H.5 SFRSYM    DATA     BIT       TF0
      000000A8H.5 SFRSYM    DATA     BIT       ET2
      00000098H   SFRSYM    DATA     BIT       RI0
      00000088H.7 SFRSYM    DATA     BIT       TF1
      0000008CH   SFRSYM    DATA     BYTE      TH0
      000000A8H   SFRSYM    DATA     BIT       EX0
      00000098H.1 SFRSYM    DATA     BIT       TI0
      00000088H   SFRSYM    DATA     BIT       IT0
      0000008DH   SFRSYM    DATA     BYTE      TH1
      000000A8H.2 SFRSYM    DATA     BIT       EX1
      00000088H.2 SFRSYM    DATA     BIT       IT1
      000000CDH   SFRSYM    DATA     BYTE      TH2
      000000D0H   SFRSYM    DATA     BIT       P
      000000DBH   SFRSYM    DATA     BYTE      TH3
      000000E3H   SFRSYM    DATA     BYTE      TH4
      0000008AH   SFRSYM    DATA     BYTE      TL0
      0000008BH   SFRSYM    DATA     BYTE      TL1
LX51 LINKER/LOCATER V4.66.1.0                                                         09/08/2023  16:42:41  PAGE 48


      00000098H.2 SFRSYM    DATA     BIT       U0RB8
      000000CCH   SFRSYM    DATA     BYTE      TL2
      000000B8H.4 SFRSYM    DATA     BIT       PS0
      000000DAH   SFRSYM    DATA     BYTE      TL3
      000000BFH   SFRSYM    DATA     BYTE      BUZCON
      000000B8H.6 SFRSYM    DATA     BIT       PS1
      000000B8H.1 SFRSYM    DATA     BIT       PT0
      00000098H.3 SFRSYM    DATA     BIT       U0TB8
      000000E2H   SFRSYM    DATA     BYTE      TL4
      000000D0H.3 SFRSYM    DATA     BIT       RS0
      000000B8H.3 SFRSYM    DATA     BIT       PT1
      000000D0H.4 SFRSYM    DATA     BIT       RS1
      000000B8H.5 SFRSYM    DATA     BIT       PT2
      00000098H.7 SFRSYM    DATA     BIT       U0SM0
      00000088H.4 SFRSYM    DATA     BIT       TR0
      000000BEH   SFRSYM    DATA     BYTE      BUZDIV
      00000098H.6 SFRSYM    DATA     BIT       U0SM1
      00000088H.6 SFRSYM    DATA     BIT       TR1
      000000B8H   SFRSYM    DATA     BIT       PX0
      00000098H.5 SFRSYM    DATA     BIT       U0SM2
      000000B8H.2 SFRSYM    DATA     BIT       PX1
      000000BDH   SFRSYM    DATA     BYTE      WUTCRH
      00000099H   SFRSYM    DATA     BYTE      SBUF0
      000000EBH   SFRSYM    DATA     BYTE      SBUF1
      000000BCH   SFRSYM    DATA     BYTE      WUTCRL
      00000098H   SFRSYM    DATA     BYTE      SCON0
      000000EAH   SFRSYM    DATA     BYTE      SCON1
      000000C8H   SFRSYM    DATA     BYTE      T2CON
      00000086H   SFRSYM    DATA     BYTE      DPS
      000000FEH   SFRSYM    DATA     BYTE      MDATA
      000000F6H   SFRSYM    DATA     BYTE      I2CMBUF
      000000F1H   SFRSYM    DATA     BYTE      I2CSADR
      00000098H.4 SFRSYM    DATA     BIT       U0REN
      000000C8H.5 SFRSYM    DATA     BIT       CAPES
      000000FDH   SFRSYM    DATA     BYTE      MADRH
      0000008EH   SFRSYM    DATA     BYTE      CKCON
      000000F3H   SFRSYM    DATA     BYTE      I2CSBUF
      000000FCH   SFRSYM    DATA     BYTE      MADRL
      000000D0H.5 SFRSYM    DATA     BIT       F0
      000000FBH   SFRSYM    DATA     BYTE      MLOCK
      000000D0H   SFRSYM    DATA     BYTE      PSW
      00000097H   SFRSYM    DATA     BYTE      WDCON

      0100001EH   BLOCK     CODE     ---       LVL=0
      0100001EH   LINE      CODE     ---       #66
      0100001EH   LINE      CODE     ---       #67
      0100001EH   LINE      CODE     ---       #68
      01000021H   LINE      CODE     ---       #69
      ---         BLOCKEND  ---      ---       LVL=0

      01000026H   BLOCK     CODE     ---       LVL=0
      01000026H   LINE      CODE     ---       #75
      01000026H   LINE      CODE     ---       #76
      01000026H   LINE      CODE     ---       #77
      01000029H   LINE      CODE     ---       #78
      ---         BLOCKEND  ---      ---       LVL=0

      0100186AH   BLOCK     CODE     ---       LVL=0
      00000007H   SYMBOL    DATA     BYTE      ADCClkDiv
      00000005H   SYMBOL    DATA     BYTE      ADCResultTpye
      0100186AH   BLOCK     CODE     NEAR LAB  LVL=1
      00000006H   SYMBOL    DATA     BYTE      Temp
      ---         BLOCKEND  ---      ---       LVL=1
      0100186AH   LINE      CODE     ---       #88
      0100186AH   LINE      CODE     ---       #89
LX51 LINKER/LOCATER V4.66.1.0                                                         09/08/2023  16:42:41  PAGE 49


      0100186AH   LINE      CODE     ---       #90
      0100186AH   LINE      CODE     ---       #92
      0100186CH   LINE      CODE     ---       #93
      0100186FH   LINE      CODE     ---       #94
      01001872H   LINE      CODE     ---       #95
      01001874H   LINE      CODE     ---       #97
      01001876H   LINE      CODE     ---       #98
      01001879H   LINE      CODE     ---       #99
      0100187FH   LINE      CODE     ---       #100
      01001881H   LINE      CODE     ---       #101
      ---         BLOCKEND  ---      ---       LVL=0

      0100002EH   BLOCK     CODE     ---       LVL=0
      0100002EH   LINE      CODE     ---       #110
      0100002EH   LINE      CODE     ---       #111
      0100002EH   LINE      CODE     ---       #112
      01000031H   LINE      CODE     ---       #113
      ---         BLOCKEND  ---      ---       LVL=0

      01000036H   BLOCK     CODE     ---       LVL=0
      01000036H   LINE      CODE     ---       #121
      01000036H   LINE      CODE     ---       #122
      01000036H   LINE      CODE     ---       #123
      01000039H   LINE      CODE     ---       #124
      ---         BLOCKEND  ---      ---       LVL=0

      01001943H   BLOCK     CODE     ---       LVL=0
      00000007H   SYMBOL    DATA     BYTE      ADCTGSource
      00000005H   SYMBOL    DATA     BYTE      TGMode
      01001943H   BLOCK     CODE     NEAR LAB  LVL=1
      00000006H   SYMBOL    DATA     BYTE      Temp
      ---         BLOCKEND  ---      ---       LVL=1
      01001943H   LINE      CODE     ---       #136
      01001943H   LINE      CODE     ---       #137
      01001943H   LINE      CODE     ---       #138
      01001943H   LINE      CODE     ---       #140
      01001945H   LINE      CODE     ---       #141
      01001948H   LINE      CODE     ---       #142
      01001955H   LINE      CODE     ---       #143
      01001957H   LINE      CODE     ---       #145
      ---         BLOCKEND  ---      ---       LVL=0

      010015F4H   BLOCK     CODE     ---       LVL=0
      00000007H   SYMBOL    DATA     BYTE      ADCChannel
      010015F4H   BLOCK     CODE     NEAR LAB  LVL=1
      00000006H   SYMBOL    DATA     BYTE      Temp
      ---         BLOCKEND  ---      ---       LVL=1
      010015F4H   LINE      CODE     ---       #154
      010015F4H   LINE      CODE     ---       #155
      010015F4H   LINE      CODE     ---       #156
      010015F4H   LINE      CODE     ---       #158
      010015F6H   LINE      CODE     ---       #159
      010015F9H   LINE      CODE     ---       #160
      01001603H   LINE      CODE     ---       #161
      01001605H   LINE      CODE     ---       #163
      01001607H   LINE      CODE     ---       #164
      0100160AH   LINE      CODE     ---       #165
      0100160FH   LINE      CODE     ---       #166
      01001611H   LINE      CODE     ---       #168
      ---         BLOCKEND  ---      ---       LVL=0

      01001AB6H   BLOCK     CODE     ---       LVL=0
      00000007H   SYMBOL    DATA     BYTE      An31Channel
      01001AB6H   BLOCK     CODE     NEAR LAB  LVL=1
      00000006H   SYMBOL    DATA     BYTE      Temp
LX51 LINKER/LOCATER V4.66.1.0                                                         09/08/2023  16:42:41  PAGE 50


      ---         BLOCKEND  ---      ---       LVL=1
      01001AB6H   LINE      CODE     ---       #177
      01001AB6H   LINE      CODE     ---       #178
      01001AB6H   LINE      CODE     ---       #179
      01001AB6H   LINE      CODE     ---       #181
      01001AB8H   LINE      CODE     ---       #182
      01001ABBH   LINE      CODE     ---       #183
      01001AC2H   LINE      CODE     ---       #184
      01001AC4H   LINE      CODE     ---       #186
      ---         BLOCKEND  ---      ---       LVL=0

      01001AC5H   BLOCK     CODE     ---       LVL=0
      00000006H   SYMBOL    DATA     WORD      TrigTime
      01001AC5H   BLOCK     CODE     NEAR LAB  LVL=1
      00000005H   SYMBOL    DATA     BYTE      Temp
      ---         BLOCKEND  ---      ---       LVL=1
      01001AC5H   LINE      CODE     ---       #195
      01001AC5H   LINE      CODE     ---       #196
      01001AC5H   LINE      CODE     ---       #197
      01001AC5H   LINE      CODE     ---       #199
      01001AC7H   LINE      CODE     ---       #200
      01001AC9H   LINE      CODE     ---       #201
      01001ACCH   LINE      CODE     ---       #202
      01001AD1H   LINE      CODE     ---       #203
      01001AD3H   LINE      CODE     ---       #205
      ---         BLOCKEND  ---      ---       LVL=0

      01001D23H   BLOCK     CODE     ---       LVL=0
      00000007H   SYMBOL    DATA     BYTE      ADCBrake
      01001D23H   BLOCK     CODE     NEAR LAB  LVL=1
      00000006H   SYMBOL    DATA     BYTE      Temp
      ---         BLOCKEND  ---      ---       LVL=1
      01001D23H   LINE      CODE     ---       #215
      01001D23H   LINE      CODE     ---       #216
      01001D23H   LINE      CODE     ---       #217
      01001D23H   LINE      CODE     ---       #219
      01001D25H   LINE      CODE     ---       #220
      01001D28H   LINE      CODE     ---       #221
      01001D2BH   LINE      CODE     ---       #222
      01001D2DH   LINE      CODE     ---       #224
      ---         BLOCKEND  ---      ---       LVL=0

      010019FAH   BLOCK     CODE     ---       LVL=0
      00000006H   SYMBOL    DATA     WORD      ADCCompareValue
      010019FAH   LINE      CODE     ---       #233
      010019FAH   LINE      CODE     ---       #234
      010019FAH   LINE      CODE     ---       #235
      010019FFH   LINE      CODE     ---       #236
      01001A0CH   LINE      CODE     ---       #237
      ---         BLOCKEND  ---      ---       LVL=0

      01001D90H   BLOCK     CODE     ---       LVL=0
      01001D90H   LINE      CODE     ---       #246
      01001D90H   LINE      CODE     ---       #247
      01001D90H   LINE      CODE     ---       #248
      01001D99H   LINE      CODE     ---       #249
      ---         BLOCKEND  ---      ---       LVL=0

      01001366H   BLOCK     CODE     ---       LVL=0
      01001366H   LINE      CODE     ---       #258
      01001366H   LINE      CODE     ---       #259
      01001366H   LINE      CODE     ---       #260
      0100136DH   LINE      CODE     ---       #261
      0100136DH   LINE      CODE     ---       #262
      01001380H   LINE      CODE     ---       #263
LX51 LINKER/LOCATER V4.66.1.0                                                         09/08/2023  16:42:41  PAGE 51


      01001380H   LINE      CODE     ---       #264
      0100138AH   LINE      CODE     ---       #265
      ---         BLOCKEND  ---      ---       LVL=0

      0100003EH   BLOCK     CODE     ---       LVL=0
      0100003EH   LINE      CODE     ---       #274
      0100003EH   LINE      CODE     ---       #275
      0100003EH   LINE      CODE     ---       #276
      01000041H   LINE      CODE     ---       #277
      ---         BLOCKEND  ---      ---       LVL=0

      01000046H   BLOCK     CODE     ---       LVL=0
      01000046H   LINE      CODE     ---       #285
      01000046H   LINE      CODE     ---       #286
      01000046H   LINE      CODE     ---       #287
      01000049H   LINE      CODE     ---       #288
      ---         BLOCKEND  ---      ---       LVL=0

      01001D9AH   BLOCK     CODE     ---       LVL=0
      01001D9AH   LINE      CODE     ---       #296
      01001D9AH   LINE      CODE     ---       #297
      01001D9AH   LINE      CODE     ---       #298
      01001DA3H   LINE      CODE     ---       #299
      ---         BLOCKEND  ---      ---       LVL=0

      0100004EH   BLOCK     CODE     ---       LVL=0
      0100004EH   LINE      CODE     ---       #307
      0100004EH   LINE      CODE     ---       #308
      0100004EH   LINE      CODE     ---       #309
      01000051H   LINE      CODE     ---       #310
      ---         BLOCKEND  ---      ---       LVL=0

      01001E5DH   BLOCK     CODE     ---       LVL=0
      01001E5DH   LINE      CODE     ---       #319
      01001E5DH   LINE      CODE     ---       #320
      01001E5DH   LINE      CODE     ---       #321
      01001E64H   LINE      CODE     ---       #322
      ---         BLOCKEND  ---      ---       LVL=0

      01001E65H   BLOCK     CODE     ---       LVL=0
      01001E65H   LINE      CODE     ---       #330
      01001E65H   LINE      CODE     ---       #331
      01001E65H   LINE      CODE     ---       #332
      01001E6CH   LINE      CODE     ---       #333
      ---         BLOCKEND  ---      ---       LVL=0

      01001B2DH   BLOCK     CODE     ---       LVL=0
      00000007H   SYMBOL    DATA     BYTE      ADCVref
      01001B2DH   BLOCK     CODE     NEAR LAB  LVL=1
      00000006H   SYMBOL    DATA     BYTE      Temp
      ---         BLOCKEND  ---      ---       LVL=1
      01001B2DH   LINE      CODE     ---       #344
      01001B2DH   LINE      CODE     ---       #345
      01001B2DH   LINE      CODE     ---       #346
      01001B2DH   LINE      CODE     ---       #348
      01001B32H   LINE      CODE     ---       #349
      01001B35H   LINE      CODE     ---       #350
      01001B38H   LINE      CODE     ---       #351
      01001B3AH   LINE      CODE     ---       #353
      ---         BLOCKEND  ---      ---       LVL=0

      ---         MODULE    ---      ---       BUZZER
      01001BC5H   PUBLIC    CODE     ---       _BUZ_ConfigBuzzer
      0100006EH   PUBLIC    CODE     ---       BUZ_DisableBuzzer
      01000066H   PUBLIC    CODE     ---       BUZ_EnableBuzzer
LX51 LINKER/LOCATER V4.66.1.0                                                         09/08/2023  16:42:41  PAGE 52


      000000C8H   SFRSYM    DATA     BIT       T2I0
      000000C3H   SFRSYM    DATA     BYTE      CCH1
      00000080H   SFRSYM    DATA     BYTE      P0
      000000C8H.1 SFRSYM    DATA     BIT       T2I1
      000000C5H   SFRSYM    DATA     BYTE      CCH2
      00000090H   SFRSYM    DATA     BYTE      P1
      000000C7H   SFRSYM    DATA     BYTE      CCH3
      000000ACH   SFRSYM    DATA     BYTE      P0EXTIE
      000000A0H   SFRSYM    DATA     BYTE      P2
      000000B4H   SFRSYM    DATA     BYTE      P0EXTIF
      000000B0H   SFRSYM    DATA     BYTE      P3
      000000ADH   SFRSYM    DATA     BYTE      P1EXTIE
      000000D0H.6 SFRSYM    DATA     BIT       AC
      000000FFH   SFRSYM    DATA     BYTE      MCTRL
      000000C2H   SFRSYM    DATA     BYTE      CCL1
      000000B5H   SFRSYM    DATA     BYTE      P1EXTIF
      000000AEH   SFRSYM    DATA     BYTE      P2EXTIE
      000000C4H   SFRSYM    DATA     BYTE      CCL2
      000000B6H   SFRSYM    DATA     BYTE      P2EXTIF
      000000AFH   SFRSYM    DATA     BYTE      P3EXTIE
      000000A8H.7 SFRSYM    DATA     BIT       EA
      000000C6H   SFRSYM    DATA     BYTE      CCL3
      000000B7H   SFRSYM    DATA     BYTE      P3EXTIF
      000000AAH   SFRSYM    DATA     BYTE      EIE2
      000000B2H   SFRSYM    DATA     BYTE      EIF2
      000000C8H.3 SFRSYM    DATA     BIT       T2R0
      000000C8H.4 SFRSYM    DATA     BIT       T2R1
      00000083H   SFRSYM    DATA     BYTE      DPH0
      000000A8H   SFRSYM    DATA     BYTE      IE
      00000085H   SFRSYM    DATA     BYTE      DPH1
      000000B9H   SFRSYM    DATA     BYTE      EIP1
      000000BAH   SFRSYM    DATA     BYTE      EIP2
      00000082H   SFRSYM    DATA     BYTE      DPL0
      00000084H   SFRSYM    DATA     BYTE      DPL1
      000000C8H.6 SFRSYM    DATA     BIT       I3FR
      000000CFH   SFRSYM    DATA     BYTE      T2IE
      00000096H   SFRSYM    DATA     BYTE      TA
      000000C9H   SFRSYM    DATA     BYTE      T2IF
      000000C8H.2 SFRSYM    DATA     BIT       T2CM
      000000DFH   SFRSYM    DATA     BYTE      ADCON0
      000000DEH   SFRSYM    DATA     BYTE      ADCON1
      000000E9H   SFRSYM    DATA     BYTE      ADCON2
      000000B8H   SFRSYM    DATA     BYTE      IP
      000000CEH   SFRSYM    DATA     BYTE      CCEN
      000000D0H.7 SFRSYM    DATA     BIT       CY
      000000D2H   SFRSYM    DATA     BYTE      T34MOD
      00000093H   SFRSYM    DATA     BYTE      DPX0
      00000095H   SFRSYM    DATA     BYTE      DPX1
      000000F4H   SFRSYM    DATA     BYTE      I2CMSA
      000000F5H   SFRSYM    DATA     BYTE      I2CMCR
      00000081H   SFRSYM    DATA     BYTE      SP
      000000D0H.2 SFRSYM    DATA     BIT       OV
      000000F2H   SFRSYM    DATA     BYTE      I2CSCR
      000000C8H.7 SFRSYM    DATA     BIT       T2PS
      000000D1H   SFRSYM    DATA     BYTE      ADCMPC
      000000CBH   SFRSYM    DATA     BYTE      RLDH
      000000D5H   SFRSYM    DATA     BYTE      ADCMPH
      000000CAH   SFRSYM    DATA     BYTE      RLDL
      00000080H   SFRSYM    DATA     BIT       P00
      00000090H   SFRSYM    DATA     BIT       P10
      00000080H.1 SFRSYM    DATA     BIT       P01
      000000F7H   SFRSYM    DATA     BYTE      I2CMTP
      00000099H   SFRSYM    DATA     BYTE      SBUF
      00000087H   SFRSYM    DATA     BYTE      PCON
      000000A0H   SFRSYM    DATA     BIT       P20
LX51 LINKER/LOCATER V4.66.1.0                                                         09/08/2023  16:42:41  PAGE 53


      00000090H.1 SFRSYM    DATA     BIT       P11
      00000080H.2 SFRSYM    DATA     BIT       P02
      000000F5H   SFRSYM    DATA     BYTE      I2CMSR
      000000B0H   SFRSYM    DATA     BIT       P30
      000000A0H.1 SFRSYM    DATA     BIT       P21
      00000090H.2 SFRSYM    DATA     BIT       P12
      00000080H.3 SFRSYM    DATA     BIT       P03
      000000D4H   SFRSYM    DATA     BYTE      ADCMPL
      000000B0H.1 SFRSYM    DATA     BIT       P31
      000000A0H.2 SFRSYM    DATA     BIT       P22
      00000090H.3 SFRSYM    DATA     BIT       P13
      00000080H.4 SFRSYM    DATA     BIT       P04
      000000B0H.2 SFRSYM    DATA     BIT       P32
      000000A0H.3 SFRSYM    DATA     BIT       P23
      00000090H.4 SFRSYM    DATA     BIT       P14
      00000080H.5 SFRSYM    DATA     BIT       P05
      00000089H   SFRSYM    DATA     BYTE      TMOD
      00000088H   SFRSYM    DATA     BYTE      TCON
      000000B0H.3 SFRSYM    DATA     BIT       P33
      000000A0H.4 SFRSYM    DATA     BIT       P24
      00000090H.5 SFRSYM    DATA     BIT       P15
      00000080H.6 SFRSYM    DATA     BIT       P06
      000000B0H.4 SFRSYM    DATA     BIT       P34
      000000A0H.5 SFRSYM    DATA     BIT       P25
      00000090H.6 SFRSYM    DATA     BIT       P16
      00000080H.7 SFRSYM    DATA     BIT       P07
      000000B0H.5 SFRSYM    DATA     BIT       P35
      000000A0H.6 SFRSYM    DATA     BIT       P26
      00000090H.7 SFRSYM    DATA     BIT       P17
      000000F2H   SFRSYM    DATA     BYTE      I2CSSR
      000000B0H.6 SFRSYM    DATA     BIT       P36
      000000A0H.7 SFRSYM    DATA     BIT       P27
      000000ECH   SFRSYM    DATA     BYTE      SPCR
      000000DDH   SFRSYM    DATA     BYTE      ADRESH
      000000B0H.7 SFRSYM    DATA     BIT       P37
      000000EEH   SFRSYM    DATA     BYTE      SPDR
      000000EFH   SFRSYM    DATA     BYTE      SSCR
      000000D3H   SFRSYM    DATA     BYTE      ADDLYL
      000000DCH   SFRSYM    DATA     BYTE      ADRESL
      00000088H.1 SFRSYM    DATA     BIT       IE0
      00000088H.3 SFRSYM    DATA     BIT       IE1
      0000008FH   SFRSYM    DATA     BYTE      CLKDIV
      000000F0H   SFRSYM    DATA     BYTE      B
      00000091H   SFRSYM    DATA     BYTE      FUNCCR
      0000009AH   SFRSYM    DATA     BYTE      P0TRIS
      000000A1H   SFRSYM    DATA     BYTE      P1TRIS
      000000A2H   SFRSYM    DATA     BYTE      P2TRIS
      000000E0H   SFRSYM    DATA     BYTE      ACC
      000000A3H   SFRSYM    DATA     BYTE      P3TRIS
      000000A8H.4 SFRSYM    DATA     BIT       ES0
      000000A8H.6 SFRSYM    DATA     BIT       ES1
      000000A8H.1 SFRSYM    DATA     BIT       ET0
      000000EDH   SFRSYM    DATA     BYTE      SPSR
      000000A8H.3 SFRSYM    DATA     BIT       ET1
      00000088H.5 SFRSYM    DATA     BIT       TF0
      000000A8H.5 SFRSYM    DATA     BIT       ET2
      00000098H   SFRSYM    DATA     BIT       RI0
      00000088H.7 SFRSYM    DATA     BIT       TF1
      0000008CH   SFRSYM    DATA     BYTE      TH0
      000000A8H   SFRSYM    DATA     BIT       EX0
      00000098H.1 SFRSYM    DATA     BIT       TI0
      00000088H   SFRSYM    DATA     BIT       IT0
      0000008DH   SFRSYM    DATA     BYTE      TH1
      000000A8H.2 SFRSYM    DATA     BIT       EX1
      00000088H.2 SFRSYM    DATA     BIT       IT1
LX51 LINKER/LOCATER V4.66.1.0                                                         09/08/2023  16:42:41  PAGE 54


      000000CDH   SFRSYM    DATA     BYTE      TH2
      000000D0H   SFRSYM    DATA     BIT       P
      000000DBH   SFRSYM    DATA     BYTE      TH3
      000000E3H   SFRSYM    DATA     BYTE      TH4
      0000008AH   SFRSYM    DATA     BYTE      TL0
      0000008BH   SFRSYM    DATA     BYTE      TL1
      00000098H.2 SFRSYM    DATA     BIT       U0RB8
      000000CCH   SFRSYM    DATA     BYTE      TL2
      000000B8H.4 SFRSYM    DATA     BIT       PS0
      000000DAH   SFRSYM    DATA     BYTE      TL3
      000000BFH   SFRSYM    DATA     BYTE      BUZCON
      000000B8H.6 SFRSYM    DATA     BIT       PS1
      000000B8H.1 SFRSYM    DATA     BIT       PT0
      00000098H.3 SFRSYM    DATA     BIT       U0TB8
      000000E2H   SFRSYM    DATA     BYTE      TL4
      000000D0H.3 SFRSYM    DATA     BIT       RS0
      000000B8H.3 SFRSYM    DATA     BIT       PT1
      000000D0H.4 SFRSYM    DATA     BIT       RS1
      000000B8H.5 SFRSYM    DATA     BIT       PT2
      00000098H.7 SFRSYM    DATA     BIT       U0SM0
      00000088H.4 SFRSYM    DATA     BIT       TR0
      000000BEH   SFRSYM    DATA     BYTE      BUZDIV
      00000098H.6 SFRSYM    DATA     BIT       U0SM1
      00000088H.6 SFRSYM    DATA     BIT       TR1
      000000B8H   SFRSYM    DATA     BIT       PX0
      00000098H.5 SFRSYM    DATA     BIT       U0SM2
      000000B8H.2 SFRSYM    DATA     BIT       PX1
      000000BDH   SFRSYM    DATA     BYTE      WUTCRH
      00000099H   SFRSYM    DATA     BYTE      SBUF0
      000000EBH   SFRSYM    DATA     BYTE      SBUF1
      000000BCH   SFRSYM    DATA     BYTE      WUTCRL
      00000098H   SFRSYM    DATA     BYTE      SCON0
      000000EAH   SFRSYM    DATA     BYTE      SCON1
      000000C8H   SFRSYM    DATA     BYTE      T2CON
      00000086H   SFRSYM    DATA     BYTE      DPS
      000000FEH   SFRSYM    DATA     BYTE      MDATA
      000000F6H   SFRSYM    DATA     BYTE      I2CMBUF
      000000F1H   SFRSYM    DATA     BYTE      I2CSADR
      00000098H.4 SFRSYM    DATA     BIT       U0REN
      000000C8H.5 SFRSYM    DATA     BIT       CAPES
      000000FDH   SFRSYM    DATA     BYTE      MADRH
      0000008EH   SFRSYM    DATA     BYTE      CKCON
      000000F3H   SFRSYM    DATA     BYTE      I2CSBUF
      000000FCH   SFRSYM    DATA     BYTE      MADRL
      000000D0H.5 SFRSYM    DATA     BIT       F0
      000000FBH   SFRSYM    DATA     BYTE      MLOCK
      000000D0H   SFRSYM    DATA     BYTE      PSW
      00000097H   SFRSYM    DATA     BYTE      WDCON

      01000066H   BLOCK     CODE     ---       LVL=0
      01000066H   LINE      CODE     ---       #67
      01000066H   LINE      CODE     ---       #68
      01000066H   LINE      CODE     ---       #69
      01000069H   LINE      CODE     ---       #70
      ---         BLOCKEND  ---      ---       LVL=0

      0100006EH   BLOCK     CODE     ---       LVL=0
      0100006EH   LINE      CODE     ---       #78
      0100006EH   LINE      CODE     ---       #79
      0100006EH   LINE      CODE     ---       #80
      01000071H   LINE      CODE     ---       #81
      ---         BLOCKEND  ---      ---       LVL=0

      01001BC5H   BLOCK     CODE     ---       LVL=0
      00000007H   SYMBOL    DATA     BYTE      BuzCKS
LX51 LINKER/LOCATER V4.66.1.0                                                         09/08/2023  16:42:41  PAGE 55


      00000005H   SYMBOL    DATA     BYTE      CLKDiv
      01001BC5H   BLOCK     CODE     NEAR LAB  LVL=1
      00000006H   SYMBOL    DATA     BYTE      Temp
      ---         BLOCKEND  ---      ---       LVL=1
      01001BC5H   LINE      CODE     ---       #95
      01001BC5H   LINE      CODE     ---       #96
      01001BC5H   LINE      CODE     ---       #97
      01001BC5H   LINE      CODE     ---       #99
      01001BC7H   LINE      CODE     ---       #100
      01001BCAH   LINE      CODE     ---       #101
      01001BCDH   LINE      CODE     ---       #102
      01001BCFH   LINE      CODE     ---       #104
      01001BD1H   LINE      CODE     ---       #105
      ---         BLOCKEND  ---      ---       LVL=0

      ---         MODULE    ---      ---       EPWM
      0100007EH   PUBLIC    CODE     ---       EPWM_AllIntDisable
      01000076H   PUBLIC    CODE     ---       EPWM_AllIntEnable
      01001B3BH   PUBLIC    CODE     ---       _EPWM_ConfigFBBrake
      01001E85H   PUBLIC    CODE     ---       EPWM_DisableSoftwareBrake
      01001E7DH   PUBLIC    CODE     ---       EPWM_TrigSoftwareBrake
      01001C8AH   PUBLIC    CODE     ---       _EPWM_DisableReverseOutput
      01001F65H   PUBLIC    CODE     ---       _EPWM_EnableReverseOutput
      01001E75H   PUBLIC    CODE     ---       EPWM_ClearFaultBrakeIntFlag
      01001C7EH   PUBLIC    CODE     ---       EPWM_GetFaultBrakeIntFlag
      01001E6DH   PUBLIC    CODE     ---       EPWM_DisableFaultBrakeInt
      01001C72H   PUBLIC    CODE     ---       EPWM_EnableFaultBrakeInt
      0100153AH   PUBLIC    CODE     ---       _EPWM_GetZeroIntFlag
      01001A63H   PUBLIC    CODE     ---       _EPWM_ClearZeroIntFlag
      01001C66H   PUBLIC    CODE     ---       _EPWM_DisableZeroInt
      01001F5EH   PUBLIC    CODE     ---       _EPWM_EnableZeroInt
      0100151BH   PUBLIC    CODE     ---       _EPWM_GetPeriodIntFlag
      01001A52H   PUBLIC    CODE     ---       _EPWM_ClearPeriodIntFlag
      01001C5AH   PUBLIC    CODE     ---       _EPWM_DisablePeriodInt
      01001F57H   PUBLIC    CODE     ---       _EPWM_EnablePeriodInt
      01001A41H   PUBLIC    CODE     ---       _EPWM_ClearDownCmpIntFlag
      010014FCH   PUBLIC    CODE     ---       _EPWM_GetDownCmpIntFlag
      01001C4EH   PUBLIC    CODE     ---       _EPWM_DisableDownCmpInt
      01001F50H   PUBLIC    CODE     ---       _EPWM_EnableDownCmpInt
      01001A30H   PUBLIC    CODE     ---       _EPWM_ClearUpCmpIntFlag
      010014DDH   PUBLIC    CODE     ---       _EPWM_GetUpCmpIntFlag
      01001C42H   PUBLIC    CODE     ---       _EPWM_DisableUpCmpInt
      01001F49H   PUBLIC    CODE     ---       _EPWM_EnableUpCmpInt
      01001C36H   PUBLIC    CODE     ---       _EPWM_DisableMaskControl
      01001806H   PUBLIC    CODE     ---       _EPWM_EnableMaskControl
      01001244H   PUBLIC    CODE     ---       _EPWM_DisableDeadZone
      0100104AH   PUBLIC    CODE     ---       _EPWM_EnableDeadZone
      01001A0DH   PUBLIC    CODE     ---       _EPWM_ConfigChannelBrakeLevel
      0100129BH   PUBLIC    CODE     ---       _EPWM_DisableFaultBrake
      01001083H   PUBLIC    CODE     ---       _EPWM_EnableFaultBrake
      01001C2AH   PUBLIC    CODE     ---       _EPWM_DisableOutput
      01001F42H   PUBLIC    CODE     ---       _EPWM_EnableOutput
      01001C1EH   PUBLIC    CODE     ---       _EPWM_Stop
      01001F3BH   PUBLIC    CODE     ---       _EPWM_Start
      01001F34H   PUBLIC    CODE     ---       _EPWM_EnableAutoLoadMode
      01001C12H   PUBLIC    CODE     ---       _EPWM_EnableOneShotMode
      010007ABH   PUBLIC    CODE     ---       _EPWM_ConfigChannelAsymDuty
      01000A99H   PUBLIC    CODE     ---       _EPWM_ConfigChannelSymDuty
      01000A19H   PUBLIC    CODE     ---       _EPWM_ConfigChannelPeriod
      01000DABH   PUBLIC    CODE     ---       _EPWM_ConfigChannelClk
      01001F6CH   PUBLIC    CODE     ---       _EPWM_ConfigRunMode
      000000C8H   SFRSYM    DATA     BIT       T2I0
      000000C3H   SFRSYM    DATA     BYTE      CCH1
      00000080H   SFRSYM    DATA     BYTE      P0
      000000C8H.1 SFRSYM    DATA     BIT       T2I1
LX51 LINKER/LOCATER V4.66.1.0                                                         09/08/2023  16:42:41  PAGE 56


      000000C5H   SFRSYM    DATA     BYTE      CCH2
      00000090H   SFRSYM    DATA     BYTE      P1
      000000C7H   SFRSYM    DATA     BYTE      CCH3
      000000ACH   SFRSYM    DATA     BYTE      P0EXTIE
      000000A0H   SFRSYM    DATA     BYTE      P2
      000000B4H   SFRSYM    DATA     BYTE      P0EXTIF
      000000B0H   SFRSYM    DATA     BYTE      P3
      000000ADH   SFRSYM    DATA     BYTE      P1EXTIE
      000000D0H.6 SFRSYM    DATA     BIT       AC
      000000FFH   SFRSYM    DATA     BYTE      MCTRL
      000000C2H   SFRSYM    DATA     BYTE      CCL1
      000000B5H   SFRSYM    DATA     BYTE      P1EXTIF
      000000AEH   SFRSYM    DATA     BYTE      P2EXTIE
      000000C4H   SFRSYM    DATA     BYTE      CCL2
      000000B6H   SFRSYM    DATA     BYTE      P2EXTIF
      000000AFH   SFRSYM    DATA     BYTE      P3EXTIE
      000000A8H.7 SFRSYM    DATA     BIT       EA
      000000C6H   SFRSYM    DATA     BYTE      CCL3
      000000B7H   SFRSYM    DATA     BYTE      P3EXTIF
      000000AAH   SFRSYM    DATA     BYTE      EIE2
      000000B2H   SFRSYM    DATA     BYTE      EIF2
      000000C8H.3 SFRSYM    DATA     BIT       T2R0
      000000C8H.4 SFRSYM    DATA     BIT       T2R1
      00000083H   SFRSYM    DATA     BYTE      DPH0
      000000A8H   SFRSYM    DATA     BYTE      IE
      00000085H   SFRSYM    DATA     BYTE      DPH1
      000000B9H   SFRSYM    DATA     BYTE      EIP1
      000000BAH   SFRSYM    DATA     BYTE      EIP2
      00000082H   SFRSYM    DATA     BYTE      DPL0
      00000084H   SFRSYM    DATA     BYTE      DPL1
      000000C8H.6 SFRSYM    DATA     BIT       I3FR
      000000CFH   SFRSYM    DATA     BYTE      T2IE
      00000096H   SFRSYM    DATA     BYTE      TA
      000000C9H   SFRSYM    DATA     BYTE      T2IF
      000000C8H.2 SFRSYM    DATA     BIT       T2CM
      000000DFH   SFRSYM    DATA     BYTE      ADCON0
      000000DEH   SFRSYM    DATA     BYTE      ADCON1
      000000E9H   SFRSYM    DATA     BYTE      ADCON2
      000000B8H   SFRSYM    DATA     BYTE      IP
      000000CEH   SFRSYM    DATA     BYTE      CCEN
      000000D0H.7 SFRSYM    DATA     BIT       CY
      000000D2H   SFRSYM    DATA     BYTE      T34MOD
      00000093H   SFRSYM    DATA     BYTE      DPX0
      00000095H   SFRSYM    DATA     BYTE      DPX1
      000000F4H   SFRSYM    DATA     BYTE      I2CMSA
      000000F5H   SFRSYM    DATA     BYTE      I2CMCR
      00000081H   SFRSYM    DATA     BYTE      SP
      000000D0H.2 SFRSYM    DATA     BIT       OV
      000000F2H   SFRSYM    DATA     BYTE      I2CSCR
      000000C8H.7 SFRSYM    DATA     BIT       T2PS
      000000D1H   SFRSYM    DATA     BYTE      ADCMPC
      000000CBH   SFRSYM    DATA     BYTE      RLDH
      000000D5H   SFRSYM    DATA     BYTE      ADCMPH
      000000CAH   SFRSYM    DATA     BYTE      RLDL
      00000080H   SFRSYM    DATA     BIT       P00
      00000090H   SFRSYM    DATA     BIT       P10
      00000080H.1 SFRSYM    DATA     BIT       P01
      000000F7H   SFRSYM    DATA     BYTE      I2CMTP
      00000099H   SFRSYM    DATA     BYTE      SBUF
      00000087H   SFRSYM    DATA     BYTE      PCON
      000000A0H   SFRSYM    DATA     BIT       P20
      00000090H.1 SFRSYM    DATA     BIT       P11
      00000080H.2 SFRSYM    DATA     BIT       P02
      000000F5H   SFRSYM    DATA     BYTE      I2CMSR
      000000B0H   SFRSYM    DATA     BIT       P30
LX51 LINKER/LOCATER V4.66.1.0                                                         09/08/2023  16:42:41  PAGE 57


      000000A0H.1 SFRSYM    DATA     BIT       P21
      00000090H.2 SFRSYM    DATA     BIT       P12
      00000080H.3 SFRSYM    DATA     BIT       P03
      000000D4H   SFRSYM    DATA     BYTE      ADCMPL
      000000B0H.1 SFRSYM    DATA     BIT       P31
      000000A0H.2 SFRSYM    DATA     BIT       P22
      00000090H.3 SFRSYM    DATA     BIT       P13
      00000080H.4 SFRSYM    DATA     BIT       P04
      000000B0H.2 SFRSYM    DATA     BIT       P32
      000000A0H.3 SFRSYM    DATA     BIT       P23
      00000090H.4 SFRSYM    DATA     BIT       P14
      00000080H.5 SFRSYM    DATA     BIT       P05
      00000089H   SFRSYM    DATA     BYTE      TMOD
      00000088H   SFRSYM    DATA     BYTE      TCON
      000000B0H.3 SFRSYM    DATA     BIT       P33
      000000A0H.4 SFRSYM    DATA     BIT       P24
      00000090H.5 SFRSYM    DATA     BIT       P15
      00000080H.6 SFRSYM    DATA     BIT       P06
      000000B0H.4 SFRSYM    DATA     BIT       P34
      000000A0H.5 SFRSYM    DATA     BIT       P25
      00000090H.6 SFRSYM    DATA     BIT       P16
      00000080H.7 SFRSYM    DATA     BIT       P07
      000000B0H.5 SFRSYM    DATA     BIT       P35
      000000A0H.6 SFRSYM    DATA     BIT       P26
      00000090H.7 SFRSYM    DATA     BIT       P17
      000000F2H   SFRSYM    DATA     BYTE      I2CSSR
      000000B0H.6 SFRSYM    DATA     BIT       P36
      000000A0H.7 SFRSYM    DATA     BIT       P27
      000000ECH   SFRSYM    DATA     BYTE      SPCR
      000000DDH   SFRSYM    DATA     BYTE      ADRESH
      000000B0H.7 SFRSYM    DATA     BIT       P37
      000000EEH   SFRSYM    DATA     BYTE      SPDR
      000000EFH   SFRSYM    DATA     BYTE      SSCR
      000000D3H   SFRSYM    DATA     BYTE      ADDLYL
      000000DCH   SFRSYM    DATA     BYTE      ADRESL
      00000088H.1 SFRSYM    DATA     BIT       IE0
      00000088H.3 SFRSYM    DATA     BIT       IE1
      0000008FH   SFRSYM    DATA     BYTE      CLKDIV
      000000F0H   SFRSYM    DATA     BYTE      B
      00000091H   SFRSYM    DATA     BYTE      FUNCCR
      0000009AH   SFRSYM    DATA     BYTE      P0TRIS
      000000A1H   SFRSYM    DATA     BYTE      P1TRIS
      000000A2H   SFRSYM    DATA     BYTE      P2TRIS
      000000E0H   SFRSYM    DATA     BYTE      ACC
      000000A3H   SFRSYM    DATA     BYTE      P3TRIS
      000000A8H.4 SFRSYM    DATA     BIT       ES0
      000000A8H.6 SFRSYM    DATA     BIT       ES1
      000000A8H.1 SFRSYM    DATA     BIT       ET0
      000000EDH   SFRSYM    DATA     BYTE      SPSR
      000000A8H.3 SFRSYM    DATA     BIT       ET1
      00000088H.5 SFRSYM    DATA     BIT       TF0
      000000A8H.5 SFRSYM    DATA     BIT       ET2
      00000098H   SFRSYM    DATA     BIT       RI0
      00000088H.7 SFRSYM    DATA     BIT       TF1
      0000008CH   SFRSYM    DATA     BYTE      TH0
      000000A8H   SFRSYM    DATA     BIT       EX0
      00000098H.1 SFRSYM    DATA     BIT       TI0
      00000088H   SFRSYM    DATA     BIT       IT0
      0000008DH   SFRSYM    DATA     BYTE      TH1
      000000A8H.2 SFRSYM    DATA     BIT       EX1
      00000088H.2 SFRSYM    DATA     BIT       IT1
      000000CDH   SFRSYM    DATA     BYTE      TH2
      000000D0H   SFRSYM    DATA     BIT       P
      000000DBH   SFRSYM    DATA     BYTE      TH3
      000000E3H   SFRSYM    DATA     BYTE      TH4
LX51 LINKER/LOCATER V4.66.1.0                                                         09/08/2023  16:42:41  PAGE 58


      0000008AH   SFRSYM    DATA     BYTE      TL0
      0000008BH   SFRSYM    DATA     BYTE      TL1
      00000098H.2 SFRSYM    DATA     BIT       U0RB8
      000000CCH   SFRSYM    DATA     BYTE      TL2
      000000B8H.4 SFRSYM    DATA     BIT       PS0
      000000DAH   SFRSYM    DATA     BYTE      TL3
      000000BFH   SFRSYM    DATA     BYTE      BUZCON
      000000B8H.6 SFRSYM    DATA     BIT       PS1
      000000B8H.1 SFRSYM    DATA     BIT       PT0
      00000098H.3 SFRSYM    DATA     BIT       U0TB8
      000000E2H   SFRSYM    DATA     BYTE      TL4
      000000D0H.3 SFRSYM    DATA     BIT       RS0
      000000B8H.3 SFRSYM    DATA     BIT       PT1
      000000D0H.4 SFRSYM    DATA     BIT       RS1
      000000B8H.5 SFRSYM    DATA     BIT       PT2
      00000098H.7 SFRSYM    DATA     BIT       U0SM0
      00000088H.4 SFRSYM    DATA     BIT       TR0
      000000BEH   SFRSYM    DATA     BYTE      BUZDIV
      00000098H.6 SFRSYM    DATA     BIT       U0SM1
      00000088H.6 SFRSYM    DATA     BIT       TR1
      000000B8H   SFRSYM    DATA     BIT       PX0
      00000098H.5 SFRSYM    DATA     BIT       U0SM2
      000000B8H.2 SFRSYM    DATA     BIT       PX1
      000000BDH   SFRSYM    DATA     BYTE      WUTCRH
      00000099H   SFRSYM    DATA     BYTE      SBUF0
      000000EBH   SFRSYM    DATA     BYTE      SBUF1
      000000BCH   SFRSYM    DATA     BYTE      WUTCRL
      00000098H   SFRSYM    DATA     BYTE      SCON0
      000000EAH   SFRSYM    DATA     BYTE      SCON1
      000000C8H   SFRSYM    DATA     BYTE      T2CON
      00000086H   SFRSYM    DATA     BYTE      DPS
      000000FEH   SFRSYM    DATA     BYTE      MDATA
      000000F6H   SFRSYM    DATA     BYTE      I2CMBUF
      000000F1H   SFRSYM    DATA     BYTE      I2CSADR
      00000098H.4 SFRSYM    DATA     BIT       U0REN
      000000C8H.5 SFRSYM    DATA     BIT       CAPES
      000000FDH   SFRSYM    DATA     BYTE      MADRH
      0000008EH   SFRSYM    DATA     BYTE      CKCON
      000000F3H   SFRSYM    DATA     BYTE      I2CSBUF
      000000FCH   SFRSYM    DATA     BYTE      MADRL
      000000D0H.5 SFRSYM    DATA     BIT       F0
      000000FBH   SFRSYM    DATA     BYTE      MLOCK
      000000D0H   SFRSYM    DATA     BYTE      PSW
      00000097H   SFRSYM    DATA     BYTE      WDCON

      01001F6CH   BLOCK     CODE     ---       LVL=0
      00000007H   SYMBOL    DATA     BYTE      EpwmRunModeMask
      01001F6CH   LINE      CODE     ---       #76
      01001F6CH   LINE      CODE     ---       #77
      01001F6CH   LINE      CODE     ---       #78
      01001F71H   LINE      CODE     ---       #79
      ---         BLOCKEND  ---      ---       LVL=0

      01000DABH   BLOCK     CODE     ---       LVL=0
      00000007H   SYMBOL    DATA     BYTE      ChannelNum
      00000005H   SYMBOL    DATA     BYTE      ClkDiv
      01000DABH   LINE      CODE     ---       #99
      01000DABH   LINE      CODE     ---       #100
      01000DABH   LINE      CODE     ---       #101
      01000DBFH   LINE      CODE     ---       #102
      01000DBFH   LINE      CODE     ---       #103
      01000DBFH   LINE      CODE     ---       #104
      01000DC5H   LINE      CODE     ---       #105
      01000DCAH   LINE      CODE     ---       #106
      01000DCBH   LINE      CODE     ---       #107
LX51 LINKER/LOCATER V4.66.1.0                                                         09/08/2023  16:42:41  PAGE 59


      01000DCBH   LINE      CODE     ---       #108
      01000DD1H   LINE      CODE     ---       #109
      01000DD6H   LINE      CODE     ---       #110
      01000DD7H   LINE      CODE     ---       #111
      01000DD7H   LINE      CODE     ---       #112
      01000DDDH   LINE      CODE     ---       #113
      01000DE2H   LINE      CODE     ---       #114
      01000DE3H   LINE      CODE     ---       #115
      01000DE3H   LINE      CODE     ---       #116
      01000DE9H   LINE      CODE     ---       #117
      01000DEEH   LINE      CODE     ---       #118
      01000DEFH   LINE      CODE     ---       #119
      01000DEFH   LINE      CODE     ---       #120
      01000DF5H   LINE      CODE     ---       #121
      01000DFAH   LINE      CODE     ---       #122
      01000DFBH   LINE      CODE     ---       #123
      01000DFBH   LINE      CODE     ---       #124
      01000E01H   LINE      CODE     ---       #125
      01000E06H   LINE      CODE     ---       #126
      01000E06H   LINE      CODE     ---       #127
      01000E06H   LINE      CODE     ---       #128
      01000E06H   LINE      CODE     ---       #129
      01000E06H   LINE      CODE     ---       #130
      ---         BLOCKEND  ---      ---       LVL=0

      01000A19H   BLOCK     CODE     ---       LVL=0
      00000007H   SYMBOL    DATA     BYTE      ChannelNum
      00000004H   SYMBOL    DATA     WORD      Period
      01000A19H   LINE      CODE     ---       #139
      01000A19H   LINE      CODE     ---       #140
      01000A19H   LINE      CODE     ---       #141
      01000A2DH   LINE      CODE     ---       #142
      01000A2DH   LINE      CODE     ---       #143
      01000A2DH   LINE      CODE     ---       #144
      01000A32H   LINE      CODE     ---       #145
      01000A37H   LINE      CODE     ---       #146
      01000A3EH   LINE      CODE     ---       #147
      01000A3FH   LINE      CODE     ---       #148
      01000A3FH   LINE      CODE     ---       #149
      01000A44H   LINE      CODE     ---       #150
      01000A49H   LINE      CODE     ---       #151
      01000A50H   LINE      CODE     ---       #152
      01000A51H   LINE      CODE     ---       #153
      01000A51H   LINE      CODE     ---       #154
      01000A56H   LINE      CODE     ---       #155
      01000A5BH   LINE      CODE     ---       #156
      01000A62H   LINE      CODE     ---       #157
      01000A63H   LINE      CODE     ---       #158
      01000A63H   LINE      CODE     ---       #159
      01000A68H   LINE      CODE     ---       #160
      01000A6DH   LINE      CODE     ---       #161
      01000A74H   LINE      CODE     ---       #162
      01000A75H   LINE      CODE     ---       #163
      01000A75H   LINE      CODE     ---       #164
      01000A7AH   LINE      CODE     ---       #165
      01000A7FH   LINE      CODE     ---       #166
      01000A86H   LINE      CODE     ---       #167
      01000A87H   LINE      CODE     ---       #168
      01000A87H   LINE      CODE     ---       #169
      01000A8CH   LINE      CODE     ---       #170
      01000A91H   LINE      CODE     ---       #171
      01000A98H   LINE      CODE     ---       #172
      01000A98H   LINE      CODE     ---       #173
      01000A98H   LINE      CODE     ---       #174
      01000A98H   LINE      CODE     ---       #175
LX51 LINKER/LOCATER V4.66.1.0                                                         09/08/2023  16:42:41  PAGE 60


      01000A98H   LINE      CODE     ---       #176
      ---         BLOCKEND  ---      ---       LVL=0

      01000A99H   BLOCK     CODE     ---       LVL=0
      00000007H   SYMBOL    DATA     BYTE      ChannelNum
      00000004H   SYMBOL    DATA     WORD      Duty
      01000A99H   LINE      CODE     ---       #185
      01000A99H   LINE      CODE     ---       #186
      01000A99H   LINE      CODE     ---       #187
      01000AADH   LINE      CODE     ---       #188
      01000AADH   LINE      CODE     ---       #189
      01000AADH   LINE      CODE     ---       #190
      01000AB2H   LINE      CODE     ---       #191
      01000AB7H   LINE      CODE     ---       #192
      01000ABEH   LINE      CODE     ---       #193
      01000ABFH   LINE      CODE     ---       #194
      01000ABFH   LINE      CODE     ---       #195
      01000AC4H   LINE      CODE     ---       #196
      01000AC9H   LINE      CODE     ---       #197
      01000AD0H   LINE      CODE     ---       #198
      01000AD1H   LINE      CODE     ---       #199
      01000AD1H   LINE      CODE     ---       #200
      01000AD6H   LINE      CODE     ---       #201
      01000ADBH   LINE      CODE     ---       #202
      01000AE2H   LINE      CODE     ---       #203
      01000AE3H   LINE      CODE     ---       #204
      01000AE3H   LINE      CODE     ---       #205
      01000AE8H   LINE      CODE     ---       #206
      01000AEDH   LINE      CODE     ---       #207
      01000AF4H   LINE      CODE     ---       #208
      01000AF5H   LINE      CODE     ---       #209
      01000AF5H   LINE      CODE     ---       #210
      01000AFAH   LINE      CODE     ---       #211
      01000AFFH   LINE      CODE     ---       #212
      01000B06H   LINE      CODE     ---       #213
      01000B07H   LINE      CODE     ---       #214
      01000B07H   LINE      CODE     ---       #215
      01000B0CH   LINE      CODE     ---       #216
      01000B11H   LINE      CODE     ---       #217
      01000B18H   LINE      CODE     ---       #218
      01000B18H   LINE      CODE     ---       #219
      01000B18H   LINE      CODE     ---       #220
      01000B18H   LINE      CODE     ---       #221
      01000B18H   LINE      CODE     ---       #222
      ---         BLOCKEND  ---      ---       LVL=0

      010007ABH   BLOCK     CODE     ---       LVL=0
      00000007H   SYMBOL    DATA     BYTE      ChannelNum
      00000004H   SYMBOL    DATA     WORD      UpCmp
      00000002H   SYMBOL    DATA     WORD      DowmCmp
      010007ABH   LINE      CODE     ---       #231
      010007ABH   LINE      CODE     ---       #232
      010007ABH   LINE      CODE     ---       #233
      010007C5H   LINE      CODE     ---       #234
      010007C5H   LINE      CODE     ---       #235
      010007C5H   LINE      CODE     ---       #236
      010007CAH   LINE      CODE     ---       #237
      010007CFH   LINE      CODE     ---       #238
      010007D4H   LINE      CODE     ---       #239
      010007D9H   LINE      CODE     ---       #240
      010007E0H   LINE      CODE     ---       #241
      010007E1H   LINE      CODE     ---       #242
      010007E1H   LINE      CODE     ---       #243
      010007E6H   LINE      CODE     ---       #244
      010007EBH   LINE      CODE     ---       #245
LX51 LINKER/LOCATER V4.66.1.0                                                         09/08/2023  16:42:41  PAGE 61


      010007F0H   LINE      CODE     ---       #246
      010007F5H   LINE      CODE     ---       #247
      010007FCH   LINE      CODE     ---       #248
      010007FDH   LINE      CODE     ---       #249
      010007FDH   LINE      CODE     ---       #250
      01000802H   LINE      CODE     ---       #251
      01000807H   LINE      CODE     ---       #252
      0100080CH   LINE      CODE     ---       #253
      01000811H   LINE      CODE     ---       #254
      01000818H   LINE      CODE     ---       #255
      01000819H   LINE      CODE     ---       #256
      01000819H   LINE      CODE     ---       #257
      0100081EH   LINE      CODE     ---       #258
      01000823H   LINE      CODE     ---       #259
      01000828H   LINE      CODE     ---       #260
      0100082DH   LINE      CODE     ---       #261
      01000834H   LINE      CODE     ---       #262
      01000835H   LINE      CODE     ---       #263
      01000835H   LINE      CODE     ---       #264
      0100083AH   LINE      CODE     ---       #265
      0100083FH   LINE      CODE     ---       #266
      01000844H   LINE      CODE     ---       #267
      01000849H   LINE      CODE     ---       #268
      01000850H   LINE      CODE     ---       #269
      01000851H   LINE      CODE     ---       #270
      01000851H   LINE      CODE     ---       #271
      01000856H   LINE      CODE     ---       #272
      0100085BH   LINE      CODE     ---       #273
      01000860H   LINE      CODE     ---       #274
      01000865H   LINE      CODE     ---       #275
      0100086CH   LINE      CODE     ---       #276
      0100086CH   LINE      CODE     ---       #277
      0100086CH   LINE      CODE     ---       #278
      0100086CH   LINE      CODE     ---       #279
      0100086CH   LINE      CODE     ---       #280
      ---         BLOCKEND  ---      ---       LVL=0

      01001C12H   BLOCK     CODE     ---       LVL=0
      00000007H   SYMBOL    DATA     BYTE      ChannelMask
      01001C12H   LINE      CODE     ---       #288
      01001C12H   LINE      CODE     ---       #289
      01001C12H   LINE      CODE     ---       #290
      01001C1DH   LINE      CODE     ---       #291
      ---         BLOCKEND  ---      ---       LVL=0

      01001F34H   BLOCK     CODE     ---       LVL=0
      00000007H   SYMBOL    DATA     BYTE      ChannelMask
      01001F34H   LINE      CODE     ---       #299
      01001F34H   LINE      CODE     ---       #300
      01001F34H   LINE      CODE     ---       #301
      01001F3AH   LINE      CODE     ---       #302
      ---         BLOCKEND  ---      ---       LVL=0

      01001F3BH   BLOCK     CODE     ---       LVL=0
      00000007H   SYMBOL    DATA     BYTE      ChannelMask
      01001F3BH   LINE      CODE     ---       #310
      01001F3BH   LINE      CODE     ---       #311
      01001F3BH   LINE      CODE     ---       #312
      01001F41H   LINE      CODE     ---       #313
      ---         BLOCKEND  ---      ---       LVL=0

      01001C1EH   BLOCK     CODE     ---       LVL=0
      00000007H   SYMBOL    DATA     BYTE      ChannelMask
      01001C1EH   LINE      CODE     ---       #321
      01001C1EH   LINE      CODE     ---       #322
LX51 LINKER/LOCATER V4.66.1.0                                                         09/08/2023  16:42:41  PAGE 62


      01001C1EH   LINE      CODE     ---       #323
      01001C29H   LINE      CODE     ---       #324
      ---         BLOCKEND  ---      ---       LVL=0

      01001F42H   BLOCK     CODE     ---       LVL=0
      00000007H   SYMBOL    DATA     BYTE      ChannelMask
      01001F42H   LINE      CODE     ---       #333
      01001F42H   LINE      CODE     ---       #334
      01001F42H   LINE      CODE     ---       #335
      01001F48H   LINE      CODE     ---       #336
      ---         BLOCKEND  ---      ---       LVL=0

      01001C2AH   BLOCK     CODE     ---       LVL=0
      00000007H   SYMBOL    DATA     BYTE      ChannelMask
      01001C2AH   LINE      CODE     ---       #344
      01001C2AH   LINE      CODE     ---       #345
      01001C2AH   LINE      CODE     ---       #346
      01001C35H   LINE      CODE     ---       #347
      ---         BLOCKEND  ---      ---       LVL=0

      01001083H   BLOCK     CODE     ---       LVL=0
      00000007H   SYMBOL    DATA     BYTE      BrakeSource
      00000005H   SYMBOL    DATA     BYTE      CountMode
      01001083H   BLOCK     CODE     NEAR LAB  LVL=1
      00000006H   SYMBOL    DATA     BYTE      Temp
      ---         BLOCKEND  ---      ---       LVL=1
      01001083H   LINE      CODE     ---       #361
      01001083H   LINE      CODE     ---       #362
      01001083H   LINE      CODE     ---       #363
      01001083H   LINE      CODE     ---       #365
      01001088H   LINE      CODE     ---       #366
      0100108BH   LINE      CODE     ---       #367
      0100108EH   LINE      CODE     ---       #368
      01001090H   LINE      CODE     ---       #369
      0100109FH   LINE      CODE     ---       #370
      0100109FH   LINE      CODE     ---       #371
      0100109FH   LINE      CODE     ---       #372
      010010A6H   LINE      CODE     ---       #373
      010010A7H   LINE      CODE     ---       #374
      010010A7H   LINE      CODE     ---       #375
      010010AEH   LINE      CODE     ---       #376
      010010AFH   LINE      CODE     ---       #377
      010010AFH   LINE      CODE     ---       #378
      010010B6H   LINE      CODE     ---       #379
      010010B7H   LINE      CODE     ---       #380
      010010B7H   LINE      CODE     ---       #381
      010010BAH   LINE      CODE     ---       #382
      010010BAH   LINE      CODE     ---       #383
      010010BAH   LINE      CODE     ---       #384
      010010BAH   LINE      CODE     ---       #385
      010010BAH   LINE      CODE     ---       #386
      010010BAH   LINE      CODE     ---       #387
      010010BAH   LINE      CODE     ---       #388
      ---         BLOCKEND  ---      ---       LVL=0

      0100129BH   BLOCK     CODE     ---       LVL=0
      00000007H   SYMBOL    DATA     BYTE      BrakeSource
      0100129BH   LINE      CODE     ---       #400
      0100129BH   LINE      CODE     ---       #401
      0100129BH   LINE      CODE     ---       #402
      010012AAH   LINE      CODE     ---       #403
      010012AAH   LINE      CODE     ---       #404
      010012AAH   LINE      CODE     ---       #405
      010012B1H   LINE      CODE     ---       #406
      010012B2H   LINE      CODE     ---       #407
LX51 LINKER/LOCATER V4.66.1.0                                                         09/08/2023  16:42:41  PAGE 63


      010012B2H   LINE      CODE     ---       #408
      010012B9H   LINE      CODE     ---       #409
      010012BAH   LINE      CODE     ---       #410
      010012BAH   LINE      CODE     ---       #411
      010012C1H   LINE      CODE     ---       #412
      010012C2H   LINE      CODE     ---       #413
      010012C2H   LINE      CODE     ---       #414
      010012C5H   LINE      CODE     ---       #415
      010012C5H   LINE      CODE     ---       #416
      010012C5H   LINE      CODE     ---       #417
      010012C5H   LINE      CODE     ---       #418
      010012C5H   LINE      CODE     ---       #419
      010012C5H   LINE      CODE     ---       #420
      010012C5H   LINE      CODE     ---       #421
      ---         BLOCKEND  ---      ---       LVL=0

      01001A0DH   BLOCK     CODE     ---       LVL=0
      00000007H   SYMBOL    DATA     BYTE      ChannelMask
      00000005H   SYMBOL    DATA     BYTE      BrakeLevel
      01001A0DH   LINE      CODE     ---       #430
      01001A0DH   LINE      CODE     ---       #431
      01001A0DH   LINE      CODE     ---       #432
      01001A14H   LINE      CODE     ---       #433
      01001A14H   LINE      CODE     ---       #434
      01001A16H   LINE      CODE     ---       #435
      01001A17H   LINE      CODE     ---       #437
      01001A17H   LINE      CODE     ---       #438
      01001A1EH   LINE      CODE     ---       #439
      01001A1EH   LINE      CODE     ---       #440
      ---         BLOCKEND  ---      ---       LVL=0

      0100104AH   BLOCK     CODE     ---       LVL=0
      00000007H   SYMBOL    DATA     BYTE      Channel
      00000005H   SYMBOL    DATA     BYTE      DeadTime
      0100104AH   LINE      CODE     ---       #449
      0100104AH   LINE      CODE     ---       #450
      0100104AH   LINE      CODE     ---       #451
      0100105EH   LINE      CODE     ---       #452
      0100105EH   LINE      CODE     ---       #453
      0100105EH   LINE      CODE     ---       #454
      0100105EH   LINE      CODE     ---       #455
      01001065H   LINE      CODE     ---       #456
      01001068H   LINE      CODE     ---       #457
      01001069H   LINE      CODE     ---       #458
      01001069H   LINE      CODE     ---       #459
      01001069H   LINE      CODE     ---       #460
      01001070H   LINE      CODE     ---       #461
      01001075H   LINE      CODE     ---       #462
      01001076H   LINE      CODE     ---       #463
      01001076H   LINE      CODE     ---       #464
      01001076H   LINE      CODE     ---       #465
      0100107DH   LINE      CODE     ---       #466
      01001082H   LINE      CODE     ---       #467
      01001082H   LINE      CODE     ---       #468
      01001082H   LINE      CODE     ---       #469
      01001082H   LINE      CODE     ---       #470
      01001082H   LINE      CODE     ---       #471
      ---         BLOCKEND  ---      ---       LVL=0

      01001244H   BLOCK     CODE     ---       LVL=0
      00000007H   SYMBOL    DATA     BYTE      Channel
      01001244H   LINE      CODE     ---       #479
      01001244H   LINE      CODE     ---       #480
      01001244H   LINE      CODE     ---       #481
      01001258H   LINE      CODE     ---       #482
LX51 LINKER/LOCATER V4.66.1.0                                                         09/08/2023  16:42:41  PAGE 64


      01001258H   LINE      CODE     ---       #483
      01001258H   LINE      CODE     ---       #484
      01001258H   LINE      CODE     ---       #485
      0100125FH   LINE      CODE     ---       #486
      01001260H   LINE      CODE     ---       #487
      01001260H   LINE      CODE     ---       #488
      01001260H   LINE      CODE     ---       #489
      01001267H   LINE      CODE     ---       #490
      01001268H   LINE      CODE     ---       #491
      01001268H   LINE      CODE     ---       #492
      01001268H   LINE      CODE     ---       #493
      0100126FH   LINE      CODE     ---       #494
      0100126FH   LINE      CODE     ---       #495
      0100126FH   LINE      CODE     ---       #496
      0100126FH   LINE      CODE     ---       #497
      0100126FH   LINE      CODE     ---       #498
      ---         BLOCKEND  ---      ---       LVL=0

      01001806H   BLOCK     CODE     ---       LVL=0
      00000007H   SYMBOL    DATA     BYTE      ChannelMask
      00000005H   SYMBOL    DATA     BYTE      MaskLevel
      01001806H   LINE      CODE     ---       #507
      01001806H   LINE      CODE     ---       #508
      01001806H   LINE      CODE     ---       #509
      0100180DH   LINE      CODE     ---       #510
      0100180DH   LINE      CODE     ---       #511
      0100180FH   LINE      CODE     ---       #512
      01001811H   LINE      CODE     ---       #514
      01001811H   LINE      CODE     ---       #515
      01001818H   LINE      CODE     ---       #516
      01001818H   LINE      CODE     ---       #518
      0100181EH   LINE      CODE     ---       #519
      ---         BLOCKEND  ---      ---       LVL=0

      01001C36H   BLOCK     CODE     ---       LVL=0
      00000007H   SYMBOL    DATA     BYTE      ChannelMask
      01001C36H   LINE      CODE     ---       #527
      01001C36H   LINE      CODE     ---       #528
      01001C36H   LINE      CODE     ---       #529
      01001C41H   LINE      CODE     ---       #530
      ---         BLOCKEND  ---      ---       LVL=0

      01001F49H   BLOCK     CODE     ---       LVL=0
      00000007H   SYMBOL    DATA     BYTE      ChannelMask
      01001F49H   LINE      CODE     ---       #538
      01001F49H   LINE      CODE     ---       #539
      01001F49H   LINE      CODE     ---       #540
      01001F4FH   LINE      CODE     ---       #541
      ---         BLOCKEND  ---      ---       LVL=0

      01001C42H   BLOCK     CODE     ---       LVL=0
      00000007H   SYMBOL    DATA     BYTE      ChannelMask
      01001C42H   LINE      CODE     ---       #549
      01001C42H   LINE      CODE     ---       #550
      01001C42H   LINE      CODE     ---       #551
      01001C4DH   LINE      CODE     ---       #552
      ---         BLOCKEND  ---      ---       LVL=0

      010014DDH   BLOCK     CODE     ---       LVL=0
      00000007H   SYMBOL    DATA     BYTE      ChannelNum
      010014DDH   LINE      CODE     ---       #561
      010014DDH   LINE      CODE     ---       #562
      010014DDH   LINE      CODE     ---       #563
      010014FBH   LINE      CODE     ---       #565
      ---         BLOCKEND  ---      ---       LVL=0
LX51 LINKER/LOCATER V4.66.1.0                                                         09/08/2023  16:42:41  PAGE 65



      01001A30H   BLOCK     CODE     ---       LVL=0
      00000007H   SYMBOL    DATA     BYTE      ChannelNum
      01001A30H   LINE      CODE     ---       #573
      01001A30H   LINE      CODE     ---       #574
      01001A30H   LINE      CODE     ---       #575
      01001A40H   LINE      CODE     ---       #576
      ---         BLOCKEND  ---      ---       LVL=0

      01001F50H   BLOCK     CODE     ---       LVL=0
      00000007H   SYMBOL    DATA     BYTE      ChannelMask
      01001F50H   LINE      CODE     ---       #584
      01001F50H   LINE      CODE     ---       #585
      01001F50H   LINE      CODE     ---       #586
      01001F56H   LINE      CODE     ---       #587
      ---         BLOCKEND  ---      ---       LVL=0

      01001C4EH   BLOCK     CODE     ---       LVL=0
      00000007H   SYMBOL    DATA     BYTE      ChannelMask
      01001C4EH   LINE      CODE     ---       #595
      01001C4EH   LINE      CODE     ---       #596
      01001C4EH   LINE      CODE     ---       #597
      01001C59H   LINE      CODE     ---       #598
      ---         BLOCKEND  ---      ---       LVL=0

      010014FCH   BLOCK     CODE     ---       LVL=0
      00000007H   SYMBOL    DATA     BYTE      ChannelNum
      010014FCH   LINE      CODE     ---       #607
      010014FCH   LINE      CODE     ---       #608
      010014FCH   LINE      CODE     ---       #609
      0100151AH   LINE      CODE     ---       #610
      ---         BLOCKEND  ---      ---       LVL=0

      01001A41H   BLOCK     CODE     ---       LVL=0
      00000007H   SYMBOL    DATA     BYTE      ChannelNum
      01001A41H   LINE      CODE     ---       #618
      01001A41H   LINE      CODE     ---       #619
      01001A41H   LINE      CODE     ---       #620
      01001A51H   LINE      CODE     ---       #621
      ---         BLOCKEND  ---      ---       LVL=0

      01001F57H   BLOCK     CODE     ---       LVL=0
      00000007H   SYMBOL    DATA     BYTE      ChannelMask
      01001F57H   LINE      CODE     ---       #629
      01001F57H   LINE      CODE     ---       #630
      01001F57H   LINE      CODE     ---       #631
      01001F5DH   LINE      CODE     ---       #632
      ---         BLOCKEND  ---      ---       LVL=0

      01001C5AH   BLOCK     CODE     ---       LVL=0
      00000007H   SYMBOL    DATA     BYTE      ChannelMask
      01001C5AH   LINE      CODE     ---       #640
      01001C5AH   LINE      CODE     ---       #641
      01001C5AH   LINE      CODE     ---       #642
      01001C65H   LINE      CODE     ---       #643
      ---         BLOCKEND  ---      ---       LVL=0

      01001A52H   BLOCK     CODE     ---       LVL=0
      00000007H   SYMBOL    DATA     BYTE      ChannelNum
      01001A52H   LINE      CODE     ---       #651
      01001A52H   LINE      CODE     ---       #652
      01001A52H   LINE      CODE     ---       #653
      01001A62H   LINE      CODE     ---       #654
      ---         BLOCKEND  ---      ---       LVL=0

LX51 LINKER/LOCATER V4.66.1.0                                                         09/08/2023  16:42:41  PAGE 66


      0100151BH   BLOCK     CODE     ---       LVL=0
      00000007H   SYMBOL    DATA     BYTE      ChannelNum
      0100151BH   LINE      CODE     ---       #663
      0100151BH   LINE      CODE     ---       #664
      0100151BH   LINE      CODE     ---       #665
      01001539H   LINE      CODE     ---       #666
      ---         BLOCKEND  ---      ---       LVL=0

      01001F5EH   BLOCK     CODE     ---       LVL=0
      00000007H   SYMBOL    DATA     BYTE      ChannelMask
      01001F5EH   LINE      CODE     ---       #675
      01001F5EH   LINE      CODE     ---       #676
      01001F5EH   LINE      CODE     ---       #677
      01001F64H   LINE      CODE     ---       #678
      ---         BLOCKEND  ---      ---       LVL=0

      01001C66H   BLOCK     CODE     ---       LVL=0
      00000007H   SYMBOL    DATA     BYTE      ChannelMask
      01001C66H   LINE      CODE     ---       #686
      01001C66H   LINE      CODE     ---       #687
      01001C66H   LINE      CODE     ---       #688
      01001C71H   LINE      CODE     ---       #689
      ---         BLOCKEND  ---      ---       LVL=0

      01001A63H   BLOCK     CODE     ---       LVL=0
      00000007H   SYMBOL    DATA     BYTE      ChannelNum
      01001A63H   LINE      CODE     ---       #697
      01001A63H   LINE      CODE     ---       #698
      01001A63H   LINE      CODE     ---       #699
      01001A73H   LINE      CODE     ---       #700
      ---         BLOCKEND  ---      ---       LVL=0

      0100153AH   BLOCK     CODE     ---       LVL=0
      00000007H   SYMBOL    DATA     BYTE      ChannelNum
      0100153AH   LINE      CODE     ---       #709
      0100153AH   LINE      CODE     ---       #710
      0100153AH   LINE      CODE     ---       #711
      01001558H   LINE      CODE     ---       #712
      ---         BLOCKEND  ---      ---       LVL=0

      01001C72H   BLOCK     CODE     ---       LVL=0
      01001C72H   LINE      CODE     ---       #720
      01001C72H   LINE      CODE     ---       #721
      01001C72H   LINE      CODE     ---       #722
      01001C79H   LINE      CODE     ---       #723
      01001C7DH   LINE      CODE     ---       #725
      ---         BLOCKEND  ---      ---       LVL=0

      01001E6DH   BLOCK     CODE     ---       LVL=0
      01001E6DH   LINE      CODE     ---       #733
      01001E6DH   LINE      CODE     ---       #734
      01001E6DH   LINE      CODE     ---       #735
      01001E74H   LINE      CODE     ---       #736
      ---         BLOCKEND  ---      ---       LVL=0

      01001C7EH   BLOCK     CODE     ---       LVL=0
      01001C7EH   LINE      CODE     ---       #745
      01001C7EH   LINE      CODE     ---       #746
      01001C7EH   LINE      CODE     ---       #747
      01001C89H   LINE      CODE     ---       #748
      ---         BLOCKEND  ---      ---       LVL=0

      01001E75H   BLOCK     CODE     ---       LVL=0
      01001E75H   LINE      CODE     ---       #756
      01001E75H   LINE      CODE     ---       #757
LX51 LINKER/LOCATER V4.66.1.0                                                         09/08/2023  16:42:41  PAGE 67


      01001E75H   LINE      CODE     ---       #758
      01001E7CH   LINE      CODE     ---       #759
      ---         BLOCKEND  ---      ---       LVL=0

      01001F65H   BLOCK     CODE     ---       LVL=0
      00000007H   SYMBOL    DATA     BYTE      ChannelMask
      01001F65H   LINE      CODE     ---       #769
      01001F65H   LINE      CODE     ---       #770
      01001F65H   LINE      CODE     ---       #771
      01001F6BH   LINE      CODE     ---       #772
      ---         BLOCKEND  ---      ---       LVL=0

      01001C8AH   BLOCK     CODE     ---       LVL=0
      00000007H   SYMBOL    DATA     BYTE      ChannelMask
      01001C8AH   LINE      CODE     ---       #780
      01001C8AH   LINE      CODE     ---       #781
      01001C8AH   LINE      CODE     ---       #782
      01001C95H   LINE      CODE     ---       #783
      ---         BLOCKEND  ---      ---       LVL=0

      01001E7DH   BLOCK     CODE     ---       LVL=0
      01001E7DH   LINE      CODE     ---       #791
      01001E7DH   LINE      CODE     ---       #792
      01001E7DH   LINE      CODE     ---       #793
      01001E84H   LINE      CODE     ---       #794
      ---         BLOCKEND  ---      ---       LVL=0

      01001E85H   BLOCK     CODE     ---       LVL=0
      01001E85H   LINE      CODE     ---       #802
      01001E85H   LINE      CODE     ---       #803
      01001E85H   LINE      CODE     ---       #804
      01001E8CH   LINE      CODE     ---       #805
      ---         BLOCKEND  ---      ---       LVL=0

      01001B3BH   BLOCK     CODE     ---       LVL=0
      00000007H   SYMBOL    DATA     BYTE      FBBrakeLevel
      01001B3BH   BLOCK     CODE     NEAR LAB  LVL=1
      00000006H   SYMBOL    DATA     BYTE      Temp
      ---         BLOCKEND  ---      ---       LVL=1
      01001B3BH   LINE      CODE     ---       #814
      01001B3BH   LINE      CODE     ---       #815
      01001B3BH   LINE      CODE     ---       #816
      01001B3BH   LINE      CODE     ---       #818
      01001B40H   LINE      CODE     ---       #819
      01001B43H   LINE      CODE     ---       #820
      01001B46H   LINE      CODE     ---       #821
      01001B48H   LINE      CODE     ---       #822
      ---         BLOCKEND  ---      ---       LVL=0

      01000076H   BLOCK     CODE     ---       LVL=0
      01000076H   LINE      CODE     ---       #830
      01000076H   LINE      CODE     ---       #831
      01000076H   LINE      CODE     ---       #832
      01000079H   LINE      CODE     ---       #833
      ---         BLOCKEND  ---      ---       LVL=0

      0100007EH   BLOCK     CODE     ---       LVL=0
      0100007EH   LINE      CODE     ---       #841
      0100007EH   LINE      CODE     ---       #842
      0100007EH   LINE      CODE     ---       #843
      01000081H   LINE      CODE     ---       #844
      ---         BLOCKEND  ---      ---       LVL=0

      ---         MODULE    ---      ---       EXTINT
      01001D44H   PUBLIC    CODE     ---       _EXTINT_ClearIntFlag
LX51 LINKER/LOCATER V4.66.1.0                                                         09/08/2023  16:42:41  PAGE 68


      01001559H   PUBLIC    CODE     ---       _EXTINT_GetIntFlag
      01001D39H   PUBLIC    CODE     ---       _EXTINT_DisableInt
      01001D2EH   PUBLIC    CODE     ---       _EXTINT_EnableInt
      0100172EH   PUBLIC    CODE     ---       _EXTINT_ConfigInt
      000000C8H   SFRSYM    DATA     BIT       T2I0
      000000C3H   SFRSYM    DATA     BYTE      CCH1
      00000080H   SFRSYM    DATA     BYTE      P0
      000000C8H.1 SFRSYM    DATA     BIT       T2I1
      000000C5H   SFRSYM    DATA     BYTE      CCH2
      00000090H   SFRSYM    DATA     BYTE      P1
      000000C7H   SFRSYM    DATA     BYTE      CCH3
      000000ACH   SFRSYM    DATA     BYTE      P0EXTIE
      000000A0H   SFRSYM    DATA     BYTE      P2
      000000B4H   SFRSYM    DATA     BYTE      P0EXTIF
      000000B0H   SFRSYM    DATA     BYTE      P3
      000000ADH   SFRSYM    DATA     BYTE      P1EXTIE
      000000D0H.6 SFRSYM    DATA     BIT       AC
      000000FFH   SFRSYM    DATA     BYTE      MCTRL
      000000C2H   SFRSYM    DATA     BYTE      CCL1
      000000B5H   SFRSYM    DATA     BYTE      P1EXTIF
      000000AEH   SFRSYM    DATA     BYTE      P2EXTIE
      000000C4H   SFRSYM    DATA     BYTE      CCL2
      000000B6H   SFRSYM    DATA     BYTE      P2EXTIF
      000000AFH   SFRSYM    DATA     BYTE      P3EXTIE
      000000A8H.7 SFRSYM    DATA     BIT       EA
      000000C6H   SFRSYM    DATA     BYTE      CCL3
      000000B7H   SFRSYM    DATA     BYTE      P3EXTIF
      000000AAH   SFRSYM    DATA     BYTE      EIE2
      000000B2H   SFRSYM    DATA     BYTE      EIF2
      000000C8H.3 SFRSYM    DATA     BIT       T2R0
      000000C8H.4 SFRSYM    DATA     BIT       T2R1
      00000083H   SFRSYM    DATA     BYTE      DPH0
      000000A8H   SFRSYM    DATA     BYTE      IE
      00000085H   SFRSYM    DATA     BYTE      DPH1
      000000B9H   SFRSYM    DATA     BYTE      EIP1
      000000BAH   SFRSYM    DATA     BYTE      EIP2
      00000082H   SFRSYM    DATA     BYTE      DPL0
      00000084H   SFRSYM    DATA     BYTE      DPL1
      000000C8H.6 SFRSYM    DATA     BIT       I3FR
      000000CFH   SFRSYM    DATA     BYTE      T2IE
      00000096H   SFRSYM    DATA     BYTE      TA
      000000C9H   SFRSYM    DATA     BYTE      T2IF
      000000C8H.2 SFRSYM    DATA     BIT       T2CM
      000000DFH   SFRSYM    DATA     BYTE      ADCON0
      000000DEH   SFRSYM    DATA     BYTE      ADCON1
      000000E9H   SFRSYM    DATA     BYTE      ADCON2
      000000B8H   SFRSYM    DATA     BYTE      IP
      000000CEH   SFRSYM    DATA     BYTE      CCEN
      000000D0H.7 SFRSYM    DATA     BIT       CY
      000000D2H   SFRSYM    DATA     BYTE      T34MOD
      00000093H   SFRSYM    DATA     BYTE      DPX0
      00000095H   SFRSYM    DATA     BYTE      DPX1
      000000F4H   SFRSYM    DATA     BYTE      I2CMSA
      000000F5H   SFRSYM    DATA     BYTE      I2CMCR
      00000081H   SFRSYM    DATA     BYTE      SP
      000000D0H.2 SFRSYM    DATA     BIT       OV
      000000F2H   SFRSYM    DATA     BYTE      I2CSCR
      000000C8H.7 SFRSYM    DATA     BIT       T2PS
      000000D1H   SFRSYM    DATA     BYTE      ADCMPC
      000000CBH   SFRSYM    DATA     BYTE      RLDH
      000000D5H   SFRSYM    DATA     BYTE      ADCMPH
      000000CAH   SFRSYM    DATA     BYTE      RLDL
      00000080H   SFRSYM    DATA     BIT       P00
      00000090H   SFRSYM    DATA     BIT       P10
      00000080H.1 SFRSYM    DATA     BIT       P01
LX51 LINKER/LOCATER V4.66.1.0                                                         09/08/2023  16:42:41  PAGE 69


      000000F7H   SFRSYM    DATA     BYTE      I2CMTP
      00000099H   SFRSYM    DATA     BYTE      SBUF
      00000087H   SFRSYM    DATA     BYTE      PCON
      000000A0H   SFRSYM    DATA     BIT       P20
      00000090H.1 SFRSYM    DATA     BIT       P11
      00000080H.2 SFRSYM    DATA     BIT       P02
      000000F5H   SFRSYM    DATA     BYTE      I2CMSR
      000000B0H   SFRSYM    DATA     BIT       P30
      000000A0H.1 SFRSYM    DATA     BIT       P21
      00000090H.2 SFRSYM    DATA     BIT       P12
      00000080H.3 SFRSYM    DATA     BIT       P03
      000000D4H   SFRSYM    DATA     BYTE      ADCMPL
      000000B0H.1 SFRSYM    DATA     BIT       P31
      000000A0H.2 SFRSYM    DATA     BIT       P22
      00000090H.3 SFRSYM    DATA     BIT       P13
      00000080H.4 SFRSYM    DATA     BIT       P04
      000000B0H.2 SFRSYM    DATA     BIT       P32
      000000A0H.3 SFRSYM    DATA     BIT       P23
      00000090H.4 SFRSYM    DATA     BIT       P14
      00000080H.5 SFRSYM    DATA     BIT       P05
      00000089H   SFRSYM    DATA     BYTE      TMOD
      00000088H   SFRSYM    DATA     BYTE      TCON
      000000B0H.3 SFRSYM    DATA     BIT       P33
      000000A0H.4 SFRSYM    DATA     BIT       P24
      00000090H.5 SFRSYM    DATA     BIT       P15
      00000080H.6 SFRSYM    DATA     BIT       P06
      000000B0H.4 SFRSYM    DATA     BIT       P34
      000000A0H.5 SFRSYM    DATA     BIT       P25
      00000090H.6 SFRSYM    DATA     BIT       P16
      00000080H.7 SFRSYM    DATA     BIT       P07
      000000B0H.5 SFRSYM    DATA     BIT       P35
      000000A0H.6 SFRSYM    DATA     BIT       P26
      00000090H.7 SFRSYM    DATA     BIT       P17
      000000F2H   SFRSYM    DATA     BYTE      I2CSSR
      000000B0H.6 SFRSYM    DATA     BIT       P36
      000000A0H.7 SFRSYM    DATA     BIT       P27
      000000ECH   SFRSYM    DATA     BYTE      SPCR
      000000DDH   SFRSYM    DATA     BYTE      ADRESH
      000000B0H.7 SFRSYM    DATA     BIT       P37
      000000EEH   SFRSYM    DATA     BYTE      SPDR
      000000EFH   SFRSYM    DATA     BYTE      SSCR
      000000D3H   SFRSYM    DATA     BYTE      ADDLYL
      000000DCH   SFRSYM    DATA     BYTE      ADRESL
      00000088H.1 SFRSYM    DATA     BIT       IE0
      00000088H.3 SFRSYM    DATA     BIT       IE1
      0000008FH   SFRSYM    DATA     BYTE      CLKDIV
      000000F0H   SFRSYM    DATA     BYTE      B
      00000091H   SFRSYM    DATA     BYTE      FUNCCR
      0000009AH   SFRSYM    DATA     BYTE      P0TRIS
      000000A1H   SFRSYM    DATA     BYTE      P1TRIS
      000000A2H   SFRSYM    DATA     BYTE      P2TRIS
      000000E0H   SFRSYM    DATA     BYTE      ACC
      000000A3H   SFRSYM    DATA     BYTE      P3TRIS
      000000A8H.4 SFRSYM    DATA     BIT       ES0
      000000A8H.6 SFRSYM    DATA     BIT       ES1
      000000A8H.1 SFRSYM    DATA     BIT       ET0
      000000EDH   SFRSYM    DATA     BYTE      SPSR
      000000A8H.3 SFRSYM    DATA     BIT       ET1
      00000088H.5 SFRSYM    DATA     BIT       TF0
      000000A8H.5 SFRSYM    DATA     BIT       ET2
      00000098H   SFRSYM    DATA     BIT       RI0
      00000088H.7 SFRSYM    DATA     BIT       TF1
      0000008CH   SFRSYM    DATA     BYTE      TH0
      000000A8H   SFRSYM    DATA     BIT       EX0
      00000098H.1 SFRSYM    DATA     BIT       TI0
LX51 LINKER/LOCATER V4.66.1.0                                                         09/08/2023  16:42:41  PAGE 70


      00000088H   SFRSYM    DATA     BIT       IT0
      0000008DH   SFRSYM    DATA     BYTE      TH1
      000000A8H.2 SFRSYM    DATA     BIT       EX1
      00000088H.2 SFRSYM    DATA     BIT       IT1
      000000CDH   SFRSYM    DATA     BYTE      TH2
      000000D0H   SFRSYM    DATA     BIT       P
      000000DBH   SFRSYM    DATA     BYTE      TH3
      000000E3H   SFRSYM    DATA     BYTE      TH4
      0000008AH   SFRSYM    DATA     BYTE      TL0
      0000008BH   SFRSYM    DATA     BYTE      TL1
      00000098H.2 SFRSYM    DATA     BIT       U0RB8
      000000CCH   SFRSYM    DATA     BYTE      TL2
      000000B8H.4 SFRSYM    DATA     BIT       PS0
      000000DAH   SFRSYM    DATA     BYTE      TL3
      000000BFH   SFRSYM    DATA     BYTE      BUZCON
      000000B8H.6 SFRSYM    DATA     BIT       PS1
      000000B8H.1 SFRSYM    DATA     BIT       PT0
      00000098H.3 SFRSYM    DATA     BIT       U0TB8
      000000E2H   SFRSYM    DATA     BYTE      TL4
      000000D0H.3 SFRSYM    DATA     BIT       RS0
      000000B8H.3 SFRSYM    DATA     BIT       PT1
      000000D0H.4 SFRSYM    DATA     BIT       RS1
      000000B8H.5 SFRSYM    DATA     BIT       PT2
      00000098H.7 SFRSYM    DATA     BIT       U0SM0
      00000088H.4 SFRSYM    DATA     BIT       TR0
      000000BEH   SFRSYM    DATA     BYTE      BUZDIV
      00000098H.6 SFRSYM    DATA     BIT       U0SM1
      00000088H.6 SFRSYM    DATA     BIT       TR1
      000000B8H   SFRSYM    DATA     BIT       PX0
      00000098H.5 SFRSYM    DATA     BIT       U0SM2
      000000B8H.2 SFRSYM    DATA     BIT       PX1
      000000BDH   SFRSYM    DATA     BYTE      WUTCRH
      00000099H   SFRSYM    DATA     BYTE      SBUF0
      000000EBH   SFRSYM    DATA     BYTE      SBUF1
      000000BCH   SFRSYM    DATA     BYTE      WUTCRL
      00000098H   SFRSYM    DATA     BYTE      SCON0
      000000EAH   SFRSYM    DATA     BYTE      SCON1
      000000C8H   SFRSYM    DATA     BYTE      T2CON
      00000086H   SFRSYM    DATA     BYTE      DPS
      000000FEH   SFRSYM    DATA     BYTE      MDATA
      000000F6H   SFRSYM    DATA     BYTE      I2CMBUF
      000000F1H   SFRSYM    DATA     BYTE      I2CSADR
      00000098H.4 SFRSYM    DATA     BIT       U0REN
      000000C8H.5 SFRSYM    DATA     BIT       CAPES
      000000FDH   SFRSYM    DATA     BYTE      MADRH
      0000008EH   SFRSYM    DATA     BYTE      CKCON
      000000F3H   SFRSYM    DATA     BYTE      I2CSBUF
      000000FCH   SFRSYM    DATA     BYTE      MADRL
      000000D0H.5 SFRSYM    DATA     BIT       F0
      000000FBH   SFRSYM    DATA     BYTE      MLOCK
      000000D0H   SFRSYM    DATA     BYTE      PSW
      00000097H   SFRSYM    DATA     BYTE      WDCON

      0100172EH   BLOCK     CODE     ---       LVL=0
      00000007H   SYMBOL    DATA     BYTE      Extintn
      00000005H   SYMBOL    DATA     BYTE      IntMode
      0100172EH   LINE      CODE     ---       #70
      0100172EH   LINE      CODE     ---       #71
      0100172EH   LINE      CODE     ---       #72
      01001731H   LINE      CODE     ---       #73
      01001731H   LINE      CODE     ---       #74
      01001734H   LINE      CODE     ---       #75
      01001736H   LINE      CODE     ---       #76
      01001739H   LINE      CODE     ---       #77
      0100173BH   LINE      CODE     ---       #78
LX51 LINKER/LOCATER V4.66.1.0                                                         09/08/2023  16:42:41  PAGE 71


      0100173BH   LINE      CODE     ---       #79
      0100173EH   LINE      CODE     ---       #80
      0100173EH   LINE      CODE     ---       #81
      01001741H   LINE      CODE     ---       #82
      01001743H   LINE      CODE     ---       #83
      01001746H   LINE      CODE     ---       #84
      01001748H   LINE      CODE     ---       #85
      01001748H   LINE      CODE     ---       #86
      ---         BLOCKEND  ---      ---       LVL=0

      01001D2EH   BLOCK     CODE     ---       LVL=0
      00000007H   SYMBOL    DATA     BYTE      Extintn
      01001D2EH   LINE      CODE     ---       #95
      01001D2EH   LINE      CODE     ---       #96
      01001D2EH   LINE      CODE     ---       #97
      01001D31H   LINE      CODE     ---       #98
      01001D31H   LINE      CODE     ---       #99
      01001D33H   LINE      CODE     ---       #100
      01001D33H   LINE      CODE     ---       #101
      01001D36H   LINE      CODE     ---       #102
      01001D36H   LINE      CODE     ---       #103
      01001D38H   LINE      CODE     ---       #104
      01001D38H   LINE      CODE     ---       #105
      ---         BLOCKEND  ---      ---       LVL=0

      01001D39H   BLOCK     CODE     ---       LVL=0
      00000007H   SYMBOL    DATA     BYTE      Extintn
      01001D39H   LINE      CODE     ---       #114
      01001D39H   LINE      CODE     ---       #115
      01001D39H   LINE      CODE     ---       #116
      01001D3CH   LINE      CODE     ---       #117
      01001D3CH   LINE      CODE     ---       #118
      01001D3EH   LINE      CODE     ---       #119
      01001D3EH   LINE      CODE     ---       #120
      01001D41H   LINE      CODE     ---       #121
      01001D41H   LINE      CODE     ---       #122
      01001D43H   LINE      CODE     ---       #123
      01001D43H   LINE      CODE     ---       #124
      ---         BLOCKEND  ---      ---       LVL=0

      01001559H   BLOCK     CODE     ---       LVL=0
      00000006H   SYMBOL    DATA     BYTE      Extintn
      01001559H   LINE      CODE     ---       #133
      0100155BH   LINE      CODE     ---       #134
      0100155BH   LINE      CODE     ---       #135
      0100155EH   LINE      CODE     ---       #136
      0100155EH   LINE      CODE     ---       #137
      01001568H   LINE      CODE     ---       #138
      01001568H   LINE      CODE     ---       #139
      0100156BH   LINE      CODE     ---       #140
      0100156BH   LINE      CODE     ---       #141
      01001575H   LINE      CODE     ---       #142
      01001575H   LINE      CODE     ---       #143
      01001577H   LINE      CODE     ---       #144
      ---         BLOCKEND  ---      ---       LVL=0

      01001D44H   BLOCK     CODE     ---       LVL=0
      00000007H   SYMBOL    DATA     BYTE      Extintn
      01001D44H   LINE      CODE     ---       #153
      01001D44H   LINE      CODE     ---       #154
      01001D44H   LINE      CODE     ---       #155
      01001D47H   LINE      CODE     ---       #156
      01001D47H   LINE      CODE     ---       #157
      01001D49H   LINE      CODE     ---       #158
      01001D49H   LINE      CODE     ---       #159
LX51 LINKER/LOCATER V4.66.1.0                                                         09/08/2023  16:42:41  PAGE 72


      01001D4CH   LINE      CODE     ---       #160
      01001D4CH   LINE      CODE     ---       #161
      01001D4EH   LINE      CODE     ---       #162
      01001D4EH   LINE      CODE     ---       #163
      ---         BLOCKEND  ---      ---       LVL=0

      ---         MODULE    ---      ---       FLASH
      010011B7H   PUBLIC    CODE     ---       _FLASH_Erase
      01001154H   PUBLIC    CODE     ---       _FLASH_Read
      01001186H   PUBLIC    CODE     ---       _FLASH_Write
      0100009EH   PUBLIC    CODE     ---       FLASH_Lock
      01000096H   PUBLIC    CODE     ---       FLASH_UnLock
      000000C8H   SFRSYM    DATA     BIT       T2I0
      000000C3H   SFRSYM    DATA     BYTE      CCH1
      00000080H   SFRSYM    DATA     BYTE      P0
      000000C8H.1 SFRSYM    DATA     BIT       T2I1
      000000C5H   SFRSYM    DATA     BYTE      CCH2
      00000090H   SFRSYM    DATA     BYTE      P1
      000000C7H   SFRSYM    DATA     BYTE      CCH3
      000000ACH   SFRSYM    DATA     BYTE      P0EXTIE
      000000A0H   SFRSYM    DATA     BYTE      P2
      000000B4H   SFRSYM    DATA     BYTE      P0EXTIF
      000000B0H   SFRSYM    DATA     BYTE      P3
      000000ADH   SFRSYM    DATA     BYTE      P1EXTIE
      000000D0H.6 SFRSYM    DATA     BIT       AC
      000000FFH   SFRSYM    DATA     BYTE      MCTRL
      000000C2H   SFRSYM    DATA     BYTE      CCL1
      000000B5H   SFRSYM    DATA     BYTE      P1EXTIF
      000000AEH   SFRSYM    DATA     BYTE      P2EXTIE
      000000C4H   SFRSYM    DATA     BYTE      CCL2
      000000B6H   SFRSYM    DATA     BYTE      P2EXTIF
      000000AFH   SFRSYM    DATA     BYTE      P3EXTIE
      000000A8H.7 SFRSYM    DATA     BIT       EA
      000000C6H   SFRSYM    DATA     BYTE      CCL3
      000000B7H   SFRSYM    DATA     BYTE      P3EXTIF
      000000AAH   SFRSYM    DATA     BYTE      EIE2
      000000B2H   SFRSYM    DATA     BYTE      EIF2
      000000C8H.3 SFRSYM    DATA     BIT       T2R0
      000000C8H.4 SFRSYM    DATA     BIT       T2R1
      00000083H   SFRSYM    DATA     BYTE      DPH0
      000000A8H   SFRSYM    DATA     BYTE      IE
      00000085H   SFRSYM    DATA     BYTE      DPH1
      000000B9H   SFRSYM    DATA     BYTE      EIP1
      000000BAH   SFRSYM    DATA     BYTE      EIP2
      00000082H   SFRSYM    DATA     BYTE      DPL0
      00000084H   SFRSYM    DATA     BYTE      DPL1
      000000C8H.6 SFRSYM    DATA     BIT       I3FR
      000000CFH   SFRSYM    DATA     BYTE      T2IE
      00000096H   SFRSYM    DATA     BYTE      TA
      000000C9H   SFRSYM    DATA     BYTE      T2IF
      000000C8H.2 SFRSYM    DATA     BIT       T2CM
      000000DFH   SFRSYM    DATA     BYTE      ADCON0
      000000DEH   SFRSYM    DATA     BYTE      ADCON1
      000000E9H   SFRSYM    DATA     BYTE      ADCON2
      000000B8H   SFRSYM    DATA     BYTE      IP
      000000CEH   SFRSYM    DATA     BYTE      CCEN
      000000D0H.7 SFRSYM    DATA     BIT       CY
      000000D2H   SFRSYM    DATA     BYTE      T34MOD
      00000093H   SFRSYM    DATA     BYTE      DPX0
      00000095H   SFRSYM    DATA     BYTE      DPX1
      000000F4H   SFRSYM    DATA     BYTE      I2CMSA
      000000F5H   SFRSYM    DATA     BYTE      I2CMCR
      00000081H   SFRSYM    DATA     BYTE      SP
      000000D0H.2 SFRSYM    DATA     BIT       OV
      000000F2H   SFRSYM    DATA     BYTE      I2CSCR
LX51 LINKER/LOCATER V4.66.1.0                                                         09/08/2023  16:42:41  PAGE 73


      000000C8H.7 SFRSYM    DATA     BIT       T2PS
      000000D1H   SFRSYM    DATA     BYTE      ADCMPC
      000000CBH   SFRSYM    DATA     BYTE      RLDH
      000000D5H   SFRSYM    DATA     BYTE      ADCMPH
      000000CAH   SFRSYM    DATA     BYTE      RLDL
      00000080H   SFRSYM    DATA     BIT       P00
      00000090H   SFRSYM    DATA     BIT       P10
      00000080H.1 SFRSYM    DATA     BIT       P01
      000000F7H   SFRSYM    DATA     BYTE      I2CMTP
      00000099H   SFRSYM    DATA     BYTE      SBUF
      00000087H   SFRSYM    DATA     BYTE      PCON
      000000A0H   SFRSYM    DATA     BIT       P20
      00000090H.1 SFRSYM    DATA     BIT       P11
      00000080H.2 SFRSYM    DATA     BIT       P02
      000000F5H   SFRSYM    DATA     BYTE      I2CMSR
      000000B0H   SFRSYM    DATA     BIT       P30
      000000A0H.1 SFRSYM    DATA     BIT       P21
      00000090H.2 SFRSYM    DATA     BIT       P12
      00000080H.3 SFRSYM    DATA     BIT       P03
      000000D4H   SFRSYM    DATA     BYTE      ADCMPL
      000000B0H.1 SFRSYM    DATA     BIT       P31
      000000A0H.2 SFRSYM    DATA     BIT       P22
      00000090H.3 SFRSYM    DATA     BIT       P13
      00000080H.4 SFRSYM    DATA     BIT       P04
      000000B0H.2 SFRSYM    DATA     BIT       P32
      000000A0H.3 SFRSYM    DATA     BIT       P23
      00000090H.4 SFRSYM    DATA     BIT       P14
      00000080H.5 SFRSYM    DATA     BIT       P05
      00000089H   SFRSYM    DATA     BYTE      TMOD
      00000088H   SFRSYM    DATA     BYTE      TCON
      000000B0H.3 SFRSYM    DATA     BIT       P33
      000000A0H.4 SFRSYM    DATA     BIT       P24
      00000090H.5 SFRSYM    DATA     BIT       P15
      00000080H.6 SFRSYM    DATA     BIT       P06
      000000B0H.4 SFRSYM    DATA     BIT       P34
      000000A0H.5 SFRSYM    DATA     BIT       P25
      00000090H.6 SFRSYM    DATA     BIT       P16
      00000080H.7 SFRSYM    DATA     BIT       P07
      000000B0H.5 SFRSYM    DATA     BIT       P35
      000000A0H.6 SFRSYM    DATA     BIT       P26
      00000090H.7 SFRSYM    DATA     BIT       P17
      000000F2H   SFRSYM    DATA     BYTE      I2CSSR
      000000B0H.6 SFRSYM    DATA     BIT       P36
      000000A0H.7 SFRSYM    DATA     BIT       P27
      000000ECH   SFRSYM    DATA     BYTE      SPCR
      000000DDH   SFRSYM    DATA     BYTE      ADRESH
      000000B0H.7 SFRSYM    DATA     BIT       P37
      000000EEH   SFRSYM    DATA     BYTE      SPDR
      000000EFH   SFRSYM    DATA     BYTE      SSCR
      000000D3H   SFRSYM    DATA     BYTE      ADDLYL
      000000DCH   SFRSYM    DATA     BYTE      ADRESL
      00000088H.1 SFRSYM    DATA     BIT       IE0
      00000088H.3 SFRSYM    DATA     BIT       IE1
      0000008FH   SFRSYM    DATA     BYTE      CLKDIV
      000000F0H   SFRSYM    DATA     BYTE      B
      00000091H   SFRSYM    DATA     BYTE      FUNCCR
      0000009AH   SFRSYM    DATA     BYTE      P0TRIS
      000000A1H   SFRSYM    DATA     BYTE      P1TRIS
      000000A2H   SFRSYM    DATA     BYTE      P2TRIS
      000000E0H   SFRSYM    DATA     BYTE      ACC
      000000A3H   SFRSYM    DATA     BYTE      P3TRIS
      000000A8H.4 SFRSYM    DATA     BIT       ES0
      000000A8H.6 SFRSYM    DATA     BIT       ES1
      000000A8H.1 SFRSYM    DATA     BIT       ET0
      000000EDH   SFRSYM    DATA     BYTE      SPSR
LX51 LINKER/LOCATER V4.66.1.0                                                         09/08/2023  16:42:41  PAGE 74


      000000A8H.3 SFRSYM    DATA     BIT       ET1
      00000088H.5 SFRSYM    DATA     BIT       TF0
      000000A8H.5 SFRSYM    DATA     BIT       ET2
      00000098H   SFRSYM    DATA     BIT       RI0
      00000088H.7 SFRSYM    DATA     BIT       TF1
      0000008CH   SFRSYM    DATA     BYTE      TH0
      000000A8H   SFRSYM    DATA     BIT       EX0
      00000098H.1 SFRSYM    DATA     BIT       TI0
      00000088H   SFRSYM    DATA     BIT       IT0
      0000008DH   SFRSYM    DATA     BYTE      TH1
      000000A8H.2 SFRSYM    DATA     BIT       EX1
      00000088H.2 SFRSYM    DATA     BIT       IT1
      000000CDH   SFRSYM    DATA     BYTE      TH2
      000000D0H   SFRSYM    DATA     BIT       P
      000000DBH   SFRSYM    DATA     BYTE      TH3
      000000E3H   SFRSYM    DATA     BYTE      TH4
      0000008AH   SFRSYM    DATA     BYTE      TL0
      0000008BH   SFRSYM    DATA     BYTE      TL1
      00000098H.2 SFRSYM    DATA     BIT       U0RB8
      000000CCH   SFRSYM    DATA     BYTE      TL2
      000000B8H.4 SFRSYM    DATA     BIT       PS0
      000000DAH   SFRSYM    DATA     BYTE      TL3
      000000BFH   SFRSYM    DATA     BYTE      BUZCON
      000000B8H.6 SFRSYM    DATA     BIT       PS1
      000000B8H.1 SFRSYM    DATA     BIT       PT0
      00000098H.3 SFRSYM    DATA     BIT       U0TB8
      000000E2H   SFRSYM    DATA     BYTE      TL4
      000000D0H.3 SFRSYM    DATA     BIT       RS0
      000000B8H.3 SFRSYM    DATA     BIT       PT1
      000000D0H.4 SFRSYM    DATA     BIT       RS1
      000000B8H.5 SFRSYM    DATA     BIT       PT2
      00000098H.7 SFRSYM    DATA     BIT       U0SM0
      00000088H.4 SFRSYM    DATA     BIT       TR0
      000000BEH   SFRSYM    DATA     BYTE      BUZDIV
      00000098H.6 SFRSYM    DATA     BIT       U0SM1
      00000088H.6 SFRSYM    DATA     BIT       TR1
      000000B8H   SFRSYM    DATA     BIT       PX0
      00000098H.5 SFRSYM    DATA     BIT       U0SM2
      000000B8H.2 SFRSYM    DATA     BIT       PX1
      000000BDH   SFRSYM    DATA     BYTE      WUTCRH
      00000099H   SFRSYM    DATA     BYTE      SBUF0
      000000EBH   SFRSYM    DATA     BYTE      SBUF1
      000000BCH   SFRSYM    DATA     BYTE      WUTCRL
      00000098H   SFRSYM    DATA     BYTE      SCON0
      000000EAH   SFRSYM    DATA     BYTE      SCON1
      000000C8H   SFRSYM    DATA     BYTE      T2CON
      00000086H   SFRSYM    DATA     BYTE      DPS
      000000FEH   SFRSYM    DATA     BYTE      MDATA
      000000F6H   SFRSYM    DATA     BYTE      I2CMBUF
      000000F1H   SFRSYM    DATA     BYTE      I2CSADR
      00000098H.4 SFRSYM    DATA     BIT       U0REN
      000000C8H.5 SFRSYM    DATA     BIT       CAPES
      000000FDH   SFRSYM    DATA     BYTE      MADRH
      0000008EH   SFRSYM    DATA     BYTE      CKCON
      000000F3H   SFRSYM    DATA     BYTE      I2CSBUF
      000000FCH   SFRSYM    DATA     BYTE      MADRL
      000000D0H.5 SFRSYM    DATA     BIT       F0
      000000FBH   SFRSYM    DATA     BYTE      MLOCK
      000000D0H   SFRSYM    DATA     BYTE      PSW
      00000097H   SFRSYM    DATA     BYTE      WDCON

      01000096H   BLOCK     CODE     ---       LVL=0
      01000096H   LINE      CODE     ---       #68
      01000096H   LINE      CODE     ---       #69
      01000096H   LINE      CODE     ---       #70
LX51 LINKER/LOCATER V4.66.1.0                                                         09/08/2023  16:42:41  PAGE 75


      01000099H   LINE      CODE     ---       #71
      ---         BLOCKEND  ---      ---       LVL=0

      0100009EH   BLOCK     CODE     ---       LVL=0
      0100009EH   LINE      CODE     ---       #79
      0100009EH   LINE      CODE     ---       #80
      0100009EH   LINE      CODE     ---       #81
      010000A1H   LINE      CODE     ---       #82
      ---         BLOCKEND  ---      ---       LVL=0

      01001186H   BLOCK     CODE     ---       LVL=0
      00000002H   SYMBOL    DATA     BYTE      FLASHModule
      00000004H   SYMBOL    DATA     WORD      Addr
      00000003H   SYMBOL    DATA     BYTE      Data
      01001186H   LINE      CODE     ---       #95
      01001188H   LINE      CODE     ---       #96
      01001188H   LINE      CODE     ---       #97
      0100118AH   LINE      CODE     ---       #98
      0100118CH   LINE      CODE     ---       #99
      0100118EH   LINE      CODE     ---       #101
      01001191H   LINE      CODE     ---       #102
      01001191H   LINE      CODE     ---       #103
      01001193H   LINE      CODE     ---       #104
      01001198H   LINE      CODE     ---       #105
      01001199H   LINE      CODE     ---       #106
      0100119AH   LINE      CODE     ---       #107
      0100119BH   LINE      CODE     ---       #108
      0100119CH   LINE      CODE     ---       #109
      0100119DH   LINE      CODE     ---       #110
      0100119EH   LINE      CODE     ---       #111
      010011A3H   LINE      CODE     ---       #112
      010011A5H   LINE      CODE     ---       #113
      010011A6H   LINE      CODE     ---       #115
      010011A6H   LINE      CODE     ---       #116
      010011ABH   LINE      CODE     ---       #117
      010011ACH   LINE      CODE     ---       #118
      010011ADH   LINE      CODE     ---       #119
      010011AEH   LINE      CODE     ---       #120
      010011AFH   LINE      CODE     ---       #121
      010011B0H   LINE      CODE     ---       #122
      010011B1H   LINE      CODE     ---       #123
      010011B6H   LINE      CODE     ---       #124
      010011B6H   LINE      CODE     ---       #125
      ---         BLOCKEND  ---      ---       LVL=0

      01001154H   BLOCK     CODE     ---       LVL=0
      00000003H   SYMBOL    DATA     BYTE      FLASHModule
      00000004H   SYMBOL    DATA     WORD      Addr
      01001154H   LINE      CODE     ---       #137
      01001156H   LINE      CODE     ---       #138
      01001156H   LINE      CODE     ---       #139
      01001158H   LINE      CODE     ---       #140
      0100115AH   LINE      CODE     ---       #141
      0100115DH   LINE      CODE     ---       #142
      0100115DH   LINE      CODE     ---       #143
      0100115FH   LINE      CODE     ---       #144
      01001164H   LINE      CODE     ---       #145
      01001165H   LINE      CODE     ---       #146
      01001166H   LINE      CODE     ---       #147
      01001167H   LINE      CODE     ---       #148
      01001168H   LINE      CODE     ---       #149
      01001169H   LINE      CODE     ---       #150
      0100116AH   LINE      CODE     ---       #151
      0100116FH   LINE      CODE     ---       #152
      01001171H   LINE      CODE     ---       #153
LX51 LINKER/LOCATER V4.66.1.0                                                         09/08/2023  16:42:41  PAGE 76


      01001173H   LINE      CODE     ---       #155
      01001173H   LINE      CODE     ---       #156
      01001178H   LINE      CODE     ---       #157
      01001179H   LINE      CODE     ---       #158
      0100117AH   LINE      CODE     ---       #159
      0100117BH   LINE      CODE     ---       #160
      0100117CH   LINE      CODE     ---       #161
      0100117DH   LINE      CODE     ---       #162
      0100117EH   LINE      CODE     ---       #163
      01001183H   LINE      CODE     ---       #164
      01001183H   LINE      CODE     ---       #165
      01001185H   LINE      CODE     ---       #166
      ---         BLOCKEND  ---      ---       LVL=0

      010011B7H   BLOCK     CODE     ---       LVL=0
      00000003H   SYMBOL    DATA     BYTE      FLASHModule
      00000004H   SYMBOL    DATA     WORD      Addr
      010011B7H   LINE      CODE     ---       #177
      010011B9H   LINE      CODE     ---       #178
      010011B9H   LINE      CODE     ---       #179
      010011BBH   LINE      CODE     ---       #180
      010011BDH   LINE      CODE     ---       #181
      010011C0H   LINE      CODE     ---       #182
      010011C0H   LINE      CODE     ---       #183
      010011C2H   LINE      CODE     ---       #184
      010011C7H   LINE      CODE     ---       #185
      010011C8H   LINE      CODE     ---       #186
      010011C9H   LINE      CODE     ---       #187
      010011CAH   LINE      CODE     ---       #188
      010011CBH   LINE      CODE     ---       #189
      010011CCH   LINE      CODE     ---       #190
      010011CDH   LINE      CODE     ---       #191
      010011D2H   LINE      CODE     ---       #192
      010011D4H   LINE      CODE     ---       #193
      010011D5H   LINE      CODE     ---       #195
      010011D5H   LINE      CODE     ---       #196
      010011DAH   LINE      CODE     ---       #197
      010011DBH   LINE      CODE     ---       #198
      010011DCH   LINE      CODE     ---       #199
      010011DDH   LINE      CODE     ---       #200
      010011DEH   LINE      CODE     ---       #201
      010011DFH   LINE      CODE     ---       #202
      010011E0H   LINE      CODE     ---       #203
      010011E5H   LINE      CODE     ---       #204
      010011E5H   LINE      CODE     ---       #205
      ---         BLOCKEND  ---      ---       LVL=0

      ---         MODULE    ---      ---       GPIO
      01000EB4H   PUBLIC    CODE     ---       _GPIO_ClearIntFlag
      01000E07H   PUBLIC    CODE     ---       _GPIO_GetIntFlag
      0100143BH   PUBLIC    CODE     ---       _GPIO_DisableInt
      01001612H   PUBLIC    CODE     ---       _GPIO_EnableInt
      01000609H   PUBLIC    CODE     ---       _GPIO_ConfigGPIOMode
      000000C8H   SFRSYM    DATA     BIT       T2I0
      000000C3H   SFRSYM    DATA     BYTE      CCH1
      00000080H   SFRSYM    DATA     BYTE      P0
      000000C8H.1 SFRSYM    DATA     BIT       T2I1
      000000C5H   SFRSYM    DATA     BYTE      CCH2
      00000090H   SFRSYM    DATA     BYTE      P1
      000000C7H   SFRSYM    DATA     BYTE      CCH3
      000000ACH   SFRSYM    DATA     BYTE      P0EXTIE
      000000A0H   SFRSYM    DATA     BYTE      P2
      000000B4H   SFRSYM    DATA     BYTE      P0EXTIF
      000000B0H   SFRSYM    DATA     BYTE      P3
      000000ADH   SFRSYM    DATA     BYTE      P1EXTIE
LX51 LINKER/LOCATER V4.66.1.0                                                         09/08/2023  16:42:41  PAGE 77


      000000D0H.6 SFRSYM    DATA     BIT       AC
      000000FFH   SFRSYM    DATA     BYTE      MCTRL
      000000C2H   SFRSYM    DATA     BYTE      CCL1
      000000B5H   SFRSYM    DATA     BYTE      P1EXTIF
      000000AEH   SFRSYM    DATA     BYTE      P2EXTIE
      000000C4H   SFRSYM    DATA     BYTE      CCL2
      000000B6H   SFRSYM    DATA     BYTE      P2EXTIF
      000000AFH   SFRSYM    DATA     BYTE      P3EXTIE
      000000A8H.7 SFRSYM    DATA     BIT       EA
      000000C6H   SFRSYM    DATA     BYTE      CCL3
      000000B7H   SFRSYM    DATA     BYTE      P3EXTIF
      000000AAH   SFRSYM    DATA     BYTE      EIE2
      000000B2H   SFRSYM    DATA     BYTE      EIF2
      000000C8H.3 SFRSYM    DATA     BIT       T2R0
      000000C8H.4 SFRSYM    DATA     BIT       T2R1
      00000083H   SFRSYM    DATA     BYTE      DPH0
      000000A8H   SFRSYM    DATA     BYTE      IE
      00000085H   SFRSYM    DATA     BYTE      DPH1
      000000B9H   SFRSYM    DATA     BYTE      EIP1
      000000BAH   SFRSYM    DATA     BYTE      EIP2
      00000082H   SFRSYM    DATA     BYTE      DPL0
      00000084H   SFRSYM    DATA     BYTE      DPL1
      000000C8H.6 SFRSYM    DATA     BIT       I3FR
      000000CFH   SFRSYM    DATA     BYTE      T2IE
      00000096H   SFRSYM    DATA     BYTE      TA
      000000C9H   SFRSYM    DATA     BYTE      T2IF
      000000C8H.2 SFRSYM    DATA     BIT       T2CM
      000000DFH   SFRSYM    DATA     BYTE      ADCON0
      000000DEH   SFRSYM    DATA     BYTE      ADCON1
      000000E9H   SFRSYM    DATA     BYTE      ADCON2
      000000B8H   SFRSYM    DATA     BYTE      IP
      000000CEH   SFRSYM    DATA     BYTE      CCEN
      000000D0H.7 SFRSYM    DATA     BIT       CY
      000000D2H   SFRSYM    DATA     BYTE      T34MOD
      00000093H   SFRSYM    DATA     BYTE      DPX0
      00000095H   SFRSYM    DATA     BYTE      DPX1
      000000F4H   SFRSYM    DATA     BYTE      I2CMSA
      000000F5H   SFRSYM    DATA     BYTE      I2CMCR
      00000081H   SFRSYM    DATA     BYTE      SP
      000000D0H.2 SFRSYM    DATA     BIT       OV
      000000F2H   SFRSYM    DATA     BYTE      I2CSCR
      000000C8H.7 SFRSYM    DATA     BIT       T2PS
      000000D1H   SFRSYM    DATA     BYTE      ADCMPC
      000000CBH   SFRSYM    DATA     BYTE      RLDH
      000000D5H   SFRSYM    DATA     BYTE      ADCMPH
      000000CAH   SFRSYM    DATA     BYTE      RLDL
      00000080H   SFRSYM    DATA     BIT       P00
      00000090H   SFRSYM    DATA     BIT       P10
      00000080H.1 SFRSYM    DATA     BIT       P01
      000000F7H   SFRSYM    DATA     BYTE      I2CMTP
      00000099H   SFRSYM    DATA     BYTE      SBUF
      00000087H   SFRSYM    DATA     BYTE      PCON
      000000A0H   SFRSYM    DATA     BIT       P20
      00000090H.1 SFRSYM    DATA     BIT       P11
      00000080H.2 SFRSYM    DATA     BIT       P02
      000000F5H   SFRSYM    DATA     BYTE      I2CMSR
      000000B0H   SFRSYM    DATA     BIT       P30
      000000A0H.1 SFRSYM    DATA     BIT       P21
      00000090H.2 SFRSYM    DATA     BIT       P12
      00000080H.3 SFRSYM    DATA     BIT       P03
      000000D4H   SFRSYM    DATA     BYTE      ADCMPL
      000000B0H.1 SFRSYM    DATA     BIT       P31
      000000A0H.2 SFRSYM    DATA     BIT       P22
      00000090H.3 SFRSYM    DATA     BIT       P13
      00000080H.4 SFRSYM    DATA     BIT       P04
LX51 LINKER/LOCATER V4.66.1.0                                                         09/08/2023  16:42:41  PAGE 78


      000000B0H.2 SFRSYM    DATA     BIT       P32
      000000A0H.3 SFRSYM    DATA     BIT       P23
      00000090H.4 SFRSYM    DATA     BIT       P14
      00000080H.5 SFRSYM    DATA     BIT       P05
      00000089H   SFRSYM    DATA     BYTE      TMOD
      00000088H   SFRSYM    DATA     BYTE      TCON
      000000B0H.3 SFRSYM    DATA     BIT       P33
      000000A0H.4 SFRSYM    DATA     BIT       P24
      00000090H.5 SFRSYM    DATA     BIT       P15
      00000080H.6 SFRSYM    DATA     BIT       P06
      000000B0H.4 SFRSYM    DATA     BIT       P34
      000000A0H.5 SFRSYM    DATA     BIT       P25
      00000090H.6 SFRSYM    DATA     BIT       P16
      00000080H.7 SFRSYM    DATA     BIT       P07
      000000B0H.5 SFRSYM    DATA     BIT       P35
      000000A0H.6 SFRSYM    DATA     BIT       P26
      00000090H.7 SFRSYM    DATA     BIT       P17
      000000F2H   SFRSYM    DATA     BYTE      I2CSSR
      000000B0H.6 SFRSYM    DATA     BIT       P36
      000000A0H.7 SFRSYM    DATA     BIT       P27
      000000ECH   SFRSYM    DATA     BYTE      SPCR
      000000DDH   SFRSYM    DATA     BYTE      ADRESH
      000000B0H.7 SFRSYM    DATA     BIT       P37
      000000EEH   SFRSYM    DATA     BYTE      SPDR
      000000EFH   SFRSYM    DATA     BYTE      SSCR
      000000D3H   SFRSYM    DATA     BYTE      ADDLYL
      000000DCH   SFRSYM    DATA     BYTE      ADRESL
      00000088H.1 SFRSYM    DATA     BIT       IE0
      00000088H.3 SFRSYM    DATA     BIT       IE1
      0000008FH   SFRSYM    DATA     BYTE      CLKDIV
      000000F0H   SFRSYM    DATA     BYTE      B
      00000091H   SFRSYM    DATA     BYTE      FUNCCR
      0000009AH   SFRSYM    DATA     BYTE      P0TRIS
      000000A1H   SFRSYM    DATA     BYTE      P1TRIS
      000000A2H   SFRSYM    DATA     BYTE      P2TRIS
      000000E0H   SFRSYM    DATA     BYTE      ACC
      000000A3H   SFRSYM    DATA     BYTE      P3TRIS
      000000A8H.4 SFRSYM    DATA     BIT       ES0
      000000A8H.6 SFRSYM    DATA     BIT       ES1
      000000A8H.1 SFRSYM    DATA     BIT       ET0
      000000EDH   SFRSYM    DATA     BYTE      SPSR
      000000A8H.3 SFRSYM    DATA     BIT       ET1
      00000088H.5 SFRSYM    DATA     BIT       TF0
      000000A8H.5 SFRSYM    DATA     BIT       ET2
      00000098H   SFRSYM    DATA     BIT       RI0
      00000088H.7 SFRSYM    DATA     BIT       TF1
      0000008CH   SFRSYM    DATA     BYTE      TH0
      000000A8H   SFRSYM    DATA     BIT       EX0
      00000098H.1 SFRSYM    DATA     BIT       TI0
      00000088H   SFRSYM    DATA     BIT       IT0
      0000008DH   SFRSYM    DATA     BYTE      TH1
      000000A8H.2 SFRSYM    DATA     BIT       EX1
      00000088H.2 SFRSYM    DATA     BIT       IT1
      000000CDH   SFRSYM    DATA     BYTE      TH2
      000000D0H   SFRSYM    DATA     BIT       P
      000000DBH   SFRSYM    DATA     BYTE      TH3
      000000E3H   SFRSYM    DATA     BYTE      TH4
      0000008AH   SFRSYM    DATA     BYTE      TL0
      0000008BH   SFRSYM    DATA     BYTE      TL1
      00000098H.2 SFRSYM    DATA     BIT       U0RB8
      000000CCH   SFRSYM    DATA     BYTE      TL2
      000000B8H.4 SFRSYM    DATA     BIT       PS0
      000000DAH   SFRSYM    DATA     BYTE      TL3
      000000BFH   SFRSYM    DATA     BYTE      BUZCON
      000000B8H.6 SFRSYM    DATA     BIT       PS1
LX51 LINKER/LOCATER V4.66.1.0                                                         09/08/2023  16:42:41  PAGE 79


      000000B8H.1 SFRSYM    DATA     BIT       PT0
      00000098H.3 SFRSYM    DATA     BIT       U0TB8
      000000E2H   SFRSYM    DATA     BYTE      TL4
      000000D0H.3 SFRSYM    DATA     BIT       RS0
      000000B8H.3 SFRSYM    DATA     BIT       PT1
      000000D0H.4 SFRSYM    DATA     BIT       RS1
      000000B8H.5 SFRSYM    DATA     BIT       PT2
      00000098H.7 SFRSYM    DATA     BIT       U0SM0
      00000088H.4 SFRSYM    DATA     BIT       TR0
      000000BEH   SFRSYM    DATA     BYTE      BUZDIV
      00000098H.6 SFRSYM    DATA     BIT       U0SM1
      00000088H.6 SFRSYM    DATA     BIT       TR1
      000000B8H   SFRSYM    DATA     BIT       PX0
      00000098H.5 SFRSYM    DATA     BIT       U0SM2
      000000B8H.2 SFRSYM    DATA     BIT       PX1
      000000BDH   SFRSYM    DATA     BYTE      WUTCRH
      00000099H   SFRSYM    DATA     BYTE      SBUF0
      000000EBH   SFRSYM    DATA     BYTE      SBUF1
      000000BCH   SFRSYM    DATA     BYTE      WUTCRL
      00000098H   SFRSYM    DATA     BYTE      SCON0
      000000EAH   SFRSYM    DATA     BYTE      SCON1
      000000C8H   SFRSYM    DATA     BYTE      T2CON
      00000086H   SFRSYM    DATA     BYTE      DPS
      000000FEH   SFRSYM    DATA     BYTE      MDATA
      000000F6H   SFRSYM    DATA     BYTE      I2CMBUF
      000000F1H   SFRSYM    DATA     BYTE      I2CSADR
      00000098H.4 SFRSYM    DATA     BIT       U0REN
      000000C8H.5 SFRSYM    DATA     BIT       CAPES
      000000FDH   SFRSYM    DATA     BYTE      MADRH
      0000008EH   SFRSYM    DATA     BYTE      CKCON
      000000F3H   SFRSYM    DATA     BYTE      I2CSBUF
      000000FCH   SFRSYM    DATA     BYTE      MADRL
      000000D0H.5 SFRSYM    DATA     BIT       F0
      000000FBH   SFRSYM    DATA     BYTE      MLOCK
      000000D0H   SFRSYM    DATA     BYTE      PSW
      00000097H   SFRSYM    DATA     BYTE      WDCON

      01000609H   BLOCK     CODE     ---       LVL=0
      00000007H   SYMBOL    DATA     BYTE      Port
      00000005H   SYMBOL    DATA     BYTE      PinMSK
      00000003H   SYMBOL    DATA     BYTE      PinMode
      01000609H   LINE      CODE     ---       #77
      01000609H   LINE      CODE     ---       #78
      01000609H   LINE      CODE     ---       #79
      0100061DH   LINE      CODE     ---       #80
      0100061DH   LINE      CODE     ---       #81
      0100061DH   LINE      CODE     ---       #82
      0100061DH   LINE      CODE     ---       #83
      01000621H   LINE      CODE     ---       #84
      01000621H   LINE      CODE     ---       #85
      01000627H   LINE      CODE     ---       #86
      01000627H   LINE      CODE     ---       #87
      0100062BH   LINE      CODE     ---       #88
      0100062BH   LINE      CODE     ---       #89
      01000631H   LINE      CODE     ---       #90
      01000631H   LINE      CODE     ---       #91
      01000635H   LINE      CODE     ---       #92
      01000635H   LINE      CODE     ---       #93
      0100063BH   LINE      CODE     ---       #94
      0100063BH   LINE      CODE     ---       #95
      0100063FH   LINE      CODE     ---       #96
      0100063FH   LINE      CODE     ---       #97
      01000645H   LINE      CODE     ---       #98
      01000645H   LINE      CODE     ---       #99
      0100064CH   LINE      CODE     ---       #100
LX51 LINKER/LOCATER V4.66.1.0                                                         09/08/2023  16:42:41  PAGE 80


      0100064CH   LINE      CODE     ---       #101
      0100064FH   LINE      CODE     ---       #102
      0100064FH   LINE      CODE     ---       #103
      0100064FH   LINE      CODE     ---       #104
      01000652H   LINE      CODE     ---       #105
      01000652H   LINE      CODE     ---       #106
      01000652H   LINE      CODE     ---       #107
      01000656H   LINE      CODE     ---       #108
      01000656H   LINE      CODE     ---       #109
      0100065CH   LINE      CODE     ---       #110
      0100065CH   LINE      CODE     ---       #111
      01000660H   LINE      CODE     ---       #112
      01000660H   LINE      CODE     ---       #113
      01000666H   LINE      CODE     ---       #114
      01000666H   LINE      CODE     ---       #115
      0100066AH   LINE      CODE     ---       #116
      0100066AH   LINE      CODE     ---       #117
      01000670H   LINE      CODE     ---       #118
      01000670H   LINE      CODE     ---       #119
      01000674H   LINE      CODE     ---       #120
      01000674H   LINE      CODE     ---       #121
      0100067AH   LINE      CODE     ---       #122
      0100067AH   LINE      CODE     ---       #123
      0100067EH   LINE      CODE     ---       #124
      0100067EH   LINE      CODE     ---       #125
      01000681H   LINE      CODE     ---       #126
      01000681H   LINE      CODE     ---       #127
      01000681H   LINE      CODE     ---       #128
      01000683H   LINE      CODE     ---       #129
      01000683H   LINE      CODE     ---       #130
      01000683H   LINE      CODE     ---       #131
      01000687H   LINE      CODE     ---       #132
      01000687H   LINE      CODE     ---       #133
      0100068DH   LINE      CODE     ---       #134
      0100068DH   LINE      CODE     ---       #135
      01000691H   LINE      CODE     ---       #136
      01000691H   LINE      CODE     ---       #137
      01000697H   LINE      CODE     ---       #138
      01000697H   LINE      CODE     ---       #139
      0100069BH   LINE      CODE     ---       #140
      0100069BH   LINE      CODE     ---       #141
      010006A1H   LINE      CODE     ---       #142
      010006A1H   LINE      CODE     ---       #143
      010006A5H   LINE      CODE     ---       #144
      010006A5H   LINE      CODE     ---       #145
      010006ABH   LINE      CODE     ---       #146
      010006ABH   LINE      CODE     ---       #147
      010006AFH   LINE      CODE     ---       #148
      010006AFH   LINE      CODE     ---       #149
      010006B2H   LINE      CODE     ---       #150
      010006B2H   LINE      CODE     ---       #151
      010006B2H   LINE      CODE     ---       #152
      010006B4H   LINE      CODE     ---       #153
      010006B4H   LINE      CODE     ---       #154
      010006B4H   LINE      CODE     ---       #155
      010006B8H   LINE      CODE     ---       #156
      010006B8H   LINE      CODE     ---       #157
      010006BEH   LINE      CODE     ---       #158
      010006BEH   LINE      CODE     ---       #159
      010006C2H   LINE      CODE     ---       #160
      010006C2H   LINE      CODE     ---       #161
      010006C8H   LINE      CODE     ---       #162
      010006C8H   LINE      CODE     ---       #163
      010006CCH   LINE      CODE     ---       #164
      010006CCH   LINE      CODE     ---       #165
LX51 LINKER/LOCATER V4.66.1.0                                                         09/08/2023  16:42:41  PAGE 81


      010006D2H   LINE      CODE     ---       #166
      010006D2H   LINE      CODE     ---       #167
      010006D6H   LINE      CODE     ---       #168
      010006D6H   LINE      CODE     ---       #169
      010006DCH   LINE      CODE     ---       #170
      010006DCH   LINE      CODE     ---       #171
      010006E0H   LINE      CODE     ---       #172
      010006E0H   LINE      CODE     ---       #173
      010006E6H   LINE      CODE     ---       #174
      010006E6H   LINE      CODE     ---       #175
      010006E6H   LINE      CODE     ---       #176
      010006E6H   LINE      CODE     ---       #177
      010006E6H   LINE      CODE     ---       #178
      010006E6H   LINE      CODE     ---       #179
      010006E6H   LINE      CODE     ---       #180
      ---         BLOCKEND  ---      ---       LVL=0

      01001612H   BLOCK     CODE     ---       LVL=0
      00000007H   SYMBOL    DATA     BYTE      Port
      00000005H   SYMBOL    DATA     BYTE      PinMSK
      01001612H   LINE      CODE     ---       #194
      01001612H   LINE      CODE     ---       #195
      01001612H   LINE      CODE     ---       #196
      01001620H   LINE      CODE     ---       #197
      01001620H   LINE      CODE     ---       #198
      01001620H   LINE      CODE     ---       #199
      01001623H   LINE      CODE     ---       #200
      01001624H   LINE      CODE     ---       #201
      01001624H   LINE      CODE     ---       #202
      01001627H   LINE      CODE     ---       #203
      01001628H   LINE      CODE     ---       #204
      01001628H   LINE      CODE     ---       #205
      0100162BH   LINE      CODE     ---       #206
      0100162CH   LINE      CODE     ---       #207
      0100162CH   LINE      CODE     ---       #208
      0100162FH   LINE      CODE     ---       #209
      0100162FH   LINE      CODE     ---       #210
      0100162FH   LINE      CODE     ---       #211
      0100162FH   LINE      CODE     ---       #212
      0100162FH   LINE      CODE     ---       #213
      ---         BLOCKEND  ---      ---       LVL=0

      0100143BH   BLOCK     CODE     ---       LVL=0
      00000007H   SYMBOL    DATA     BYTE      Port
      00000005H   SYMBOL    DATA     BYTE      PinMSK
      0100143BH   LINE      CODE     ---       #226
      0100143BH   LINE      CODE     ---       #227
      0100143BH   LINE      CODE     ---       #228
      01001449H   LINE      CODE     ---       #229
      01001449H   LINE      CODE     ---       #230
      01001449H   LINE      CODE     ---       #231
      0100144DH   LINE      CODE     ---       #232
      0100144EH   LINE      CODE     ---       #233
      0100144EH   LINE      CODE     ---       #234
      01001452H   LINE      CODE     ---       #235
      01001453H   LINE      CODE     ---       #236
      01001453H   LINE      CODE     ---       #237
      01001457H   LINE      CODE     ---       #238
      01001458H   LINE      CODE     ---       #239
      01001458H   LINE      CODE     ---       #240
      0100145CH   LINE      CODE     ---       #241
      0100145CH   LINE      CODE     ---       #242
      0100145CH   LINE      CODE     ---       #243
      0100145CH   LINE      CODE     ---       #244
      0100145CH   LINE      CODE     ---       #245
LX51 LINKER/LOCATER V4.66.1.0                                                         09/08/2023  16:42:41  PAGE 82


      ---         BLOCKEND  ---      ---       LVL=0

      01000E07H   BLOCK     CODE     ---       LVL=0
      00000007H   SYMBOL    DATA     BYTE      Port
      00000005H   SYMBOL    DATA     BYTE      PinNum
      01000E07H   BLOCK     CODE     NEAR LAB  LVL=1
      00000006H   SYMBOL    DATA     BYTE      PinIntFlag
      ---         BLOCKEND  ---      ---       LVL=1
      01000E07H   LINE      CODE     ---       #260
      01000E07H   LINE      CODE     ---       #261
      01000E07H   LINE      CODE     ---       #262
      01000E09H   LINE      CODE     ---       #263
      01000E17H   LINE      CODE     ---       #264
      01000E17H   LINE      CODE     ---       #265
      01000E17H   LINE      CODE     ---       #266
      01000E25H   LINE      CODE     ---       #267
      01000E27H   LINE      CODE     ---       #268
      01000E27H   LINE      CODE     ---       #269
      01000E35H   LINE      CODE     ---       #270
      01000E37H   LINE      CODE     ---       #271
      01000E37H   LINE      CODE     ---       #272
      01000E45H   LINE      CODE     ---       #273
      01000E47H   LINE      CODE     ---       #274
      01000E47H   LINE      CODE     ---       #275
      01000E57H   LINE      CODE     ---       #276
      01000E57H   LINE      CODE     ---       #277
      01000E57H   LINE      CODE     ---       #278
      01000E57H   LINE      CODE     ---       #279
      01000E57H   LINE      CODE     ---       #280
      01000E5EH   LINE      CODE     ---       #281
      ---         BLOCKEND  ---      ---       LVL=0

      01000EB4H   BLOCK     CODE     ---       LVL=0
      00000007H   SYMBOL    DATA     BYTE      Port
      00000005H   SYMBOL    DATA     BYTE      PinNum
      01000EB4H   LINE      CODE     ---       #294
      01000EB4H   LINE      CODE     ---       #295
      01000EB4H   LINE      CODE     ---       #296
      01000EC2H   LINE      CODE     ---       #297
      01000EC2H   LINE      CODE     ---       #298
      01000EC2H   LINE      CODE     ---       #299
      01000ED0H   LINE      CODE     ---       #300
      01000ED1H   LINE      CODE     ---       #301
      01000ED1H   LINE      CODE     ---       #302
      01000EDFH   LINE      CODE     ---       #303
      01000EE0H   LINE      CODE     ---       #304
      01000EE0H   LINE      CODE     ---       #305
      01000EEEH   LINE      CODE     ---       #306
      01000EEFH   LINE      CODE     ---       #307
      01000EEFH   LINE      CODE     ---       #308
      01000EFFH   LINE      CODE     ---       #309
      01000EFFH   LINE      CODE     ---       #310
      01000EFFH   LINE      CODE     ---       #311
      01000EFFH   LINE      CODE     ---       #312
      01000EFFH   LINE      CODE     ---       #313
      ---         BLOCKEND  ---      ---       LVL=0

      ---         MODULE    ---      ---       I2C
      01001F7EH   PUBLIC    CODE     ---       I2C_ClearMasterIntFlag
      01001DE0H   PUBLIC    CODE     ---       I2C_GetMasterIntFlag
      010000AEH   PUBLIC    CODE     ---       I2C_DisableInt
      010000A6H   PUBLIC    CODE     ---       I2C_EnableInt
      01001DD6H   PUBLIC    CODE     ---       I2C_GetMasterIdleFlag
      01001DCCH   PUBLIC    CODE     ---       I2C_GetI2CBusBusyFlag
      01001DC2H   PUBLIC    CODE     ---       I2C_GetMasterBusyFlag
LX51 LINKER/LOCATER V4.66.1.0                                                         09/08/2023  16:42:41  PAGE 83


      01001DB8H   PUBLIC    CODE     ---       I2C_GetMasterErrorFlag
      01001DAEH   PUBLIC    CODE     ---       I2C_GetBusArbitrationFlag
      01001DA4H   PUBLIC    CODE     ---       I2C_GetMasterSendAddrFlag
      01001FEEH   PUBLIC    CODE     ---       I2C_DisableMasterMode
      01001F72H   PUBLIC    CODE     ---       I2C_EnableMasterMode
      01001FE1H   PUBLIC    CODE     ---       _I2C_ConfigCLK
      000000C8H   SFRSYM    DATA     BIT       T2I0
      000000C3H   SFRSYM    DATA     BYTE      CCH1
      00000080H   SFRSYM    DATA     BYTE      P0
      000000C8H.1 SFRSYM    DATA     BIT       T2I1
      000000C5H   SFRSYM    DATA     BYTE      CCH2
      00000090H   SFRSYM    DATA     BYTE      P1
      000000C7H   SFRSYM    DATA     BYTE      CCH3
      000000ACH   SFRSYM    DATA     BYTE      P0EXTIE
      000000A0H   SFRSYM    DATA     BYTE      P2
      000000B4H   SFRSYM    DATA     BYTE      P0EXTIF
      000000B0H   SFRSYM    DATA     BYTE      P3
      000000ADH   SFRSYM    DATA     BYTE      P1EXTIE
      000000D0H.6 SFRSYM    DATA     BIT       AC
      000000FFH   SFRSYM    DATA     BYTE      MCTRL
      000000C2H   SFRSYM    DATA     BYTE      CCL1
      000000B5H   SFRSYM    DATA     BYTE      P1EXTIF
      000000AEH   SFRSYM    DATA     BYTE      P2EXTIE
      000000C4H   SFRSYM    DATA     BYTE      CCL2
      000000B6H   SFRSYM    DATA     BYTE      P2EXTIF
      000000AFH   SFRSYM    DATA     BYTE      P3EXTIE
      000000A8H.7 SFRSYM    DATA     BIT       EA
      000000C6H   SFRSYM    DATA     BYTE      CCL3
      000000B7H   SFRSYM    DATA     BYTE      P3EXTIF
      000000AAH   SFRSYM    DATA     BYTE      EIE2
      000000B2H   SFRSYM    DATA     BYTE      EIF2
      000000C8H.3 SFRSYM    DATA     BIT       T2R0
      000000C8H.4 SFRSYM    DATA     BIT       T2R1
      00000083H   SFRSYM    DATA     BYTE      DPH0
      000000A8H   SFRSYM    DATA     BYTE      IE
      00000085H   SFRSYM    DATA     BYTE      DPH1
      000000B9H   SFRSYM    DATA     BYTE      EIP1
      000000BAH   SFRSYM    DATA     BYTE      EIP2
      00000082H   SFRSYM    DATA     BYTE      DPL0
      00000084H   SFRSYM    DATA     BYTE      DPL1
      000000C8H.6 SFRSYM    DATA     BIT       I3FR
      000000CFH   SFRSYM    DATA     BYTE      T2IE
      00000096H   SFRSYM    DATA     BYTE      TA
      000000C9H   SFRSYM    DATA     BYTE      T2IF
      000000C8H.2 SFRSYM    DATA     BIT       T2CM
      000000DFH   SFRSYM    DATA     BYTE      ADCON0
      000000DEH   SFRSYM    DATA     BYTE      ADCON1
      000000E9H   SFRSYM    DATA     BYTE      ADCON2
      000000B8H   SFRSYM    DATA     BYTE      IP
      000000CEH   SFRSYM    DATA     BYTE      CCEN
      000000D0H.7 SFRSYM    DATA     BIT       CY
      000000D2H   SFRSYM    DATA     BYTE      T34MOD
      00000093H   SFRSYM    DATA     BYTE      DPX0
      00000095H   SFRSYM    DATA     BYTE      DPX1
      000000F4H   SFRSYM    DATA     BYTE      I2CMSA
      000000F5H   SFRSYM    DATA     BYTE      I2CMCR
      00000081H   SFRSYM    DATA     BYTE      SP
      000000D0H.2 SFRSYM    DATA     BIT       OV
      000000F2H   SFRSYM    DATA     BYTE      I2CSCR
      000000C8H.7 SFRSYM    DATA     BIT       T2PS
      000000D1H   SFRSYM    DATA     BYTE      ADCMPC
      000000CBH   SFRSYM    DATA     BYTE      RLDH
      000000D5H   SFRSYM    DATA     BYTE      ADCMPH
      000000CAH   SFRSYM    DATA     BYTE      RLDL
      00000080H   SFRSYM    DATA     BIT       P00
LX51 LINKER/LOCATER V4.66.1.0                                                         09/08/2023  16:42:41  PAGE 84


      00000090H   SFRSYM    DATA     BIT       P10
      00000080H.1 SFRSYM    DATA     BIT       P01
      000000F7H   SFRSYM    DATA     BYTE      I2CMTP
      00000099H   SFRSYM    DATA     BYTE      SBUF
      00000087H   SFRSYM    DATA     BYTE      PCON
      000000A0H   SFRSYM    DATA     BIT       P20
      00000090H.1 SFRSYM    DATA     BIT       P11
      00000080H.2 SFRSYM    DATA     BIT       P02
      000000F5H   SFRSYM    DATA     BYTE      I2CMSR
      000000B0H   SFRSYM    DATA     BIT       P30
      000000A0H.1 SFRSYM    DATA     BIT       P21
      00000090H.2 SFRSYM    DATA     BIT       P12
      00000080H.3 SFRSYM    DATA     BIT       P03
      000000D4H   SFRSYM    DATA     BYTE      ADCMPL
      000000B0H.1 SFRSYM    DATA     BIT       P31
      000000A0H.2 SFRSYM    DATA     BIT       P22
      00000090H.3 SFRSYM    DATA     BIT       P13
      00000080H.4 SFRSYM    DATA     BIT       P04
      000000B0H.2 SFRSYM    DATA     BIT       P32
      000000A0H.3 SFRSYM    DATA     BIT       P23
      00000090H.4 SFRSYM    DATA     BIT       P14
      00000080H.5 SFRSYM    DATA     BIT       P05
      00000089H   SFRSYM    DATA     BYTE      TMOD
      00000088H   SFRSYM    DATA     BYTE      TCON
      000000B0H.3 SFRSYM    DATA     BIT       P33
      000000A0H.4 SFRSYM    DATA     BIT       P24
      00000090H.5 SFRSYM    DATA     BIT       P15
      00000080H.6 SFRSYM    DATA     BIT       P06
      000000B0H.4 SFRSYM    DATA     BIT       P34
      000000A0H.5 SFRSYM    DATA     BIT       P25
      00000090H.6 SFRSYM    DATA     BIT       P16
      00000080H.7 SFRSYM    DATA     BIT       P07
      000000B0H.5 SFRSYM    DATA     BIT       P35
      000000A0H.6 SFRSYM    DATA     BIT       P26
      00000090H.7 SFRSYM    DATA     BIT       P17
      000000F2H   SFRSYM    DATA     BYTE      I2CSSR
      000000B0H.6 SFRSYM    DATA     BIT       P36
      000000A0H.7 SFRSYM    DATA     BIT       P27
      000000ECH   SFRSYM    DATA     BYTE      SPCR
      000000DDH   SFRSYM    DATA     BYTE      ADRESH
      000000B0H.7 SFRSYM    DATA     BIT       P37
      000000EEH   SFRSYM    DATA     BYTE      SPDR
      000000EFH   SFRSYM    DATA     BYTE      SSCR
      000000D3H   SFRSYM    DATA     BYTE      ADDLYL
      000000DCH   SFRSYM    DATA     BYTE      ADRESL
      00000088H.1 SFRSYM    DATA     BIT       IE0
      00000088H.3 SFRSYM    DATA     BIT       IE1
      0000008FH   SFRSYM    DATA     BYTE      CLKDIV
      000000F0H   SFRSYM    DATA     BYTE      B
      00000091H   SFRSYM    DATA     BYTE      FUNCCR
      0000009AH   SFRSYM    DATA     BYTE      P0TRIS
      000000A1H   SFRSYM    DATA     BYTE      P1TRIS
      000000A2H   SFRSYM    DATA     BYTE      P2TRIS
      000000E0H   SFRSYM    DATA     BYTE      ACC
      000000A3H   SFRSYM    DATA     BYTE      P3TRIS
      000000A8H.4 SFRSYM    DATA     BIT       ES0
      000000A8H.6 SFRSYM    DATA     BIT       ES1
      000000A8H.1 SFRSYM    DATA     BIT       ET0
      000000EDH   SFRSYM    DATA     BYTE      SPSR
      000000A8H.3 SFRSYM    DATA     BIT       ET1
      00000088H.5 SFRSYM    DATA     BIT       TF0
      000000A8H.5 SFRSYM    DATA     BIT       ET2
      00000098H   SFRSYM    DATA     BIT       RI0
      00000088H.7 SFRSYM    DATA     BIT       TF1
      0000008CH   SFRSYM    DATA     BYTE      TH0
LX51 LINKER/LOCATER V4.66.1.0                                                         09/08/2023  16:42:41  PAGE 85


      000000A8H   SFRSYM    DATA     BIT       EX0
      00000098H.1 SFRSYM    DATA     BIT       TI0
      00000088H   SFRSYM    DATA     BIT       IT0
      0000008DH   SFRSYM    DATA     BYTE      TH1
      000000A8H.2 SFRSYM    DATA     BIT       EX1
      00000088H.2 SFRSYM    DATA     BIT       IT1
      000000CDH   SFRSYM    DATA     BYTE      TH2
      000000D0H   SFRSYM    DATA     BIT       P
      000000DBH   SFRSYM    DATA     BYTE      TH3
      000000E3H   SFRSYM    DATA     BYTE      TH4
      0000008AH   SFRSYM    DATA     BYTE      TL0
      0000008BH   SFRSYM    DATA     BYTE      TL1
      00000098H.2 SFRSYM    DATA     BIT       U0RB8
      000000CCH   SFRSYM    DATA     BYTE      TL2
      000000B8H.4 SFRSYM    DATA     BIT       PS0
      000000DAH   SFRSYM    DATA     BYTE      TL3
      000000BFH   SFRSYM    DATA     BYTE      BUZCON
      000000B8H.6 SFRSYM    DATA     BIT       PS1
      000000B8H.1 SFRSYM    DATA     BIT       PT0
      00000098H.3 SFRSYM    DATA     BIT       U0TB8
      000000E2H   SFRSYM    DATA     BYTE      TL4
      000000D0H.3 SFRSYM    DATA     BIT       RS0
      000000B8H.3 SFRSYM    DATA     BIT       PT1
      000000D0H.4 SFRSYM    DATA     BIT       RS1
      000000B8H.5 SFRSYM    DATA     BIT       PT2
      00000098H.7 SFRSYM    DATA     BIT       U0SM0
      00000088H.4 SFRSYM    DATA     BIT       TR0
      000000BEH   SFRSYM    DATA     BYTE      BUZDIV
      00000098H.6 SFRSYM    DATA     BIT       U0SM1
      00000088H.6 SFRSYM    DATA     BIT       TR1
      000000B8H   SFRSYM    DATA     BIT       PX0
      00000098H.5 SFRSYM    DATA     BIT       U0SM2
      000000B8H.2 SFRSYM    DATA     BIT       PX1
      000000BDH   SFRSYM    DATA     BYTE      WUTCRH
      00000099H   SFRSYM    DATA     BYTE      SBUF0
      000000EBH   SFRSYM    DATA     BYTE      SBUF1
      000000BCH   SFRSYM    DATA     BYTE      WUTCRL
      00000098H   SFRSYM    DATA     BYTE      SCON0
      000000EAH   SFRSYM    DATA     BYTE      SCON1
      000000C8H   SFRSYM    DATA     BYTE      T2CON
      00000086H   SFRSYM    DATA     BYTE      DPS
      000000FEH   SFRSYM    DATA     BYTE      MDATA
      000000F6H   SFRSYM    DATA     BYTE      I2CMBUF
      000000F1H   SFRSYM    DATA     BYTE      I2CSADR
      00000098H.4 SFRSYM    DATA     BIT       U0REN
      000000C8H.5 SFRSYM    DATA     BIT       CAPES
      000000FDH   SFRSYM    DATA     BYTE      MADRH
      0000008EH   SFRSYM    DATA     BYTE      CKCON
      000000F3H   SFRSYM    DATA     BYTE      I2CSBUF
      000000FCH   SFRSYM    DATA     BYTE      MADRL
      000000D0H.5 SFRSYM    DATA     BIT       F0
      000000FBH   SFRSYM    DATA     BYTE      MLOCK
      000000D0H   SFRSYM    DATA     BYTE      PSW
      00000097H   SFRSYM    DATA     BYTE      WDCON

      01001FE1H   BLOCK     CODE     ---       LVL=0
      00000007H   SYMBOL    DATA     BYTE      I2CMtp
      01001FE1H   LINE      CODE     ---       #68
      01001FE1H   LINE      CODE     ---       #69
      01001FE1H   LINE      CODE     ---       #70
      01001FE3H   LINE      CODE     ---       #71
      ---         BLOCKEND  ---      ---       LVL=0

      01001F72H   BLOCK     CODE     ---       LVL=0
      01001F72H   LINE      CODE     ---       #79
LX51 LINKER/LOCATER V4.66.1.0                                                         09/08/2023  16:42:41  PAGE 86


      01001F72H   LINE      CODE     ---       #80
      01001F72H   LINE      CODE     ---       #81
      01001F75H   LINE      CODE     ---       #82
      01001F77H   LINE      CODE     ---       #83
      ---         BLOCKEND  ---      ---       LVL=0

      01001FEEH   BLOCK     CODE     ---       LVL=0
      01001FEEH   LINE      CODE     ---       #91
      01001FEEH   LINE      CODE     ---       #92
      01001FEEH   LINE      CODE     ---       #94
      ---         BLOCKEND  ---      ---       LVL=0

      01001DA4H   BLOCK     CODE     ---       LVL=0
      01001DA4H   LINE      CODE     ---       #103
      01001DA4H   LINE      CODE     ---       #104
      01001DA4H   LINE      CODE     ---       #105
      01001DADH   LINE      CODE     ---       #106
      ---         BLOCKEND  ---      ---       LVL=0

      01001DAEH   BLOCK     CODE     ---       LVL=0
      01001DAEH   LINE      CODE     ---       #115
      01001DAEH   LINE      CODE     ---       #116
      01001DAEH   LINE      CODE     ---       #117
      01001DB7H   LINE      CODE     ---       #118
      ---         BLOCKEND  ---      ---       LVL=0

      01001DB8H   BLOCK     CODE     ---       LVL=0
      01001DB8H   LINE      CODE     ---       #127
      01001DB8H   LINE      CODE     ---       #128
      01001DB8H   LINE      CODE     ---       #129
      01001DC1H   LINE      CODE     ---       #130
      ---         BLOCKEND  ---      ---       LVL=0

      01001DC2H   BLOCK     CODE     ---       LVL=0
      01001DC2H   LINE      CODE     ---       #138
      01001DC2H   LINE      CODE     ---       #139
      01001DC2H   LINE      CODE     ---       #140
      01001DCBH   LINE      CODE     ---       #141
      ---         BLOCKEND  ---      ---       LVL=0

      01001DCCH   BLOCK     CODE     ---       LVL=0
      01001DCCH   LINE      CODE     ---       #149
      01001DCCH   LINE      CODE     ---       #150
      01001DCCH   LINE      CODE     ---       #151
      01001DD5H   LINE      CODE     ---       #152
      ---         BLOCKEND  ---      ---       LVL=0

      01001DD6H   BLOCK     CODE     ---       LVL=0
      01001DD6H   LINE      CODE     ---       #160
      01001DD6H   LINE      CODE     ---       #161
      01001DD6H   LINE      CODE     ---       #162
      01001DDFH   LINE      CODE     ---       #163
      ---         BLOCKEND  ---      ---       LVL=0

      010000A6H   BLOCK     CODE     ---       LVL=0
      010000A6H   LINE      CODE     ---       #172
      010000A6H   LINE      CODE     ---       #173
      010000A6H   LINE      CODE     ---       #174
      010000A9H   LINE      CODE     ---       #175
      ---         BLOCKEND  ---      ---       LVL=0

      010000AEH   BLOCK     CODE     ---       LVL=0
      010000AEH   LINE      CODE     ---       #183
      010000AEH   LINE      CODE     ---       #184
      010000AEH   LINE      CODE     ---       #185
LX51 LINKER/LOCATER V4.66.1.0                                                         09/08/2023  16:42:41  PAGE 87


      010000B1H   LINE      CODE     ---       #186
      ---         BLOCKEND  ---      ---       LVL=0

      01001DE0H   BLOCK     CODE     ---       LVL=0
      01001DE0H   LINE      CODE     ---       #194
      01001DE0H   LINE      CODE     ---       #195
      01001DE0H   LINE      CODE     ---       #196
      01001DE9H   LINE      CODE     ---       #197
      ---         BLOCKEND  ---      ---       LVL=0

      01001F7EH   BLOCK     CODE     ---       LVL=0
      01001F7EH   LINE      CODE     ---       #205
      01001F7EH   LINE      CODE     ---       #206
      01001F7EH   LINE      CODE     ---       #207
      01001F81H   LINE      CODE     ---       #208
      ---         BLOCKEND  ---      ---       LVL=0

      ---         MODULE    ---      ---       LSE
      01001CA2H   PUBLIC    CODE     ---       LSE_GetLSEState
      01001ECDH   PUBLIC    CODE     ---       LSE_ClearLSEIntFlag
      01001C96H   PUBLIC    CODE     ---       LSE_GetLSEIntFlag
      01001EC5H   PUBLIC    CODE     ---       LSE_DisableLSEInt
      01001EBDH   PUBLIC    CODE     ---       LSE_EnableLSEInt
      01001EB5H   PUBLIC    CODE     ---       LSE_DisableLSEWakeup
      01001EADH   PUBLIC    CODE     ---       LSE_EnableLSEWakeup
      01001BD2H   PUBLIC    CODE     ---       _LSE_ConfigLSE
      01001EA5H   PUBLIC    CODE     ---       LSE_Stop
      01001E9DH   PUBLIC    CODE     ---       LSE_Start
      01001E95H   PUBLIC    CODE     ---       LSE_DisableLSE
      01001E8DH   PUBLIC    CODE     ---       LSE_EnableLSE
      000000C8H   SFRSYM    DATA     BIT       T2I0
      000000C3H   SFRSYM    DATA     BYTE      CCH1
      00000080H   SFRSYM    DATA     BYTE      P0
      000000C8H.1 SFRSYM    DATA     BIT       T2I1
      000000C5H   SFRSYM    DATA     BYTE      CCH2
      00000090H   SFRSYM    DATA     BYTE      P1
      000000C7H   SFRSYM    DATA     BYTE      CCH3
      000000ACH   SFRSYM    DATA     BYTE      P0EXTIE
      000000A0H   SFRSYM    DATA     BYTE      P2
      000000B4H   SFRSYM    DATA     BYTE      P0EXTIF
      000000B0H   SFRSYM    DATA     BYTE      P3
      000000ADH   SFRSYM    DATA     BYTE      P1EXTIE
      000000D0H.6 SFRSYM    DATA     BIT       AC
      000000FFH   SFRSYM    DATA     BYTE      MCTRL
      000000C2H   SFRSYM    DATA     BYTE      CCL1
      000000B5H   SFRSYM    DATA     BYTE      P1EXTIF
      000000AEH   SFRSYM    DATA     BYTE      P2EXTIE
      000000C4H   SFRSYM    DATA     BYTE      CCL2
      000000B6H   SFRSYM    DATA     BYTE      P2EXTIF
      000000AFH   SFRSYM    DATA     BYTE      P3EXTIE
      000000A8H.7 SFRSYM    DATA     BIT       EA
      000000C6H   SFRSYM    DATA     BYTE      CCL3
      000000B7H   SFRSYM    DATA     BYTE      P3EXTIF
      000000AAH   SFRSYM    DATA     BYTE      EIE2
      000000B2H   SFRSYM    DATA     BYTE      EIF2
      000000C8H.3 SFRSYM    DATA     BIT       T2R0
      000000C8H.4 SFRSYM    DATA     BIT       T2R1
      00000083H   SFRSYM    DATA     BYTE      DPH0
      000000A8H   SFRSYM    DATA     BYTE      IE
      00000085H   SFRSYM    DATA     BYTE      DPH1
      000000B9H   SFRSYM    DATA     BYTE      EIP1
      000000BAH   SFRSYM    DATA     BYTE      EIP2
      00000082H   SFRSYM    DATA     BYTE      DPL0
      00000084H   SFRSYM    DATA     BYTE      DPL1
      000000C8H.6 SFRSYM    DATA     BIT       I3FR
LX51 LINKER/LOCATER V4.66.1.0                                                         09/08/2023  16:42:41  PAGE 88


      000000CFH   SFRSYM    DATA     BYTE      T2IE
      00000096H   SFRSYM    DATA     BYTE      TA
      000000C9H   SFRSYM    DATA     BYTE      T2IF
      000000C8H.2 SFRSYM    DATA     BIT       T2CM
      000000DFH   SFRSYM    DATA     BYTE      ADCON0
      000000DEH   SFRSYM    DATA     BYTE      ADCON1
      000000E9H   SFRSYM    DATA     BYTE      ADCON2
      000000B8H   SFRSYM    DATA     BYTE      IP
      000000CEH   SFRSYM    DATA     BYTE      CCEN
      000000D0H.7 SFRSYM    DATA     BIT       CY
      000000D2H   SFRSYM    DATA     BYTE      T34MOD
      00000093H   SFRSYM    DATA     BYTE      DPX0
      00000095H   SFRSYM    DATA     BYTE      DPX1
      000000F4H   SFRSYM    DATA     BYTE      I2CMSA
      000000F5H   SFRSYM    DATA     BYTE      I2CMCR
      00000081H   SFRSYM    DATA     BYTE      SP
      000000D0H.2 SFRSYM    DATA     BIT       OV
      000000F2H   SFRSYM    DATA     BYTE      I2CSCR
      000000C8H.7 SFRSYM    DATA     BIT       T2PS
      000000D1H   SFRSYM    DATA     BYTE      ADCMPC
      000000CBH   SFRSYM    DATA     BYTE      RLDH
      000000D5H   SFRSYM    DATA     BYTE      ADCMPH
      000000CAH   SFRSYM    DATA     BYTE      RLDL
      00000080H   SFRSYM    DATA     BIT       P00
      00000090H   SFRSYM    DATA     BIT       P10
      00000080H.1 SFRSYM    DATA     BIT       P01
      000000F7H   SFRSYM    DATA     BYTE      I2CMTP
      00000099H   SFRSYM    DATA     BYTE      SBUF
      00000087H   SFRSYM    DATA     BYTE      PCON
      000000A0H   SFRSYM    DATA     BIT       P20
      00000090H.1 SFRSYM    DATA     BIT       P11
      00000080H.2 SFRSYM    DATA     BIT       P02
      000000F5H   SFRSYM    DATA     BYTE      I2CMSR
      000000B0H   SFRSYM    DATA     BIT       P30
      000000A0H.1 SFRSYM    DATA     BIT       P21
      00000090H.2 SFRSYM    DATA     BIT       P12
      00000080H.3 SFRSYM    DATA     BIT       P03
      000000D4H   SFRSYM    DATA     BYTE      ADCMPL
      000000B0H.1 SFRSYM    DATA     BIT       P31
      000000A0H.2 SFRSYM    DATA     BIT       P22
      00000090H.3 SFRSYM    DATA     BIT       P13
      00000080H.4 SFRSYM    DATA     BIT       P04
      000000B0H.2 SFRSYM    DATA     BIT       P32
      000000A0H.3 SFRSYM    DATA     BIT       P23
      00000090H.4 SFRSYM    DATA     BIT       P14
      00000080H.5 SFRSYM    DATA     BIT       P05
      00000089H   SFRSYM    DATA     BYTE      TMOD
      00000088H   SFRSYM    DATA     BYTE      TCON
      000000B0H.3 SFRSYM    DATA     BIT       P33
      000000A0H.4 SFRSYM    DATA     BIT       P24
      00000090H.5 SFRSYM    DATA     BIT       P15
      00000080H.6 SFRSYM    DATA     BIT       P06
      000000B0H.4 SFRSYM    DATA     BIT       P34
      000000A0H.5 SFRSYM    DATA     BIT       P25
      00000090H.6 SFRSYM    DATA     BIT       P16
      00000080H.7 SFRSYM    DATA     BIT       P07
      000000B0H.5 SFRSYM    DATA     BIT       P35
      000000A0H.6 SFRSYM    DATA     BIT       P26
      00000090H.7 SFRSYM    DATA     BIT       P17
      000000F2H   SFRSYM    DATA     BYTE      I2CSSR
      000000B0H.6 SFRSYM    DATA     BIT       P36
      000000A0H.7 SFRSYM    DATA     BIT       P27
      000000ECH   SFRSYM    DATA     BYTE      SPCR
      000000DDH   SFRSYM    DATA     BYTE      ADRESH
      000000B0H.7 SFRSYM    DATA     BIT       P37
LX51 LINKER/LOCATER V4.66.1.0                                                         09/08/2023  16:42:41  PAGE 89


      000000EEH   SFRSYM    DATA     BYTE      SPDR
      000000EFH   SFRSYM    DATA     BYTE      SSCR
      000000D3H   SFRSYM    DATA     BYTE      ADDLYL
      000000DCH   SFRSYM    DATA     BYTE      ADRESL
      00000088H.1 SFRSYM    DATA     BIT       IE0
      00000088H.3 SFRSYM    DATA     BIT       IE1
      0000008FH   SFRSYM    DATA     BYTE      CLKDIV
      000000F0H   SFRSYM    DATA     BYTE      B
      00000091H   SFRSYM    DATA     BYTE      FUNCCR
      0000009AH   SFRSYM    DATA     BYTE      P0TRIS
      000000A1H   SFRSYM    DATA     BYTE      P1TRIS
      000000A2H   SFRSYM    DATA     BYTE      P2TRIS
      000000E0H   SFRSYM    DATA     BYTE      ACC
      000000A3H   SFRSYM    DATA     BYTE      P3TRIS
      000000A8H.4 SFRSYM    DATA     BIT       ES0
      000000A8H.6 SFRSYM    DATA     BIT       ES1
      000000A8H.1 SFRSYM    DATA     BIT       ET0
      000000EDH   SFRSYM    DATA     BYTE      SPSR
      000000A8H.3 SFRSYM    DATA     BIT       ET1
      00000088H.5 SFRSYM    DATA     BIT       TF0
      000000A8H.5 SFRSYM    DATA     BIT       ET2
      00000098H   SFRSYM    DATA     BIT       RI0
      00000088H.7 SFRSYM    DATA     BIT       TF1
      0000008CH   SFRSYM    DATA     BYTE      TH0
      000000A8H   SFRSYM    DATA     BIT       EX0
      00000098H.1 SFRSYM    DATA     BIT       TI0
      00000088H   SFRSYM    DATA     BIT       IT0
      0000008DH   SFRSYM    DATA     BYTE      TH1
      000000A8H.2 SFRSYM    DATA     BIT       EX1
      00000088H.2 SFRSYM    DATA     BIT       IT1
      000000CDH   SFRSYM    DATA     BYTE      TH2
      000000D0H   SFRSYM    DATA     BIT       P
      000000DBH   SFRSYM    DATA     BYTE      TH3
      000000E3H   SFRSYM    DATA     BYTE      TH4
      0000008AH   SFRSYM    DATA     BYTE      TL0
      0000008BH   SFRSYM    DATA     BYTE      TL1
      00000098H.2 SFRSYM    DATA     BIT       U0RB8
      000000CCH   SFRSYM    DATA     BYTE      TL2
      000000B8H.4 SFRSYM    DATA     BIT       PS0
      000000DAH   SFRSYM    DATA     BYTE      TL3
      000000BFH   SFRSYM    DATA     BYTE      BUZCON
      000000B8H.6 SFRSYM    DATA     BIT       PS1
      000000B8H.1 SFRSYM    DATA     BIT       PT0
      00000098H.3 SFRSYM    DATA     BIT       U0TB8
      000000E2H   SFRSYM    DATA     BYTE      TL4
      000000D0H.3 SFRSYM    DATA     BIT       RS0
      000000B8H.3 SFRSYM    DATA     BIT       PT1
      000000D0H.4 SFRSYM    DATA     BIT       RS1
      000000B8H.5 SFRSYM    DATA     BIT       PT2
      00000098H.7 SFRSYM    DATA     BIT       U0SM0
      00000088H.4 SFRSYM    DATA     BIT       TR0
      000000BEH   SFRSYM    DATA     BYTE      BUZDIV
      00000098H.6 SFRSYM    DATA     BIT       U0SM1
      00000088H.6 SFRSYM    DATA     BIT       TR1
      000000B8H   SFRSYM    DATA     BIT       PX0
      00000098H.5 SFRSYM    DATA     BIT       U0SM2
      000000B8H.2 SFRSYM    DATA     BIT       PX1
      000000BDH   SFRSYM    DATA     BYTE      WUTCRH
      00000099H   SFRSYM    DATA     BYTE      SBUF0
      000000EBH   SFRSYM    DATA     BYTE      SBUF1
      000000BCH   SFRSYM    DATA     BYTE      WUTCRL
      00000098H   SFRSYM    DATA     BYTE      SCON0
      000000EAH   SFRSYM    DATA     BYTE      SCON1
      000000C8H   SFRSYM    DATA     BYTE      T2CON
      00000086H   SFRSYM    DATA     BYTE      DPS
LX51 LINKER/LOCATER V4.66.1.0                                                         09/08/2023  16:42:41  PAGE 90


      000000FEH   SFRSYM    DATA     BYTE      MDATA
      000000F6H   SFRSYM    DATA     BYTE      I2CMBUF
      000000F1H   SFRSYM    DATA     BYTE      I2CSADR
      00000098H.4 SFRSYM    DATA     BIT       U0REN
      000000C8H.5 SFRSYM    DATA     BIT       CAPES
      000000FDH   SFRSYM    DATA     BYTE      MADRH
      0000008EH   SFRSYM    DATA     BYTE      CKCON
      000000F3H   SFRSYM    DATA     BYTE      I2CSBUF
      000000FCH   SFRSYM    DATA     BYTE      MADRL
      000000D0H.5 SFRSYM    DATA     BIT       F0
      000000FBH   SFRSYM    DATA     BYTE      MLOCK
      000000D0H   SFRSYM    DATA     BYTE      PSW
      00000097H   SFRSYM    DATA     BYTE      WDCON

      01001E8DH   BLOCK     CODE     ---       LVL=0
      01001E8DH   LINE      CODE     ---       #69
      01001E8DH   LINE      CODE     ---       #70
      01001E8DH   LINE      CODE     ---       #71
      01001E94H   LINE      CODE     ---       #72
      ---         BLOCKEND  ---      ---       LVL=0

      01001E95H   BLOCK     CODE     ---       LVL=0
      01001E95H   LINE      CODE     ---       #80
      01001E95H   LINE      CODE     ---       #81
      01001E95H   LINE      CODE     ---       #82
      01001E9CH   LINE      CODE     ---       #83
      ---         BLOCKEND  ---      ---       LVL=0

      01001E9DH   BLOCK     CODE     ---       LVL=0
      01001E9DH   LINE      CODE     ---       #92
      01001E9DH   LINE      CODE     ---       #93
      01001E9DH   LINE      CODE     ---       #94
      01001EA4H   LINE      CODE     ---       #95
      ---         BLOCKEND  ---      ---       LVL=0

      01001EA5H   BLOCK     CODE     ---       LVL=0
      01001EA5H   LINE      CODE     ---       #103
      01001EA5H   LINE      CODE     ---       #104
      01001EA5H   LINE      CODE     ---       #105
      01001EACH   LINE      CODE     ---       #106
      ---         BLOCKEND  ---      ---       LVL=0

      01001BD2H   BLOCK     CODE     ---       LVL=0
      00000004H   SYMBOL    DATA     WORD      Time
      01001BD2H   LINE      CODE     ---       #115
      01001BD4H   LINE      CODE     ---       #116
      01001BD4H   LINE      CODE     ---       #117
      01001BD9H   LINE      CODE     ---       #118
      01001BDEH   LINE      CODE     ---       #119
      ---         BLOCKEND  ---      ---       LVL=0

      01001EADH   BLOCK     CODE     ---       LVL=0
      01001EADH   LINE      CODE     ---       #128
      01001EADH   LINE      CODE     ---       #129
      01001EADH   LINE      CODE     ---       #130
      01001EB4H   LINE      CODE     ---       #131
      ---         BLOCKEND  ---      ---       LVL=0

      01001EB5H   BLOCK     CODE     ---       LVL=0
      01001EB5H   LINE      CODE     ---       #140
      01001EB5H   LINE      CODE     ---       #141
      01001EB5H   LINE      CODE     ---       #142
      01001EBCH   LINE      CODE     ---       #143
      ---         BLOCKEND  ---      ---       LVL=0

LX51 LINKER/LOCATER V4.66.1.0                                                         09/08/2023  16:42:41  PAGE 91


      01001EBDH   BLOCK     CODE     ---       LVL=0
      01001EBDH   LINE      CODE     ---       #152
      01001EBDH   LINE      CODE     ---       #153
      01001EBDH   LINE      CODE     ---       #154
      01001EC4H   LINE      CODE     ---       #155
      ---         BLOCKEND  ---      ---       LVL=0

      01001EC5H   BLOCK     CODE     ---       LVL=0
      01001EC5H   LINE      CODE     ---       #163
      01001EC5H   LINE      CODE     ---       #164
      01001EC5H   LINE      CODE     ---       #165
      01001ECCH   LINE      CODE     ---       #166
      ---         BLOCKEND  ---      ---       LVL=0

      01001C96H   BLOCK     CODE     ---       LVL=0
      01001C96H   LINE      CODE     ---       #174
      01001C96H   LINE      CODE     ---       #175
      01001C96H   LINE      CODE     ---       #176
      01001CA1H   LINE      CODE     ---       #177
      ---         BLOCKEND  ---      ---       LVL=0

      01001ECDH   BLOCK     CODE     ---       LVL=0
      01001ECDH   LINE      CODE     ---       #185
      01001ECDH   LINE      CODE     ---       #186
      01001ECDH   LINE      CODE     ---       #187
      01001ED4H   LINE      CODE     ---       #188
      ---         BLOCKEND  ---      ---       LVL=0

      01001CA2H   BLOCK     CODE     ---       LVL=0
      01001CA2H   LINE      CODE     ---       #196
      01001CA2H   LINE      CODE     ---       #197
      01001CA2H   LINE      CODE     ---       #198
      01001CADH   LINE      CODE     ---       #199
      ---         BLOCKEND  ---      ---       LVL=0

      ---         MODULE    ---      ---       OPA
      010006E7H   PUBLIC    CODE     ---       _OPA_GetOffsetAdjValue
      010011E6H   PUBLIC    CODE     ---       _OPA_ConfigOffsetAdj
      010013F5H   PUBLIC    CODE     ---       _OPA_GetResult
      01001997H   PUBLIC    CODE     ---       _OPA_Stop
      01001982H   PUBLIC    CODE     ---       _OPA_Start
      0100196DH   PUBLIC    CODE     ---       _OPA_DisableOutput
      01001958H   PUBLIC    CODE     ---       _OPA_EnableOutput
      010012EFH   PUBLIC    CODE     ---       _OPA_ConfigNegative
      0100147EH   PUBLIC    CODE     ---       _OPA_ConfigPositive
      010012C6H   PUBLIC    CODE     ---       _OPA_SetRunMode
      000000C8H   SFRSYM    DATA     BIT       T2I0
      000000C3H   SFRSYM    DATA     BYTE      CCH1
      00000080H   SFRSYM    DATA     BYTE      P0
      000000C8H.1 SFRSYM    DATA     BIT       T2I1
      000000C5H   SFRSYM    DATA     BYTE      CCH2
      00000090H   SFRSYM    DATA     BYTE      P1
      000000C7H   SFRSYM    DATA     BYTE      CCH3
      000000ACH   SFRSYM    DATA     BYTE      P0EXTIE
      000000A0H   SFRSYM    DATA     BYTE      P2
      000000B4H   SFRSYM    DATA     BYTE      P0EXTIF
      000000B0H   SFRSYM    DATA     BYTE      P3
      000000ADH   SFRSYM    DATA     BYTE      P1EXTIE
      000000D0H.6 SFRSYM    DATA     BIT       AC
      000000FFH   SFRSYM    DATA     BYTE      MCTRL
      000000C2H   SFRSYM    DATA     BYTE      CCL1
      000000B5H   SFRSYM    DATA     BYTE      P1EXTIF
      000000AEH   SFRSYM    DATA     BYTE      P2EXTIE
      000000C4H   SFRSYM    DATA     BYTE      CCL2
      000000B6H   SFRSYM    DATA     BYTE      P2EXTIF
LX51 LINKER/LOCATER V4.66.1.0                                                         09/08/2023  16:42:41  PAGE 92


      000000AFH   SFRSYM    DATA     BYTE      P3EXTIE
      000000A8H.7 SFRSYM    DATA     BIT       EA
      000000C6H   SFRSYM    DATA     BYTE      CCL3
      000000B7H   SFRSYM    DATA     BYTE      P3EXTIF
      000000AAH   SFRSYM    DATA     BYTE      EIE2
      000000B2H   SFRSYM    DATA     BYTE      EIF2
      000000C8H.3 SFRSYM    DATA     BIT       T2R0
      000000C8H.4 SFRSYM    DATA     BIT       T2R1
      00000083H   SFRSYM    DATA     BYTE      DPH0
      000000A8H   SFRSYM    DATA     BYTE      IE
      00000085H   SFRSYM    DATA     BYTE      DPH1
      000000B9H   SFRSYM    DATA     BYTE      EIP1
      000000BAH   SFRSYM    DATA     BYTE      EIP2
      00000082H   SFRSYM    DATA     BYTE      DPL0
      00000084H   SFRSYM    DATA     BYTE      DPL1
      000000C8H.6 SFRSYM    DATA     BIT       I3FR
      000000CFH   SFRSYM    DATA     BYTE      T2IE
      00000096H   SFRSYM    DATA     BYTE      TA
      000000C9H   SFRSYM    DATA     BYTE      T2IF
      000000C8H.2 SFRSYM    DATA     BIT       T2CM
      000000DFH   SFRSYM    DATA     BYTE      ADCON0
      000000DEH   SFRSYM    DATA     BYTE      ADCON1
      000000E9H   SFRSYM    DATA     BYTE      ADCON2
      000000B8H   SFRSYM    DATA     BYTE      IP
      000000CEH   SFRSYM    DATA     BYTE      CCEN
      000000D0H.7 SFRSYM    DATA     BIT       CY
      000000D2H   SFRSYM    DATA     BYTE      T34MOD
      00000093H   SFRSYM    DATA     BYTE      DPX0
      00000095H   SFRSYM    DATA     BYTE      DPX1
      000000F4H   SFRSYM    DATA     BYTE      I2CMSA
      000000F5H   SFRSYM    DATA     BYTE      I2CMCR
      00000081H   SFRSYM    DATA     BYTE      SP
      000000D0H.2 SFRSYM    DATA     BIT       OV
      000000F2H   SFRSYM    DATA     BYTE      I2CSCR
      000000C8H.7 SFRSYM    DATA     BIT       T2PS
      000000D1H   SFRSYM    DATA     BYTE      ADCMPC
      000000CBH   SFRSYM    DATA     BYTE      RLDH
      000000D5H   SFRSYM    DATA     BYTE      ADCMPH
      000000CAH   SFRSYM    DATA     BYTE      RLDL
      00000080H   SFRSYM    DATA     BIT       P00
      00000090H   SFRSYM    DATA     BIT       P10
      00000080H.1 SFRSYM    DATA     BIT       P01
      000000F7H   SFRSYM    DATA     BYTE      I2CMTP
      00000099H   SFRSYM    DATA     BYTE      SBUF
      00000087H   SFRSYM    DATA     BYTE      PCON
      000000A0H   SFRSYM    DATA     BIT       P20
      00000090H.1 SFRSYM    DATA     BIT       P11
      00000080H.2 SFRSYM    DATA     BIT       P02
      000000F5H   SFRSYM    DATA     BYTE      I2CMSR
      000000B0H   SFRSYM    DATA     BIT       P30
      000000A0H.1 SFRSYM    DATA     BIT       P21
      00000090H.2 SFRSYM    DATA     BIT       P12
      00000080H.3 SFRSYM    DATA     BIT       P03
      000000D4H   SFRSYM    DATA     BYTE      ADCMPL
      000000B0H.1 SFRSYM    DATA     BIT       P31
      000000A0H.2 SFRSYM    DATA     BIT       P22
      00000090H.3 SFRSYM    DATA     BIT       P13
      00000080H.4 SFRSYM    DATA     BIT       P04
      000000B0H.2 SFRSYM    DATA     BIT       P32
      000000A0H.3 SFRSYM    DATA     BIT       P23
      00000090H.4 SFRSYM    DATA     BIT       P14
      00000080H.5 SFRSYM    DATA     BIT       P05
      00000089H   SFRSYM    DATA     BYTE      TMOD
      00000088H   SFRSYM    DATA     BYTE      TCON
      000000B0H.3 SFRSYM    DATA     BIT       P33
LX51 LINKER/LOCATER V4.66.1.0                                                         09/08/2023  16:42:41  PAGE 93


      000000A0H.4 SFRSYM    DATA     BIT       P24
      00000090H.5 SFRSYM    DATA     BIT       P15
      00000080H.6 SFRSYM    DATA     BIT       P06
      000000B0H.4 SFRSYM    DATA     BIT       P34
      000000A0H.5 SFRSYM    DATA     BIT       P25
      00000090H.6 SFRSYM    DATA     BIT       P16
      00000080H.7 SFRSYM    DATA     BIT       P07
      000000B0H.5 SFRSYM    DATA     BIT       P35
      000000A0H.6 SFRSYM    DATA     BIT       P26
      00000090H.7 SFRSYM    DATA     BIT       P17
      000000F2H   SFRSYM    DATA     BYTE      I2CSSR
      000000B0H.6 SFRSYM    DATA     BIT       P36
      000000A0H.7 SFRSYM    DATA     BIT       P27
      000000ECH   SFRSYM    DATA     BYTE      SPCR
      000000DDH   SFRSYM    DATA     BYTE      ADRESH
      000000B0H.7 SFRSYM    DATA     BIT       P37
      000000EEH   SFRSYM    DATA     BYTE      SPDR
      000000EFH   SFRSYM    DATA     BYTE      SSCR
      000000D3H   SFRSYM    DATA     BYTE      ADDLYL
      000000DCH   SFRSYM    DATA     BYTE      ADRESL
      00000088H.1 SFRSYM    DATA     BIT       IE0
      00000088H.3 SFRSYM    DATA     BIT       IE1
      0000008FH   SFRSYM    DATA     BYTE      CLKDIV
      000000F0H   SFRSYM    DATA     BYTE      B
      00000091H   SFRSYM    DATA     BYTE      FUNCCR
      0000009AH   SFRSYM    DATA     BYTE      P0TRIS
      000000A1H   SFRSYM    DATA     BYTE      P1TRIS
      000000A2H   SFRSYM    DATA     BYTE      P2TRIS
      000000E0H   SFRSYM    DATA     BYTE      ACC
      000000A3H   SFRSYM    DATA     BYTE      P3TRIS
      000000A8H.4 SFRSYM    DATA     BIT       ES0
      000000A8H.6 SFRSYM    DATA     BIT       ES1
      000000A8H.1 SFRSYM    DATA     BIT       ET0
      000000EDH   SFRSYM    DATA     BYTE      SPSR
      000000A8H.3 SFRSYM    DATA     BIT       ET1
      00000088H.5 SFRSYM    DATA     BIT       TF0
      000000A8H.5 SFRSYM    DATA     BIT       ET2
      00000098H   SFRSYM    DATA     BIT       RI0
      00000088H.7 SFRSYM    DATA     BIT       TF1
      0000008CH   SFRSYM    DATA     BYTE      TH0
      000000A8H   SFRSYM    DATA     BIT       EX0
      00000098H.1 SFRSYM    DATA     BIT       TI0
      00000088H   SFRSYM    DATA     BIT       IT0
      0000008DH   SFRSYM    DATA     BYTE      TH1
      000000A8H.2 SFRSYM    DATA     BIT       EX1
      00000088H.2 SFRSYM    DATA     BIT       IT1
      000000CDH   SFRSYM    DATA     BYTE      TH2
      000000D0H   SFRSYM    DATA     BIT       P
      000000DBH   SFRSYM    DATA     BYTE      TH3
      000000E3H   SFRSYM    DATA     BYTE      TH4
      0000008AH   SFRSYM    DATA     BYTE      TL0
      0000008BH   SFRSYM    DATA     BYTE      TL1
      00000098H.2 SFRSYM    DATA     BIT       U0RB8
      000000CCH   SFRSYM    DATA     BYTE      TL2
      000000B8H.4 SFRSYM    DATA     BIT       PS0
      000000DAH   SFRSYM    DATA     BYTE      TL3
      000000BFH   SFRSYM    DATA     BYTE      BUZCON
      000000B8H.6 SFRSYM    DATA     BIT       PS1
      000000B8H.1 SFRSYM    DATA     BIT       PT0
      00000098H.3 SFRSYM    DATA     BIT       U0TB8
      000000E2H   SFRSYM    DATA     BYTE      TL4
      000000D0H.3 SFRSYM    DATA     BIT       RS0
      000000B8H.3 SFRSYM    DATA     BIT       PT1
      000000D0H.4 SFRSYM    DATA     BIT       RS1
      000000B8H.5 SFRSYM    DATA     BIT       PT2
LX51 LINKER/LOCATER V4.66.1.0                                                         09/08/2023  16:42:41  PAGE 94


      00000098H.7 SFRSYM    DATA     BIT       U0SM0
      00000088H.4 SFRSYM    DATA     BIT       TR0
      000000BEH   SFRSYM    DATA     BYTE      BUZDIV
      00000098H.6 SFRSYM    DATA     BIT       U0SM1
      00000088H.6 SFRSYM    DATA     BIT       TR1
      000000B8H   SFRSYM    DATA     BIT       PX0
      00000098H.5 SFRSYM    DATA     BIT       U0SM2
      000000B8H.2 SFRSYM    DATA     BIT       PX1
      000000BDH   SFRSYM    DATA     BYTE      WUTCRH
      00000099H   SFRSYM    DATA     BYTE      SBUF0
      000000EBH   SFRSYM    DATA     BYTE      SBUF1
      000000BCH   SFRSYM    DATA     BYTE      WUTCRL
      00000098H   SFRSYM    DATA     BYTE      SCON0
      000000EAH   SFRSYM    DATA     BYTE      SCON1
      000000C8H   SFRSYM    DATA     BYTE      T2CON
      00000086H   SFRSYM    DATA     BYTE      DPS
      000000FEH   SFRSYM    DATA     BYTE      MDATA
      000000F6H   SFRSYM    DATA     BYTE      I2CMBUF
      000000F1H   SFRSYM    DATA     BYTE      I2CSADR
      00000098H.4 SFRSYM    DATA     BIT       U0REN
      000000C8H.5 SFRSYM    DATA     BIT       CAPES
      000000FDH   SFRSYM    DATA     BYTE      MADRH
      0000008EH   SFRSYM    DATA     BYTE      CKCON
      000000F3H   SFRSYM    DATA     BYTE      I2CSBUF
      000000FCH   SFRSYM    DATA     BYTE      MADRL
      000000D0H.5 SFRSYM    DATA     BIT       F0
      000000FBH   SFRSYM    DATA     BYTE      MLOCK
      000000D0H   SFRSYM    DATA     BYTE      PSW
      00000097H   SFRSYM    DATA     BYTE      WDCON
      01001CAEH   SYMBOL    CODE     ---       OPA_Delay

      010012C6H   BLOCK     CODE     ---       LVL=0
      00000007H   SYMBOL    DATA     BYTE      OPAn
      00000005H   SYMBOL    DATA     BYTE      OpaMode
      010012C6H   BLOCK     CODE     NEAR LAB  LVL=1
      00000006H   SYMBOL    DATA     BYTE      Temp
      ---         BLOCKEND  ---      ---       LVL=1
      010012C6H   LINE      CODE     ---       #70
      010012C6H   LINE      CODE     ---       #71
      010012C6H   LINE      CODE     ---       #72
      010012C6H   LINE      CODE     ---       #74
      010012C9H   LINE      CODE     ---       #75
      010012C9H   LINE      CODE     ---       #76
      010012CEH   LINE      CODE     ---       #77
      010012D1H   LINE      CODE     ---       #78
      010012D8H   LINE      CODE     ---       #79
      010012DAH   LINE      CODE     ---       #80
      010012DAH   LINE      CODE     ---       #81
      010012DDH   LINE      CODE     ---       #82
      010012DDH   LINE      CODE     ---       #83
      010012E2H   LINE      CODE     ---       #84
      010012E5H   LINE      CODE     ---       #85
      010012ECH   LINE      CODE     ---       #86
      010012EEH   LINE      CODE     ---       #87
      010012EEH   LINE      CODE     ---       #88
      ---         BLOCKEND  ---      ---       LVL=0

      0100147EH   BLOCK     CODE     ---       LVL=0
      00000007H   SYMBOL    DATA     BYTE      OPAn
      00000005H   SYMBOL    DATA     BYTE      PositiveSource
      0100147EH   BLOCK     CODE     NEAR LAB  LVL=1
      00000006H   SYMBOL    DATA     BYTE      Temp
      ---         BLOCKEND  ---      ---       LVL=1
      0100147EH   LINE      CODE     ---       #99
      0100147EH   LINE      CODE     ---       #100
LX51 LINKER/LOCATER V4.66.1.0                                                         09/08/2023  16:42:41  PAGE 95


      0100147EH   LINE      CODE     ---       #101
      0100147EH   LINE      CODE     ---       #103
      01001481H   LINE      CODE     ---       #104
      01001481H   LINE      CODE     ---       #105
      01001486H   LINE      CODE     ---       #106
      01001489H   LINE      CODE     ---       #107
      0100148CH   LINE      CODE     ---       #108
      0100148EH   LINE      CODE     ---       #109
      0100148EH   LINE      CODE     ---       #110
      01001491H   LINE      CODE     ---       #111
      01001491H   LINE      CODE     ---       #112
      01001496H   LINE      CODE     ---       #113
      01001499H   LINE      CODE     ---       #114
      0100149CH   LINE      CODE     ---       #115
      0100149EH   LINE      CODE     ---       #116
      0100149EH   LINE      CODE     ---       #117
      ---         BLOCKEND  ---      ---       LVL=0

      010012EFH   BLOCK     CODE     ---       LVL=0
      00000007H   SYMBOL    DATA     BYTE      OPAn
      00000005H   SYMBOL    DATA     BYTE      NegativeSource
      010012EFH   BLOCK     CODE     NEAR LAB  LVL=1
      00000006H   SYMBOL    DATA     BYTE      Temp
      ---         BLOCKEND  ---      ---       LVL=1
      010012EFH   LINE      CODE     ---       #127
      010012EFH   LINE      CODE     ---       #128
      010012EFH   LINE      CODE     ---       #129
      010012EFH   LINE      CODE     ---       #131
      010012F2H   LINE      CODE     ---       #132
      010012F2H   LINE      CODE     ---       #133
      010012F7H   LINE      CODE     ---       #134
      010012FAH   LINE      CODE     ---       #135
      01001301H   LINE      CODE     ---       #136
      01001303H   LINE      CODE     ---       #137
      01001303H   LINE      CODE     ---       #138
      01001306H   LINE      CODE     ---       #139
      01001306H   LINE      CODE     ---       #140
      0100130BH   LINE      CODE     ---       #141
      0100130EH   LINE      CODE     ---       #142
      01001315H   LINE      CODE     ---       #143
      01001317H   LINE      CODE     ---       #144
      01001317H   LINE      CODE     ---       #146
      ---         BLOCKEND  ---      ---       LVL=0

      01001958H   BLOCK     CODE     ---       LVL=0
      00000007H   SYMBOL    DATA     BYTE      OPAn
      01001958H   LINE      CODE     ---       #155
      01001958H   LINE      CODE     ---       #156
      01001958H   LINE      CODE     ---       #157
      0100195BH   LINE      CODE     ---       #158
      0100195BH   LINE      CODE     ---       #159
      01001962H   LINE      CODE     ---       #160
      01001962H   LINE      CODE     ---       #161
      01001965H   LINE      CODE     ---       #162
      01001965H   LINE      CODE     ---       #163
      0100196CH   LINE      CODE     ---       #164
      0100196CH   LINE      CODE     ---       #165
      ---         BLOCKEND  ---      ---       LVL=0

      0100196DH   BLOCK     CODE     ---       LVL=0
      00000007H   SYMBOL    DATA     BYTE      OPAn
      0100196DH   LINE      CODE     ---       #174
      0100196DH   LINE      CODE     ---       #175
      0100196DH   LINE      CODE     ---       #176
      01001970H   LINE      CODE     ---       #177
LX51 LINKER/LOCATER V4.66.1.0                                                         09/08/2023  16:42:41  PAGE 96


      01001970H   LINE      CODE     ---       #178
      01001977H   LINE      CODE     ---       #179
      01001977H   LINE      CODE     ---       #180
      0100197AH   LINE      CODE     ---       #181
      0100197AH   LINE      CODE     ---       #182
      01001981H   LINE      CODE     ---       #183
      01001981H   LINE      CODE     ---       #184
      ---         BLOCKEND  ---      ---       LVL=0

      01001982H   BLOCK     CODE     ---       LVL=0
      00000007H   SYMBOL    DATA     BYTE      OPAn
      01001982H   LINE      CODE     ---       #195
      01001982H   LINE      CODE     ---       #196
      01001982H   LINE      CODE     ---       #197
      01001985H   LINE      CODE     ---       #198
      01001985H   LINE      CODE     ---       #199
      0100198CH   LINE      CODE     ---       #200
      0100198CH   LINE      CODE     ---       #201
      0100198FH   LINE      CODE     ---       #202
      0100198FH   LINE      CODE     ---       #203
      01001996H   LINE      CODE     ---       #204
      01001996H   LINE      CODE     ---       #205
      ---         BLOCKEND  ---      ---       LVL=0

      01001997H   BLOCK     CODE     ---       LVL=0
      00000007H   SYMBOL    DATA     BYTE      OPAn
      01001997H   LINE      CODE     ---       #214
      01001997H   LINE      CODE     ---       #215
      01001997H   LINE      CODE     ---       #216
      0100199AH   LINE      CODE     ---       #217
      0100199AH   LINE      CODE     ---       #218
      010019A1H   LINE      CODE     ---       #219
      010019A1H   LINE      CODE     ---       #220
      010019A4H   LINE      CODE     ---       #221
      010019A4H   LINE      CODE     ---       #222
      010019ABH   LINE      CODE     ---       #223
      010019ABH   LINE      CODE     ---       #224
      ---         BLOCKEND  ---      ---       LVL=0

      010013F5H   BLOCK     CODE     ---       LVL=0
      00000006H   SYMBOL    DATA     BYTE      OPAn
      010013F5H   LINE      CODE     ---       #233
      010013F7H   LINE      CODE     ---       #234
      010013F7H   LINE      CODE     ---       #235
      010013FAH   LINE      CODE     ---       #236
      010013FAH   LINE      CODE     ---       #237
      01001406H   LINE      CODE     ---       #238
      01001406H   LINE      CODE     ---       #239
      01001409H   LINE      CODE     ---       #240
      01001409H   LINE      CODE     ---       #241
      01001415H   LINE      CODE     ---       #242
      01001415H   LINE      CODE     ---       #243
      01001417H   LINE      CODE     ---       #244
      ---         BLOCKEND  ---      ---       LVL=0

      010011E6H   BLOCK     CODE     ---       LVL=0
      00000007H   SYMBOL    DATA     BYTE      OPAn
      00000005H   SYMBOL    DATA     BYTE      OffsetAdj
      00000003H   SYMBOL    DATA     BYTE      AdjVlue
      010011E6H   BLOCK     CODE     NEAR LAB  LVL=1
      00000006H   SYMBOL    DATA     BYTE      Temp
      ---         BLOCKEND  ---      ---       LVL=1
      010011E6H   LINE      CODE     ---       #257
      010011E6H   LINE      CODE     ---       #258
      010011E6H   LINE      CODE     ---       #259
LX51 LINKER/LOCATER V4.66.1.0                                                         09/08/2023  16:42:41  PAGE 97


      010011E6H   LINE      CODE     ---       #261
      010011E9H   LINE      CODE     ---       #262
      010011E9H   LINE      CODE     ---       #263
      010011EEH   LINE      CODE     ---       #264
      010011F1H   LINE      CODE     ---       #265
      010011F6H   LINE      CODE     ---       #266
      010011F8H   LINE      CODE     ---       #267
      010011FDH   LINE      CODE     ---       #268
      010011FDH   LINE      CODE     ---       #269
      01001200H   LINE      CODE     ---       #270
      01001200H   LINE      CODE     ---       #271
      01001205H   LINE      CODE     ---       #272
      01001208H   LINE      CODE     ---       #273
      0100120DH   LINE      CODE     ---       #274
      0100120FH   LINE      CODE     ---       #275
      01001214H   LINE      CODE     ---       #276
      01001214H   LINE      CODE     ---       #277
      ---         BLOCKEND  ---      ---       LVL=0

      01001CAEH   BLOCK     CODE     ---       LVL=0
      01001CAEH   BLOCK     CODE     NEAR LAB  LVL=1
      0000001FH   SYMBOL    DATA     BYTE      i
      ---         BLOCKEND  ---      ---       LVL=1
      01001CAEH   LINE      CODE     ---       #285
      01001CAEH   LINE      CODE     ---       #286
      01001CAEH   LINE      CODE     ---       #288
      01001CB1H   LINE      CODE     ---       #289
      01001CB9H   LINE      CODE     ---       #290
      ---         BLOCKEND  ---      ---       LVL=0

      010006E7H   BLOCK     CODE     ---       LVL=0
      00000031H   SYMBOL    DATA     BYTE      OPAn
      00000002H   SYMBOL    DATA     BYTE      OpaMode
      010006EBH   BLOCK     CODE     NEAR LAB  LVL=1
      00000004H   SYMBOL    DATA     BYTE      temp
      00000003H   SYMBOL    DATA     BYTE      OPAOut
      00000001H   SYMBOL    DATA     BYTE      Adjvalue
      ---         BLOCKEND  ---      ---       LVL=1
      010006E7H   LINE      CODE     ---       #300
      010006EBH   LINE      CODE     ---       #301
      010006EBH   LINE      CODE     ---       #303
      010006EDH   LINE      CODE     ---       #304
      010006F1H   LINE      CODE     ---       #305
      010006F1H   LINE      CODE     ---       #307
      010006F5H   LINE      CODE     ---       #308
      010006F8H   LINE      CODE     ---       #310
      010006FDH   LINE      CODE     ---       #311
      01000702H   LINE      CODE     ---       #313
      01000709H   LINE      CODE     ---       #315
      0100070DH   LINE      CODE     ---       #317
      01000713H   LINE      CODE     ---       #319
      01000718H   LINE      CODE     ---       #321
      0100071BH   LINE      CODE     ---       #322
      01000720H   LINE      CODE     ---       #323
      01000722H   LINE      CODE     ---       #324
      01000722H   LINE      CODE     ---       #325
      01000727H   LINE      CODE     ---       #326
      0100072AH   LINE      CODE     ---       #327
      01000733H   LINE      CODE     ---       #328
      01000733H   LINE      CODE     ---       #329
      01000735H   LINE      CODE     ---       #330
      01000737H   LINE      CODE     ---       #331
      01000737H   LINE      CODE     ---       #332
      0100073BH   LINE      CODE     ---       #334
      01000742H   LINE      CODE     ---       #335
LX51 LINKER/LOCATER V4.66.1.0                                                         09/08/2023  16:42:41  PAGE 98


      01000744H   LINE      CODE     ---       #336
      01000746H   LINE      CODE     ---       #337
      01000746H   LINE      CODE     ---       #339
      0100074CH   LINE      CODE     ---       #340
      0100074CH   LINE      CODE     ---       #342
      01000751H   LINE      CODE     ---       #343
      01000756H   LINE      CODE     ---       #345
      0100075BH   LINE      CODE     ---       #346
      01000760H   LINE      CODE     ---       #347
      01000767H   LINE      CODE     ---       #349
      0100076BH   LINE      CODE     ---       #351
      01000771H   LINE      CODE     ---       #353
      01000776H   LINE      CODE     ---       #355
      01000779H   LINE      CODE     ---       #356
      0100077EH   LINE      CODE     ---       #357
      01000780H   LINE      CODE     ---       #358
      01000780H   LINE      CODE     ---       #359
      01000785H   LINE      CODE     ---       #360
      01000788H   LINE      CODE     ---       #361
      01000791H   LINE      CODE     ---       #362
      01000791H   LINE      CODE     ---       #363
      01000793H   LINE      CODE     ---       #364
      01000795H   LINE      CODE     ---       #365
      01000795H   LINE      CODE     ---       #366
      01000799H   LINE      CODE     ---       #368
      010007A0H   LINE      CODE     ---       #369
      010007A5H   LINE      CODE     ---       #371
      010007A8H   LINE      CODE     ---       #372
      010007A8H   LINE      CODE     ---       #373
      010007AAH   LINE      CODE     ---       #374
      ---         BLOCKEND  ---      ---       LVL=0

      ---         MODULE    ---      ---       PGA
      01000C81H   PUBLIC    CODE     ---       _PGA_GetOffsetAdjValue
      01001EFDH   PUBLIC    CODE     ---       PGA_Stop
      01001EF5H   PUBLIC    CODE     ---       PGA_Start
      01001B57H   PUBLIC    CODE     ---       _PGA_ConfigSampleTime
      01001EEDH   PUBLIC    CODE     ---       PGA_DisableSHA
      01001EE5H   PUBLIC    CODE     ---       PGA_EnableSHA
      01001A85H   PUBLIC    CODE     ---       _PGA_ConfigOffsetAdj
      01001A74H   PUBLIC    CODE     ---       _PGA_ConfigGain
      01001EDDH   PUBLIC    CODE     ---       PGA_DisableOutput
      01001ED5H   PUBLIC    CODE     ---       PGA_EnableOutput
      01001B49H   PUBLIC    CODE     ---       _PGA_ConfigInput
      0100181FH   PUBLIC    CODE     ---       _PGA_EnableNormalMode
      000000C8H   SFRSYM    DATA     BIT       T2I0
      000000C3H   SFRSYM    DATA     BYTE      CCH1
      00000080H   SFRSYM    DATA     BYTE      P0
      000000C8H.1 SFRSYM    DATA     BIT       T2I1
      000000C5H   SFRSYM    DATA     BYTE      CCH2
      00000090H   SFRSYM    DATA     BYTE      P1
      000000C7H   SFRSYM    DATA     BYTE      CCH3
      000000ACH   SFRSYM    DATA     BYTE      P0EXTIE
      000000A0H   SFRSYM    DATA     BYTE      P2
      000000B4H   SFRSYM    DATA     BYTE      P0EXTIF
      000000B0H   SFRSYM    DATA     BYTE      P3
      000000ADH   SFRSYM    DATA     BYTE      P1EXTIE
      000000D0H.6 SFRSYM    DATA     BIT       AC
      000000FFH   SFRSYM    DATA     BYTE      MCTRL
      000000C2H   SFRSYM    DATA     BYTE      CCL1
      000000B5H   SFRSYM    DATA     BYTE      P1EXTIF
      000000AEH   SFRSYM    DATA     BYTE      P2EXTIE
      000000C4H   SFRSYM    DATA     BYTE      CCL2
      000000B6H   SFRSYM    DATA     BYTE      P2EXTIF
      000000AFH   SFRSYM    DATA     BYTE      P3EXTIE
LX51 LINKER/LOCATER V4.66.1.0                                                         09/08/2023  16:42:41  PAGE 99


      000000A8H.7 SFRSYM    DATA     BIT       EA
      000000C6H   SFRSYM    DATA     BYTE      CCL3
      000000B7H   SFRSYM    DATA     BYTE      P3EXTIF
      000000AAH   SFRSYM    DATA     BYTE      EIE2
      000000B2H   SFRSYM    DATA     BYTE      EIF2
      000000C8H.3 SFRSYM    DATA     BIT       T2R0
      000000C8H.4 SFRSYM    DATA     BIT       T2R1
      00000083H   SFRSYM    DATA     BYTE      DPH0
      000000A8H   SFRSYM    DATA     BYTE      IE
      00000085H   SFRSYM    DATA     BYTE      DPH1
      000000B9H   SFRSYM    DATA     BYTE      EIP1
      000000BAH   SFRSYM    DATA     BYTE      EIP2
      00000082H   SFRSYM    DATA     BYTE      DPL0
      00000084H   SFRSYM    DATA     BYTE      DPL1
      000000C8H.6 SFRSYM    DATA     BIT       I3FR
      000000CFH   SFRSYM    DATA     BYTE      T2IE
      00000096H   SFRSYM    DATA     BYTE      TA
      000000C9H   SFRSYM    DATA     BYTE      T2IF
      000000C8H.2 SFRSYM    DATA     BIT       T2CM
      000000DFH   SFRSYM    DATA     BYTE      ADCON0
      000000DEH   SFRSYM    DATA     BYTE      ADCON1
      000000E9H   SFRSYM    DATA     BYTE      ADCON2
      000000B8H   SFRSYM    DATA     BYTE      IP
      000000CEH   SFRSYM    DATA     BYTE      CCEN
      000000D0H.7 SFRSYM    DATA     BIT       CY
      000000D2H   SFRSYM    DATA     BYTE      T34MOD
      00000093H   SFRSYM    DATA     BYTE      DPX0
      00000095H   SFRSYM    DATA     BYTE      DPX1
      000000F4H   SFRSYM    DATA     BYTE      I2CMSA
      000000F5H   SFRSYM    DATA     BYTE      I2CMCR
      00000081H   SFRSYM    DATA     BYTE      SP
      000000D0H.2 SFRSYM    DATA     BIT       OV
      000000F2H   SFRSYM    DATA     BYTE      I2CSCR
      000000C8H.7 SFRSYM    DATA     BIT       T2PS
      000000D1H   SFRSYM    DATA     BYTE      ADCMPC
      000000CBH   SFRSYM    DATA     BYTE      RLDH
      000000D5H   SFRSYM    DATA     BYTE      ADCMPH
      000000CAH   SFRSYM    DATA     BYTE      RLDL
      00000080H   SFRSYM    DATA     BIT       P00
      00000090H   SFRSYM    DATA     BIT       P10
      00000080H.1 SFRSYM    DATA     BIT       P01
      000000F7H   SFRSYM    DATA     BYTE      I2CMTP
      00000099H   SFRSYM    DATA     BYTE      SBUF
      00000087H   SFRSYM    DATA     BYTE      PCON
      000000A0H   SFRSYM    DATA     BIT       P20
      00000090H.1 SFRSYM    DATA     BIT       P11
      00000080H.2 SFRSYM    DATA     BIT       P02
      000000F5H   SFRSYM    DATA     BYTE      I2CMSR
      000000B0H   SFRSYM    DATA     BIT       P30
      000000A0H.1 SFRSYM    DATA     BIT       P21
      00000090H.2 SFRSYM    DATA     BIT       P12
      00000080H.3 SFRSYM    DATA     BIT       P03
      000000D4H   SFRSYM    DATA     BYTE      ADCMPL
      000000B0H.1 SFRSYM    DATA     BIT       P31
      000000A0H.2 SFRSYM    DATA     BIT       P22
      00000090H.3 SFRSYM    DATA     BIT       P13
      00000080H.4 SFRSYM    DATA     BIT       P04
      000000B0H.2 SFRSYM    DATA     BIT       P32
      000000A0H.3 SFRSYM    DATA     BIT       P23
      00000090H.4 SFRSYM    DATA     BIT       P14
      00000080H.5 SFRSYM    DATA     BIT       P05
      00000089H   SFRSYM    DATA     BYTE      TMOD
      00000088H   SFRSYM    DATA     BYTE      TCON
      000000B0H.3 SFRSYM    DATA     BIT       P33
      000000A0H.4 SFRSYM    DATA     BIT       P24
LX51 LINKER/LOCATER V4.66.1.0                                                         09/08/2023  16:42:41  PAGE 100


      00000090H.5 SFRSYM    DATA     BIT       P15
      00000080H.6 SFRSYM    DATA     BIT       P06
      000000B0H.4 SFRSYM    DATA     BIT       P34
      000000A0H.5 SFRSYM    DATA     BIT       P25
      00000090H.6 SFRSYM    DATA     BIT       P16
      00000080H.7 SFRSYM    DATA     BIT       P07
      000000B0H.5 SFRSYM    DATA     BIT       P35
      000000A0H.6 SFRSYM    DATA     BIT       P26
      00000090H.7 SFRSYM    DATA     BIT       P17
      000000F2H   SFRSYM    DATA     BYTE      I2CSSR
      000000B0H.6 SFRSYM    DATA     BIT       P36
      000000A0H.7 SFRSYM    DATA     BIT       P27
      000000ECH   SFRSYM    DATA     BYTE      SPCR
      000000DDH   SFRSYM    DATA     BYTE      ADRESH
      000000B0H.7 SFRSYM    DATA     BIT       P37
      000000EEH   SFRSYM    DATA     BYTE      SPDR
      000000EFH   SFRSYM    DATA     BYTE      SSCR
      000000D3H   SFRSYM    DATA     BYTE      ADDLYL
      000000DCH   SFRSYM    DATA     BYTE      ADRESL
      00000088H.1 SFRSYM    DATA     BIT       IE0
      00000088H.3 SFRSYM    DATA     BIT       IE1
      0000008FH   SFRSYM    DATA     BYTE      CLKDIV
      000000F0H   SFRSYM    DATA     BYTE      B
      00000091H   SFRSYM    DATA     BYTE      FUNCCR
      0000009AH   SFRSYM    DATA     BYTE      P0TRIS
      000000A1H   SFRSYM    DATA     BYTE      P1TRIS
      000000A2H   SFRSYM    DATA     BYTE      P2TRIS
      000000E0H   SFRSYM    DATA     BYTE      ACC
      000000A3H   SFRSYM    DATA     BYTE      P3TRIS
      000000A8H.4 SFRSYM    DATA     BIT       ES0
      000000A8H.6 SFRSYM    DATA     BIT       ES1
      000000A8H.1 SFRSYM    DATA     BIT       ET0
      000000EDH   SFRSYM    DATA     BYTE      SPSR
      000000A8H.3 SFRSYM    DATA     BIT       ET1
      00000088H.5 SFRSYM    DATA     BIT       TF0
      000000A8H.5 SFRSYM    DATA     BIT       ET2
      00000098H   SFRSYM    DATA     BIT       RI0
      00000088H.7 SFRSYM    DATA     BIT       TF1
      0000008CH   SFRSYM    DATA     BYTE      TH0
      000000A8H   SFRSYM    DATA     BIT       EX0
      00000098H.1 SFRSYM    DATA     BIT       TI0
      00000088H   SFRSYM    DATA     BIT       IT0
      0000008DH   SFRSYM    DATA     BYTE      TH1
      000000A8H.2 SFRSYM    DATA     BIT       EX1
      00000088H.2 SFRSYM    DATA     BIT       IT1
      000000CDH   SFRSYM    DATA     BYTE      TH2
      000000D0H   SFRSYM    DATA     BIT       P
      000000DBH   SFRSYM    DATA     BYTE      TH3
      000000E3H   SFRSYM    DATA     BYTE      TH4
      0000008AH   SFRSYM    DATA     BYTE      TL0
      0000008BH   SFRSYM    DATA     BYTE      TL1
      00000098H.2 SFRSYM    DATA     BIT       U0RB8
      000000CCH   SFRSYM    DATA     BYTE      TL2
      000000B8H.4 SFRSYM    DATA     BIT       PS0
      000000DAH   SFRSYM    DATA     BYTE      TL3
      000000BFH   SFRSYM    DATA     BYTE      BUZCON
      000000B8H.6 SFRSYM    DATA     BIT       PS1
      000000B8H.1 SFRSYM    DATA     BIT       PT0
      00000098H.3 SFRSYM    DATA     BIT       U0TB8
      000000E2H   SFRSYM    DATA     BYTE      TL4
      000000D0H.3 SFRSYM    DATA     BIT       RS0
      000000B8H.3 SFRSYM    DATA     BIT       PT1
      000000D0H.4 SFRSYM    DATA     BIT       RS1
      000000B8H.5 SFRSYM    DATA     BIT       PT2
      00000098H.7 SFRSYM    DATA     BIT       U0SM0
LX51 LINKER/LOCATER V4.66.1.0                                                         09/08/2023  16:42:41  PAGE 101


      00000088H.4 SFRSYM    DATA     BIT       TR0
      000000BEH   SFRSYM    DATA     BYTE      BUZDIV
      00000098H.6 SFRSYM    DATA     BIT       U0SM1
      00000088H.6 SFRSYM    DATA     BIT       TR1
      000000B8H   SFRSYM    DATA     BIT       PX0
      00000098H.5 SFRSYM    DATA     BIT       U0SM2
      000000B8H.2 SFRSYM    DATA     BIT       PX1
      000000BDH   SFRSYM    DATA     BYTE      WUTCRH
      00000099H   SFRSYM    DATA     BYTE      SBUF0
      000000EBH   SFRSYM    DATA     BYTE      SBUF1
      000000BCH   SFRSYM    DATA     BYTE      WUTCRL
      00000098H   SFRSYM    DATA     BYTE      SCON0
      000000EAH   SFRSYM    DATA     BYTE      SCON1
      000000C8H   SFRSYM    DATA     BYTE      T2CON
      00000086H   SFRSYM    DATA     BYTE      DPS
      000000FEH   SFRSYM    DATA     BYTE      MDATA
      000000F6H   SFRSYM    DATA     BYTE      I2CMBUF
      000000F1H   SFRSYM    DATA     BYTE      I2CSADR
      00000098H.4 SFRSYM    DATA     BIT       U0REN
      000000C8H.5 SFRSYM    DATA     BIT       CAPES
      000000FDH   SFRSYM    DATA     BYTE      MADRH
      0000008EH   SFRSYM    DATA     BYTE      CKCON
      000000F3H   SFRSYM    DATA     BYTE      I2CSBUF
      000000FCH   SFRSYM    DATA     BYTE      MADRL
      000000D0H.5 SFRSYM    DATA     BIT       F0
      000000FBH   SFRSYM    DATA     BYTE      MLOCK
      000000D0H   SFRSYM    DATA     BYTE      PSW
      00000097H   SFRSYM    DATA     BYTE      WDCON
      01001CBAH   SYMBOL    CODE     ---       PGA_GetOutValue
      01001CC6H   SYMBOL    CODE     ---       PGA_Delay

      0100181FH   BLOCK     CODE     ---       LVL=0
      00000007H   SYMBOL    DATA     BYTE      PGAMode
      0100181FH   BLOCK     CODE     NEAR LAB  LVL=1
      00000006H   SYMBOL    DATA     BYTE      Temp
      ---         BLOCKEND  ---      ---       LVL=1
      0100181FH   LINE      CODE     ---       #69
      0100181FH   LINE      CODE     ---       #70
      0100181FH   LINE      CODE     ---       #71
      0100181FH   LINE      CODE     ---       #73
      01001826H   LINE      CODE     ---       #74
      0100182BH   LINE      CODE     ---       #75
      0100182EH   LINE      CODE     ---       #76
      01001835H   LINE      CODE     ---       #77
      01001837H   LINE      CODE     ---       #78
      ---         BLOCKEND  ---      ---       LVL=0

      01001B49H   BLOCK     CODE     ---       LVL=0
      00000007H   SYMBOL    DATA     BYTE      Port
      01001B49H   BLOCK     CODE     NEAR LAB  LVL=1
      00000006H   SYMBOL    DATA     BYTE      Temp
      ---         BLOCKEND  ---      ---       LVL=1
      01001B49H   LINE      CODE     ---       #90
      01001B49H   LINE      CODE     ---       #91
      01001B49H   LINE      CODE     ---       #92
      01001B49H   LINE      CODE     ---       #94
      01001B4EH   LINE      CODE     ---       #95
      01001B51H   LINE      CODE     ---       #96
      01001B54H   LINE      CODE     ---       #97
      01001B56H   LINE      CODE     ---       #98
      ---         BLOCKEND  ---      ---       LVL=0

      01001ED5H   BLOCK     CODE     ---       LVL=0
      01001ED5H   LINE      CODE     ---       #107
      01001ED5H   LINE      CODE     ---       #108
LX51 LINKER/LOCATER V4.66.1.0                                                         09/08/2023  16:42:41  PAGE 102


      01001ED5H   LINE      CODE     ---       #109
      01001EDCH   LINE      CODE     ---       #110
      ---         BLOCKEND  ---      ---       LVL=0

      01001EDDH   BLOCK     CODE     ---       LVL=0
      01001EDDH   LINE      CODE     ---       #118
      01001EDDH   LINE      CODE     ---       #119
      01001EDDH   LINE      CODE     ---       #120
      01001EE4H   LINE      CODE     ---       #121
      ---         BLOCKEND  ---      ---       LVL=0

      01001A74H   BLOCK     CODE     ---       LVL=0
      00000007H   SYMBOL    DATA     BYTE      Gain
      01001A74H   BLOCK     CODE     NEAR LAB  LVL=1
      00000006H   SYMBOL    DATA     BYTE      Temp
      ---         BLOCKEND  ---      ---       LVL=1
      01001A74H   LINE      CODE     ---       #137
      01001A74H   LINE      CODE     ---       #138
      01001A74H   LINE      CODE     ---       #139
      01001A74H   LINE      CODE     ---       #141
      01001A79H   LINE      CODE     ---       #142
      01001A7CH   LINE      CODE     ---       #143
      01001A82H   LINE      CODE     ---       #144
      01001A84H   LINE      CODE     ---       #145
      ---         BLOCKEND  ---      ---       LVL=0

      01001A85H   BLOCK     CODE     ---       LVL=0
      00000007H   SYMBOL    DATA     BYTE      OffsetAdj
      00000005H   SYMBOL    DATA     BYTE      AdjVlue
      01001A85H   BLOCK     CODE     NEAR LAB  LVL=1
      00000006H   SYMBOL    DATA     BYTE      Temp
      ---         BLOCKEND  ---      ---       LVL=1
      01001A85H   LINE      CODE     ---       #156
      01001A85H   LINE      CODE     ---       #157
      01001A85H   LINE      CODE     ---       #158
      01001A85H   LINE      CODE     ---       #160
      01001A8AH   LINE      CODE     ---       #161
      01001A8DH   LINE      CODE     ---       #162
      01001A90H   LINE      CODE     ---       #163
      01001A92H   LINE      CODE     ---       #164
      01001A95H   LINE      CODE     ---       #165
      ---         BLOCKEND  ---      ---       LVL=0

      01001EE5H   BLOCK     CODE     ---       LVL=0
      01001EE5H   LINE      CODE     ---       #175
      01001EE5H   LINE      CODE     ---       #176
      01001EE5H   LINE      CODE     ---       #177
      01001EECH   LINE      CODE     ---       #178
      ---         BLOCKEND  ---      ---       LVL=0

      01001EEDH   BLOCK     CODE     ---       LVL=0
      01001EEDH   LINE      CODE     ---       #187
      01001EEDH   LINE      CODE     ---       #188
      01001EEDH   LINE      CODE     ---       #189
      01001EF4H   LINE      CODE     ---       #190
      ---         BLOCKEND  ---      ---       LVL=0

      01001B57H   BLOCK     CODE     ---       LVL=0
      00000007H   SYMBOL    DATA     BYTE      SampleTime
      01001B57H   BLOCK     CODE     NEAR LAB  LVL=1
      00000006H   SYMBOL    DATA     BYTE      Temp
      ---         BLOCKEND  ---      ---       LVL=1
      01001B57H   LINE      CODE     ---       #199
      01001B57H   LINE      CODE     ---       #200
      01001B57H   LINE      CODE     ---       #201
LX51 LINKER/LOCATER V4.66.1.0                                                         09/08/2023  16:42:41  PAGE 103


      01001B57H   LINE      CODE     ---       #203
      01001B5CH   LINE      CODE     ---       #204
      01001B5FH   LINE      CODE     ---       #205
      01001B62H   LINE      CODE     ---       #206
      01001B64H   LINE      CODE     ---       #207
      ---         BLOCKEND  ---      ---       LVL=0

      01001EF5H   BLOCK     CODE     ---       LVL=0
      01001EF5H   LINE      CODE     ---       #217
      01001EF5H   LINE      CODE     ---       #218
      01001EF5H   LINE      CODE     ---       #219
      01001EFCH   LINE      CODE     ---       #220
      ---         BLOCKEND  ---      ---       LVL=0

      01001EFDH   BLOCK     CODE     ---       LVL=0
      01001EFDH   LINE      CODE     ---       #228
      01001EFDH   LINE      CODE     ---       #229
      01001EFDH   LINE      CODE     ---       #230
      01001F04H   LINE      CODE     ---       #231
      ---         BLOCKEND  ---      ---       LVL=0

      01001CBAH   BLOCK     CODE     ---       LVL=0
      01001CBAH   LINE      CODE     ---       #241
      01001CBAH   LINE      CODE     ---       #242
      01001CBAH   LINE      CODE     ---       #243
      01001CC5H   LINE      CODE     ---       #244
      ---         BLOCKEND  ---      ---       LVL=0

      01001CC6H   BLOCK     CODE     ---       LVL=0
      01001CC6H   BLOCK     CODE     NEAR LAB  LVL=1
      00000032H   SYMBOL    DATA     BYTE      i
      ---         BLOCKEND  ---      ---       LVL=1
      01001CC6H   LINE      CODE     ---       #254
      01001CC6H   LINE      CODE     ---       #255
      01001CC6H   LINE      CODE     ---       #257
      01001CC9H   LINE      CODE     ---       #258
      01001CD1H   LINE      CODE     ---       #259
      ---         BLOCKEND  ---      ---       LVL=0

      01000C81H   BLOCK     CODE     ---       LVL=0
      00000007H   SYMBOL    DATA     BYTE      AdjMode
      01000C81H   BLOCK     CODE     NEAR LAB  LVL=1
      00000003H   SYMBOL    DATA     BYTE      temp
      00000004H   SYMBOL    DATA     BYTE      PgaOut
      00000006H   SYMBOL    DATA     BYTE      Adjvalue
      00000005H   SYMBOL    DATA     BYTE      PGACON3Temp
      ---         BLOCKEND  ---      ---       LVL=1
      01000C81H   LINE      CODE     ---       #270
      01000C81H   LINE      CODE     ---       #271
      01000C81H   LINE      CODE     ---       #273
      01000C83H   LINE      CODE     ---       #276
      01000C86H   LINE      CODE     ---       #277
      01000C89H   LINE      CODE     ---       #279
      01000C8CH   LINE      CODE     ---       #280
      01000C8CH   LINE      CODE     ---       #281
      01000C92H   LINE      CODE     ---       #282
      01000C92H   LINE      CODE     ---       #283
      01000C95H   LINE      CODE     ---       #284
      01000C95H   LINE      CODE     ---       #285
      01000C9BH   LINE      CODE     ---       #286
      01000CA1H   LINE      CODE     ---       #287
      01000CA1H   LINE      CODE     ---       #288
      01000CA4H   LINE      CODE     ---       #289
      01000CA4H   LINE      CODE     ---       #290
      01000CAAH   LINE      CODE     ---       #291
LX51 LINKER/LOCATER V4.66.1.0                                                         09/08/2023  16:42:41  PAGE 104


      01000CB0H   LINE      CODE     ---       #292
      01000CB0H   LINE      CODE     ---       #294
      01000CB6H   LINE      CODE     ---       #296
      01000CB9H   LINE      CODE     ---       #298
      01000CBEH   LINE      CODE     ---       #300
      01000CC1H   LINE      CODE     ---       #301
      01000CC6H   LINE      CODE     ---       #302
      01000CC8H   LINE      CODE     ---       #303
      01000CC8H   LINE      CODE     ---       #304
      01000CCBH   LINE      CODE     ---       #305
      01000CCEH   LINE      CODE     ---       #306
      01000CD3H   LINE      CODE     ---       #307
      01000CD6H   LINE      CODE     ---       #308
      01000CDDH   LINE      CODE     ---       #309
      01000CDDH   LINE      CODE     ---       #310
      01000CDFH   LINE      CODE     ---       #311
      01000CE1H   LINE      CODE     ---       #312
      01000CE1H   LINE      CODE     ---       #313
      01000CE5H   LINE      CODE     ---       #315
      01000CE8H   LINE      CODE     ---       #316
      01000CEDH   LINE      CODE     ---       #317
      01000CEFH   LINE      CODE     ---       #318
      ---         BLOCKEND  ---      ---       LVL=0

      ---         MODULE    ---      ---       SPI
      01001F9EH   PUBLIC    CODE     ---       SPI_DisableIntFlag
      01001F9AH   PUBLIC    CODE     ---       SPI_EnableIntFlag
      0100000EH   PUBLIC    CODE     ---       SPI_ClearWriteErrorIntFlag
      01001DF4H   PUBLIC    CODE     ---       SPI_GetWriteErrorIntFlag
      01000006H   PUBLIC    CODE     ---       SPI_ClearTransferIntFlag
      01001DEAH   PUBLIC    CODE     ---       SPI_GetTransferIntFlag
      01001F96H   PUBLIC    CODE     ---       SPI_DisableSlaveMode
      01001F92H   PUBLIC    CODE     ---       SPI_EnableSlaveMode
      01001F8EH   PUBLIC    CODE     ---       SPI_DisableMasterMode
      01001F8AH   PUBLIC    CODE     ---       SPI_EnableMasterMode
      01001899H   PUBLIC    CODE     ---       _SPI_ConfigRunMode
      01001D4FH   PUBLIC    CODE     ---       _SPI_ConfigClk
      01001F86H   PUBLIC    CODE     ---       SPI_Stop
      01001F82H   PUBLIC    CODE     ---       SPI_Start
      000000C8H   SFRSYM    DATA     BIT       T2I0
      000000C3H   SFRSYM    DATA     BYTE      CCH1
      00000080H   SFRSYM    DATA     BYTE      P0
      000000C8H.1 SFRSYM    DATA     BIT       T2I1
      000000C5H   SFRSYM    DATA     BYTE      CCH2
      00000090H   SFRSYM    DATA     BYTE      P1
      000000C7H   SFRSYM    DATA     BYTE      CCH3
      000000ACH   SFRSYM    DATA     BYTE      P0EXTIE
      000000A0H   SFRSYM    DATA     BYTE      P2
      000000B4H   SFRSYM    DATA     BYTE      P0EXTIF
      000000B0H   SFRSYM    DATA     BYTE      P3
      000000ADH   SFRSYM    DATA     BYTE      P1EXTIE
      000000D0H.6 SFRSYM    DATA     BIT       AC
      000000FFH   SFRSYM    DATA     BYTE      MCTRL
      000000C2H   SFRSYM    DATA     BYTE      CCL1
      000000B5H   SFRSYM    DATA     BYTE      P1EXTIF
      000000AEH   SFRSYM    DATA     BYTE      P2EXTIE
      000000C4H   SFRSYM    DATA     BYTE      CCL2
      000000B6H   SFRSYM    DATA     BYTE      P2EXTIF
      000000AFH   SFRSYM    DATA     BYTE      P3EXTIE
      000000A8H.7 SFRSYM    DATA     BIT       EA
      000000C6H   SFRSYM    DATA     BYTE      CCL3
      000000B7H   SFRSYM    DATA     BYTE      P3EXTIF
      000000AAH   SFRSYM    DATA     BYTE      EIE2
      000000B2H   SFRSYM    DATA     BYTE      EIF2
      000000C8H.3 SFRSYM    DATA     BIT       T2R0
LX51 LINKER/LOCATER V4.66.1.0                                                         09/08/2023  16:42:41  PAGE 105


      000000C8H.4 SFRSYM    DATA     BIT       T2R1
      00000083H   SFRSYM    DATA     BYTE      DPH0
      000000A8H   SFRSYM    DATA     BYTE      IE
      00000085H   SFRSYM    DATA     BYTE      DPH1
      000000B9H   SFRSYM    DATA     BYTE      EIP1
      000000BAH   SFRSYM    DATA     BYTE      EIP2
      00000082H   SFRSYM    DATA     BYTE      DPL0
      00000084H   SFRSYM    DATA     BYTE      DPL1
      000000C8H.6 SFRSYM    DATA     BIT       I3FR
      000000CFH   SFRSYM    DATA     BYTE      T2IE
      00000096H   SFRSYM    DATA     BYTE      TA
      000000C9H   SFRSYM    DATA     BYTE      T2IF
      000000C8H.2 SFRSYM    DATA     BIT       T2CM
      000000DFH   SFRSYM    DATA     BYTE      ADCON0
      000000DEH   SFRSYM    DATA     BYTE      ADCON1
      000000E9H   SFRSYM    DATA     BYTE      ADCON2
      000000B8H   SFRSYM    DATA     BYTE      IP
      000000CEH   SFRSYM    DATA     BYTE      CCEN
      000000D0H.7 SFRSYM    DATA     BIT       CY
      000000D2H   SFRSYM    DATA     BYTE      T34MOD
      00000093H   SFRSYM    DATA     BYTE      DPX0
      00000095H   SFRSYM    DATA     BYTE      DPX1
      000000F4H   SFRSYM    DATA     BYTE      I2CMSA
      000000F5H   SFRSYM    DATA     BYTE      I2CMCR
      00000081H   SFRSYM    DATA     BYTE      SP
      000000D0H.2 SFRSYM    DATA     BIT       OV
      000000F2H   SFRSYM    DATA     BYTE      I2CSCR
      000000C8H.7 SFRSYM    DATA     BIT       T2PS
      000000D1H   SFRSYM    DATA     BYTE      ADCMPC
      000000CBH   SFRSYM    DATA     BYTE      RLDH
      000000D5H   SFRSYM    DATA     BYTE      ADCMPH
      000000CAH   SFRSYM    DATA     BYTE      RLDL
      00000080H   SFRSYM    DATA     BIT       P00
      00000090H   SFRSYM    DATA     BIT       P10
      00000080H.1 SFRSYM    DATA     BIT       P01
      000000F7H   SFRSYM    DATA     BYTE      I2CMTP
      00000099H   SFRSYM    DATA     BYTE      SBUF
      00000087H   SFRSYM    DATA     BYTE      PCON
      000000A0H   SFRSYM    DATA     BIT       P20
      00000090H.1 SFRSYM    DATA     BIT       P11
      00000080H.2 SFRSYM    DATA     BIT       P02
      000000F5H   SFRSYM    DATA     BYTE      I2CMSR
      000000B0H   SFRSYM    DATA     BIT       P30
      000000A0H.1 SFRSYM    DATA     BIT       P21
      00000090H.2 SFRSYM    DATA     BIT       P12
      00000080H.3 SFRSYM    DATA     BIT       P03
      000000D4H   SFRSYM    DATA     BYTE      ADCMPL
      000000B0H.1 SFRSYM    DATA     BIT       P31
      000000A0H.2 SFRSYM    DATA     BIT       P22
      00000090H.3 SFRSYM    DATA     BIT       P13
      00000080H.4 SFRSYM    DATA     BIT       P04
      000000B0H.2 SFRSYM    DATA     BIT       P32
      000000A0H.3 SFRSYM    DATA     BIT       P23
      00000090H.4 SFRSYM    DATA     BIT       P14
      00000080H.5 SFRSYM    DATA     BIT       P05
      00000089H   SFRSYM    DATA     BYTE      TMOD
      00000088H   SFRSYM    DATA     BYTE      TCON
      000000B0H.3 SFRSYM    DATA     BIT       P33
      000000A0H.4 SFRSYM    DATA     BIT       P24
      00000090H.5 SFRSYM    DATA     BIT       P15
      00000080H.6 SFRSYM    DATA     BIT       P06
      000000B0H.4 SFRSYM    DATA     BIT       P34
      000000A0H.5 SFRSYM    DATA     BIT       P25
      00000090H.6 SFRSYM    DATA     BIT       P16
      00000080H.7 SFRSYM    DATA     BIT       P07
LX51 LINKER/LOCATER V4.66.1.0                                                         09/08/2023  16:42:41  PAGE 106


      000000B0H.5 SFRSYM    DATA     BIT       P35
      000000A0H.6 SFRSYM    DATA     BIT       P26
      00000090H.7 SFRSYM    DATA     BIT       P17
      000000F2H   SFRSYM    DATA     BYTE      I2CSSR
      000000B0H.6 SFRSYM    DATA     BIT       P36
      000000A0H.7 SFRSYM    DATA     BIT       P27
      000000ECH   SFRSYM    DATA     BYTE      SPCR
      000000DDH   SFRSYM    DATA     BYTE      ADRESH
      000000B0H.7 SFRSYM    DATA     BIT       P37
      000000EEH   SFRSYM    DATA     BYTE      SPDR
      000000EFH   SFRSYM    DATA     BYTE      SSCR
      000000D3H   SFRSYM    DATA     BYTE      ADDLYL
      000000DCH   SFRSYM    DATA     BYTE      ADRESL
      00000088H.1 SFRSYM    DATA     BIT       IE0
      00000088H.3 SFRSYM    DATA     BIT       IE1
      0000008FH   SFRSYM    DATA     BYTE      CLKDIV
      000000F0H   SFRSYM    DATA     BYTE      B
      00000091H   SFRSYM    DATA     BYTE      FUNCCR
      0000009AH   SFRSYM    DATA     BYTE      P0TRIS
      000000A1H   SFRSYM    DATA     BYTE      P1TRIS
      000000A2H   SFRSYM    DATA     BYTE      P2TRIS
      000000E0H   SFRSYM    DATA     BYTE      ACC
      000000A3H   SFRSYM    DATA     BYTE      P3TRIS
      000000A8H.4 SFRSYM    DATA     BIT       ES0
      000000A8H.6 SFRSYM    DATA     BIT       ES1
      000000A8H.1 SFRSYM    DATA     BIT       ET0
      000000EDH   SFRSYM    DATA     BYTE      SPSR
      000000A8H.3 SFRSYM    DATA     BIT       ET1
      00000088H.5 SFRSYM    DATA     BIT       TF0
      000000A8H.5 SFRSYM    DATA     BIT       ET2
      00000098H   SFRSYM    DATA     BIT       RI0
      00000088H.7 SFRSYM    DATA     BIT       TF1
      0000008CH   SFRSYM    DATA     BYTE      TH0
      000000A8H   SFRSYM    DATA     BIT       EX0
      00000098H.1 SFRSYM    DATA     BIT       TI0
      00000088H   SFRSYM    DATA     BIT       IT0
      0000008DH   SFRSYM    DATA     BYTE      TH1
      000000A8H.2 SFRSYM    DATA     BIT       EX1
      00000088H.2 SFRSYM    DATA     BIT       IT1
      000000CDH   SFRSYM    DATA     BYTE      TH2
      000000D0H   SFRSYM    DATA     BIT       P
      000000DBH   SFRSYM    DATA     BYTE      TH3
      000000E3H   SFRSYM    DATA     BYTE      TH4
      0000008AH   SFRSYM    DATA     BYTE      TL0
      0000008BH   SFRSYM    DATA     BYTE      TL1
      00000098H.2 SFRSYM    DATA     BIT       U0RB8
      000000CCH   SFRSYM    DATA     BYTE      TL2
      000000B8H.4 SFRSYM    DATA     BIT       PS0
      000000DAH   SFRSYM    DATA     BYTE      TL3
      000000BFH   SFRSYM    DATA     BYTE      BUZCON
      000000B8H.6 SFRSYM    DATA     BIT       PS1
      000000B8H.1 SFRSYM    DATA     BIT       PT0
      00000098H.3 SFRSYM    DATA     BIT       U0TB8
      000000E2H   SFRSYM    DATA     BYTE      TL4
      000000D0H.3 SFRSYM    DATA     BIT       RS0
      000000B8H.3 SFRSYM    DATA     BIT       PT1
      000000D0H.4 SFRSYM    DATA     BIT       RS1
      000000B8H.5 SFRSYM    DATA     BIT       PT2
      00000098H.7 SFRSYM    DATA     BIT       U0SM0
      00000088H.4 SFRSYM    DATA     BIT       TR0
      000000BEH   SFRSYM    DATA     BYTE      BUZDIV
      00000098H.6 SFRSYM    DATA     BIT       U0SM1
      00000088H.6 SFRSYM    DATA     BIT       TR1
      000000B8H   SFRSYM    DATA     BIT       PX0
      00000098H.5 SFRSYM    DATA     BIT       U0SM2
LX51 LINKER/LOCATER V4.66.1.0                                                         09/08/2023  16:42:41  PAGE 107


      000000B8H.2 SFRSYM    DATA     BIT       PX1
      000000BDH   SFRSYM    DATA     BYTE      WUTCRH
      00000099H   SFRSYM    DATA     BYTE      SBUF0
      000000EBH   SFRSYM    DATA     BYTE      SBUF1
      000000BCH   SFRSYM    DATA     BYTE      WUTCRL
      00000098H   SFRSYM    DATA     BYTE      SCON0
      000000EAH   SFRSYM    DATA     BYTE      SCON1
      000000C8H   SFRSYM    DATA     BYTE      T2CON
      00000086H   SFRSYM    DATA     BYTE      DPS
      000000FEH   SFRSYM    DATA     BYTE      MDATA
      000000F6H   SFRSYM    DATA     BYTE      I2CMBUF
      000000F1H   SFRSYM    DATA     BYTE      I2CSADR
      00000098H.4 SFRSYM    DATA     BIT       U0REN
      000000C8H.5 SFRSYM    DATA     BIT       CAPES
      000000FDH   SFRSYM    DATA     BYTE      MADRH
      0000008EH   SFRSYM    DATA     BYTE      CKCON
      000000F3H   SFRSYM    DATA     BYTE      I2CSBUF
      000000FCH   SFRSYM    DATA     BYTE      MADRL
      000000D0H.5 SFRSYM    DATA     BIT       F0
      000000FBH   SFRSYM    DATA     BYTE      MLOCK
      000000D0H   SFRSYM    DATA     BYTE      PSW
      00000097H   SFRSYM    DATA     BYTE      WDCON

      01001F82H   BLOCK     CODE     ---       LVL=0
      01001F82H   LINE      CODE     ---       #67
      01001F82H   LINE      CODE     ---       #68
      01001F82H   LINE      CODE     ---       #69
      01001F85H   LINE      CODE     ---       #70
      ---         BLOCKEND  ---      ---       LVL=0

      01001F86H   BLOCK     CODE     ---       LVL=0
      01001F86H   LINE      CODE     ---       #78
      01001F86H   LINE      CODE     ---       #79
      01001F86H   LINE      CODE     ---       #80
      01001F89H   LINE      CODE     ---       #81
      ---         BLOCKEND  ---      ---       LVL=0

      01001D4FH   BLOCK     CODE     ---       LVL=0
      00000007H   SYMBOL    DATA     BYTE      SPIClkDiv
      01001D4FH   BLOCK     CODE     NEAR LAB  LVL=1
      00000006H   SYMBOL    DATA     BYTE      Temp
      ---         BLOCKEND  ---      ---       LVL=1
      01001D4FH   LINE      CODE     ---       #89
      01001D4FH   LINE      CODE     ---       #90
      01001D4FH   LINE      CODE     ---       #91
      01001D4FH   LINE      CODE     ---       #93
      01001D51H   LINE      CODE     ---       #94
      01001D54H   LINE      CODE     ---       #95
      01001D57H   LINE      CODE     ---       #96
      01001D59H   LINE      CODE     ---       #97
      ---         BLOCKEND  ---      ---       LVL=0

      01001899H   BLOCK     CODE     ---       LVL=0
      00000007H   SYMBOL    DATA     BYTE      ClkPositive
      00000005H   SYMBOL    DATA     BYTE      ClkPhash
      00000003H   SYMBOL    DATA     BYTE      NSSMode
      01001899H   BLOCK     CODE     NEAR LAB  LVL=1
      00000006H   SYMBOL    DATA     BYTE      Temp
      ---         BLOCKEND  ---      ---       LVL=1
      01001899H   LINE      CODE     ---       #113
      01001899H   LINE      CODE     ---       #114
      01001899H   LINE      CODE     ---       #115
      01001899H   LINE      CODE     ---       #117
      0100189BH   LINE      CODE     ---       #118
      0100189EH   LINE      CODE     ---       #119
LX51 LINKER/LOCATER V4.66.1.0                                                         09/08/2023  16:42:41  PAGE 108


      010018A2H   LINE      CODE     ---       #120
      010018A4H   LINE      CODE     ---       #122
      010018A6H   LINE      CODE     ---       #123
      010018A9H   LINE      CODE     ---       #124
      010018ACH   LINE      CODE     ---       #125
      010018AEH   LINE      CODE     ---       #126
      ---         BLOCKEND  ---      ---       LVL=0

      01001F8AH   BLOCK     CODE     ---       LVL=0
      01001F8AH   LINE      CODE     ---       #135
      01001F8AH   LINE      CODE     ---       #136
      01001F8AH   LINE      CODE     ---       #137
      01001F8DH   LINE      CODE     ---       #138
      ---         BLOCKEND  ---      ---       LVL=0

      01001F8EH   BLOCK     CODE     ---       LVL=0
      01001F8EH   LINE      CODE     ---       #146
      01001F8EH   LINE      CODE     ---       #147
      01001F8EH   LINE      CODE     ---       #148
      01001F91H   LINE      CODE     ---       #149
      ---         BLOCKEND  ---      ---       LVL=0

      01001F92H   BLOCK     CODE     ---       LVL=0
      01001F92H   LINE      CODE     ---       #157
      01001F92H   LINE      CODE     ---       #158
      01001F92H   LINE      CODE     ---       #159
      01001F95H   LINE      CODE     ---       #161
      ---         BLOCKEND  ---      ---       LVL=0

      01001F96H   BLOCK     CODE     ---       LVL=0
      01001F96H   LINE      CODE     ---       #169
      01001F96H   LINE      CODE     ---       #170
      01001F96H   LINE      CODE     ---       #171
      01001F99H   LINE      CODE     ---       #172
      ---         BLOCKEND  ---      ---       LVL=0

      01001DEAH   BLOCK     CODE     ---       LVL=0
      01001DEAH   LINE      CODE     ---       #182
      01001DEAH   LINE      CODE     ---       #184
      01001DEAH   LINE      CODE     ---       #185
      01001DF3H   LINE      CODE     ---       #186
      ---         BLOCKEND  ---      ---       LVL=0

      01000006H   BLOCK     CODE     ---       LVL=0
      01000006H   BLOCK     CODE     NEAR LAB  LVL=1
      00000007H   SYMBOL    DATA     BYTE      temp
      ---         BLOCKEND  ---      ---       LVL=1
      01000006H   LINE      CODE     ---       #194
      01000006H   LINE      CODE     ---       #195
      01000006H   LINE      CODE     ---       #197
      01000008H   LINE      CODE     ---       #198
      0100000AH   LINE      CODE     ---       #199
      ---         BLOCKEND  ---      ---       LVL=0

      01001DF4H   BLOCK     CODE     ---       LVL=0
      01001DF4H   LINE      CODE     ---       #207
      01001DF4H   LINE      CODE     ---       #208
      01001DF4H   LINE      CODE     ---       #209
      01001DFDH   LINE      CODE     ---       #210
      ---         BLOCKEND  ---      ---       LVL=0

      0100000EH   BLOCK     CODE     ---       LVL=0
      0100000EH   BLOCK     CODE     NEAR LAB  LVL=1
      00000007H   SYMBOL    DATA     BYTE      temp
      ---         BLOCKEND  ---      ---       LVL=1
LX51 LINKER/LOCATER V4.66.1.0                                                         09/08/2023  16:42:41  PAGE 109


      0100000EH   LINE      CODE     ---       #218
      0100000EH   LINE      CODE     ---       #219
      0100000EH   LINE      CODE     ---       #221
      01000010H   LINE      CODE     ---       #222
      01000012H   LINE      CODE     ---       #223
      ---         BLOCKEND  ---      ---       LVL=0

      01001F9AH   BLOCK     CODE     ---       LVL=0
      01001F9AH   LINE      CODE     ---       #231
      01001F9AH   LINE      CODE     ---       #232
      01001F9AH   LINE      CODE     ---       #233
      01001F9DH   LINE      CODE     ---       #234
      ---         BLOCKEND  ---      ---       LVL=0

      01001F9EH   BLOCK     CODE     ---       LVL=0
      01001F9EH   LINE      CODE     ---       #242
      01001F9EH   LINE      CODE     ---       #243
      01001F9EH   LINE      CODE     ---       #244
      01001FA1H   LINE      CODE     ---       #245
      ---         BLOCKEND  ---      ---       LVL=0

      ---         MODULE    ---      ---       SYSTEM
      01001A96H   PUBLIC    CODE     ---       _SYS_ConfigWUTTime
      01001B73H   PUBLIC    CODE     ---       _SYS_ConfigWUTCLK
      01001FB2H   PUBLIC    CODE     ---       SYS_DisableWakeUpTrig
      01001FAEH   PUBLIC    CODE     ---       SYS_EnableWakeUpTrig
      01001CEAH   PUBLIC    CODE     ---       SYS_EnterIdle
      01001CDEH   PUBLIC    CODE     ---       SYS_EnterStop
      01001FAAH   PUBLIC    CODE     ---       SYS_DisableWakeUp
      01001FA6H   PUBLIC    CODE     ---       SYS_EnableWakeUp
      01001FA2H   PUBLIC    CODE     ---       SYS_ClearPowerOnResetFlag
      01001E08H   PUBLIC    CODE     ---       SYS_GetPowerOnResetFlag
      010017B5H   PUBLIC    CODE     ---       SYS_DisableSoftwareReset
      0100179AH   PUBLIC    CODE     ---       SYS_EnableSoftwareReset
      0100177FH   PUBLIC    CODE     ---       SYS_ClearWDTResetFlag
      01001DFEH   PUBLIC    CODE     ---       SYS_GetWDTResetFlag
      01001764H   PUBLIC    CODE     ---       SYS_DisableWDTReset
      01001749H   PUBLIC    CODE     ---       SYS_EnableWDTReset
      01001F25H   PUBLIC    CODE     ---       SYS_ClearLVDIntFlag
      01001CD2H   PUBLIC    CODE     ---       SYS_GetLVDIntFlag
      01001F1DH   PUBLIC    CODE     ---       SYS_DisableLVDInt
      01001F15H   PUBLIC    CODE     ---       SYS_EnableLVDInt
      01001B65H   PUBLIC    CODE     ---       _SYS_ConfigLVD
      01001F0DH   PUBLIC    CODE     ---       SYS_DisableLVD
      01001F05H   PUBLIC    CODE     ---       SYS_EnableLVD
      000000C8H   SFRSYM    DATA     BIT       T2I0
      000000C3H   SFRSYM    DATA     BYTE      CCH1
      00000080H   SFRSYM    DATA     BYTE      P0
      000000C8H.1 SFRSYM    DATA     BIT       T2I1
      000000C5H   SFRSYM    DATA     BYTE      CCH2
      00000090H   SFRSYM    DATA     BYTE      P1
      000000C7H   SFRSYM    DATA     BYTE      CCH3
      000000ACH   SFRSYM    DATA     BYTE      P0EXTIE
      000000A0H   SFRSYM    DATA     BYTE      P2
      000000B4H   SFRSYM    DATA     BYTE      P0EXTIF
      000000B0H   SFRSYM    DATA     BYTE      P3
      000000ADH   SFRSYM    DATA     BYTE      P1EXTIE
      000000D0H.6 SFRSYM    DATA     BIT       AC
      000000FFH   SFRSYM    DATA     BYTE      MCTRL
      000000C2H   SFRSYM    DATA     BYTE      CCL1
      000000B5H   SFRSYM    DATA     BYTE      P1EXTIF
      000000AEH   SFRSYM    DATA     BYTE      P2EXTIE
      000000C4H   SFRSYM    DATA     BYTE      CCL2
      000000B6H   SFRSYM    DATA     BYTE      P2EXTIF
      000000AFH   SFRSYM    DATA     BYTE      P3EXTIE
LX51 LINKER/LOCATER V4.66.1.0                                                         09/08/2023  16:42:41  PAGE 110


      000000A8H.7 SFRSYM    DATA     BIT       EA
      000000C6H   SFRSYM    DATA     BYTE      CCL3
      000000B7H   SFRSYM    DATA     BYTE      P3EXTIF
      000000AAH   SFRSYM    DATA     BYTE      EIE2
      000000B2H   SFRSYM    DATA     BYTE      EIF2
      000000C8H.3 SFRSYM    DATA     BIT       T2R0
      000000C8H.4 SFRSYM    DATA     BIT       T2R1
      00000083H   SFRSYM    DATA     BYTE      DPH0
      000000A8H   SFRSYM    DATA     BYTE      IE
      00000085H   SFRSYM    DATA     BYTE      DPH1
      000000B9H   SFRSYM    DATA     BYTE      EIP1
      000000BAH   SFRSYM    DATA     BYTE      EIP2
      00000082H   SFRSYM    DATA     BYTE      DPL0
      00000084H   SFRSYM    DATA     BYTE      DPL1
      000000C8H.6 SFRSYM    DATA     BIT       I3FR
      000000CFH   SFRSYM    DATA     BYTE      T2IE
      00000096H   SFRSYM    DATA     BYTE      TA
      000000C9H   SFRSYM    DATA     BYTE      T2IF
      000000C8H.2 SFRSYM    DATA     BIT       T2CM
      000000DFH   SFRSYM    DATA     BYTE      ADCON0
      000000DEH   SFRSYM    DATA     BYTE      ADCON1
      000000E9H   SFRSYM    DATA     BYTE      ADCON2
      000000B8H   SFRSYM    DATA     BYTE      IP
      000000CEH   SFRSYM    DATA     BYTE      CCEN
      000000D0H.7 SFRSYM    DATA     BIT       CY
      000000D2H   SFRSYM    DATA     BYTE      T34MOD
      00000093H   SFRSYM    DATA     BYTE      DPX0
      00000095H   SFRSYM    DATA     BYTE      DPX1
      000000F4H   SFRSYM    DATA     BYTE      I2CMSA
      000000F5H   SFRSYM    DATA     BYTE      I2CMCR
      00000081H   SFRSYM    DATA     BYTE      SP
      000000D0H.2 SFRSYM    DATA     BIT       OV
      000000F2H   SFRSYM    DATA     BYTE      I2CSCR
      000000C8H.7 SFRSYM    DATA     BIT       T2PS
      000000D1H   SFRSYM    DATA     BYTE      ADCMPC
      000000CBH   SFRSYM    DATA     BYTE      RLDH
      000000D5H   SFRSYM    DATA     BYTE      ADCMPH
      000000CAH   SFRSYM    DATA     BYTE      RLDL
      00000080H   SFRSYM    DATA     BIT       P00
      00000090H   SFRSYM    DATA     BIT       P10
      00000080H.1 SFRSYM    DATA     BIT       P01
      000000F7H   SFRSYM    DATA     BYTE      I2CMTP
      00000099H   SFRSYM    DATA     BYTE      SBUF
      00000087H   SFRSYM    DATA     BYTE      PCON
      000000A0H   SFRSYM    DATA     BIT       P20
      00000090H.1 SFRSYM    DATA     BIT       P11
      00000080H.2 SFRSYM    DATA     BIT       P02
      000000F5H   SFRSYM    DATA     BYTE      I2CMSR
      000000B0H   SFRSYM    DATA     BIT       P30
      000000A0H.1 SFRSYM    DATA     BIT       P21
      00000090H.2 SFRSYM    DATA     BIT       P12
      00000080H.3 SFRSYM    DATA     BIT       P03
      000000D4H   SFRSYM    DATA     BYTE      ADCMPL
      000000B0H.1 SFRSYM    DATA     BIT       P31
      000000A0H.2 SFRSYM    DATA     BIT       P22
      00000090H.3 SFRSYM    DATA     BIT       P13
      00000080H.4 SFRSYM    DATA     BIT       P04
      000000B0H.2 SFRSYM    DATA     BIT       P32
      000000A0H.3 SFRSYM    DATA     BIT       P23
      00000090H.4 SFRSYM    DATA     BIT       P14
      00000080H.5 SFRSYM    DATA     BIT       P05
      00000089H   SFRSYM    DATA     BYTE      TMOD
      00000088H   SFRSYM    DATA     BYTE      TCON
      000000B0H.3 SFRSYM    DATA     BIT       P33
      000000A0H.4 SFRSYM    DATA     BIT       P24
LX51 LINKER/LOCATER V4.66.1.0                                                         09/08/2023  16:42:41  PAGE 111


      00000090H.5 SFRSYM    DATA     BIT       P15
      00000080H.6 SFRSYM    DATA     BIT       P06
      000000B0H.4 SFRSYM    DATA     BIT       P34
      000000A0H.5 SFRSYM    DATA     BIT       P25
      00000090H.6 SFRSYM    DATA     BIT       P16
      00000080H.7 SFRSYM    DATA     BIT       P07
      000000B0H.5 SFRSYM    DATA     BIT       P35
      000000A0H.6 SFRSYM    DATA     BIT       P26
      00000090H.7 SFRSYM    DATA     BIT       P17
      000000F2H   SFRSYM    DATA     BYTE      I2CSSR
      000000B0H.6 SFRSYM    DATA     BIT       P36
      000000A0H.7 SFRSYM    DATA     BIT       P27
      000000ECH   SFRSYM    DATA     BYTE      SPCR
      000000DDH   SFRSYM    DATA     BYTE      ADRESH
      000000B0H.7 SFRSYM    DATA     BIT       P37
      000000EEH   SFRSYM    DATA     BYTE      SPDR
      000000EFH   SFRSYM    DATA     BYTE      SSCR
      000000D3H   SFRSYM    DATA     BYTE      ADDLYL
      000000DCH   SFRSYM    DATA     BYTE      ADRESL
      00000088H.1 SFRSYM    DATA     BIT       IE0
      00000088H.3 SFRSYM    DATA     BIT       IE1
      0000008FH   SFRSYM    DATA     BYTE      CLKDIV
      000000F0H   SFRSYM    DATA     BYTE      B
      00000091H   SFRSYM    DATA     BYTE      FUNCCR
      0000009AH   SFRSYM    DATA     BYTE      P0TRIS
      000000A1H   SFRSYM    DATA     BYTE      P1TRIS
      000000A2H   SFRSYM    DATA     BYTE      P2TRIS
      000000E0H   SFRSYM    DATA     BYTE      ACC
      000000A3H   SFRSYM    DATA     BYTE      P3TRIS
      000000A8H.4 SFRSYM    DATA     BIT       ES0
      000000A8H.6 SFRSYM    DATA     BIT       ES1
      000000A8H.1 SFRSYM    DATA     BIT       ET0
      000000EDH   SFRSYM    DATA     BYTE      SPSR
      000000A8H.3 SFRSYM    DATA     BIT       ET1
      00000088H.5 SFRSYM    DATA     BIT       TF0
      000000A8H.5 SFRSYM    DATA     BIT       ET2
      00000098H   SFRSYM    DATA     BIT       RI0
      00000088H.7 SFRSYM    DATA     BIT       TF1
      0000008CH   SFRSYM    DATA     BYTE      TH0
      000000A8H   SFRSYM    DATA     BIT       EX0
      00000098H.1 SFRSYM    DATA     BIT       TI0
      00000088H   SFRSYM    DATA     BIT       IT0
      0000008DH   SFRSYM    DATA     BYTE      TH1
      000000A8H.2 SFRSYM    DATA     BIT       EX1
      00000088H.2 SFRSYM    DATA     BIT       IT1
      000000CDH   SFRSYM    DATA     BYTE      TH2
      000000D0H   SFRSYM    DATA     BIT       P
      000000DBH   SFRSYM    DATA     BYTE      TH3
      000000E3H   SFRSYM    DATA     BYTE      TH4
      0000008AH   SFRSYM    DATA     BYTE      TL0
      0000008BH   SFRSYM    DATA     BYTE      TL1
      00000098H.2 SFRSYM    DATA     BIT       U0RB8
      000000CCH   SFRSYM    DATA     BYTE      TL2
      000000B8H.4 SFRSYM    DATA     BIT       PS0
      000000DAH   SFRSYM    DATA     BYTE      TL3
      000000BFH   SFRSYM    DATA     BYTE      BUZCON
      000000B8H.6 SFRSYM    DATA     BIT       PS1
      000000B8H.1 SFRSYM    DATA     BIT       PT0
      00000098H.3 SFRSYM    DATA     BIT       U0TB8
      000000E2H   SFRSYM    DATA     BYTE      TL4
      000000D0H.3 SFRSYM    DATA     BIT       RS0
      000000B8H.3 SFRSYM    DATA     BIT       PT1
      000000D0H.4 SFRSYM    DATA     BIT       RS1
      000000B8H.5 SFRSYM    DATA     BIT       PT2
      00000098H.7 SFRSYM    DATA     BIT       U0SM0
LX51 LINKER/LOCATER V4.66.1.0                                                         09/08/2023  16:42:41  PAGE 112


      00000088H.4 SFRSYM    DATA     BIT       TR0
      000000BEH   SFRSYM    DATA     BYTE      BUZDIV
      00000098H.6 SFRSYM    DATA     BIT       U0SM1
      00000088H.6 SFRSYM    DATA     BIT       TR1
      000000B8H   SFRSYM    DATA     BIT       PX0
      00000098H.5 SFRSYM    DATA     BIT       U0SM2
      000000B8H.2 SFRSYM    DATA     BIT       PX1
      000000BDH   SFRSYM    DATA     BYTE      WUTCRH
      00000099H   SFRSYM    DATA     BYTE      SBUF0
      000000EBH   SFRSYM    DATA     BYTE      SBUF1
      000000BCH   SFRSYM    DATA     BYTE      WUTCRL
      00000098H   SFRSYM    DATA     BYTE      SCON0
      000000EAH   SFRSYM    DATA     BYTE      SCON1
      000000C8H   SFRSYM    DATA     BYTE      T2CON
      00000086H   SFRSYM    DATA     BYTE      DPS
      000000FEH   SFRSYM    DATA     BYTE      MDATA
      000000F6H   SFRSYM    DATA     BYTE      I2CMBUF
      000000F1H   SFRSYM    DATA     BYTE      I2CSADR
      00000098H.4 SFRSYM    DATA     BIT       U0REN
      000000C8H.5 SFRSYM    DATA     BIT       CAPES
      000000FDH   SFRSYM    DATA     BYTE      MADRH
      0000008EH   SFRSYM    DATA     BYTE      CKCON
      000000F3H   SFRSYM    DATA     BYTE      I2CSBUF
      000000FCH   SFRSYM    DATA     BYTE      MADRL
      000000D0H.5 SFRSYM    DATA     BIT       F0
      000000FBH   SFRSYM    DATA     BYTE      MLOCK
      000000D0H   SFRSYM    DATA     BYTE      PSW
      00000097H   SFRSYM    DATA     BYTE      WDCON

      01001F05H   BLOCK     CODE     ---       LVL=0
      01001F05H   LINE      CODE     ---       #68
      01001F05H   LINE      CODE     ---       #69
      01001F05H   LINE      CODE     ---       #70
      01001F0CH   LINE      CODE     ---       #71
      ---         BLOCKEND  ---      ---       LVL=0

      01001F0DH   BLOCK     CODE     ---       LVL=0
      01001F0DH   LINE      CODE     ---       #79
      01001F0DH   LINE      CODE     ---       #80
      01001F0DH   LINE      CODE     ---       #81
      01001F14H   LINE      CODE     ---       #82
      ---         BLOCKEND  ---      ---       LVL=0

      01001B65H   BLOCK     CODE     ---       LVL=0
      00000007H   SYMBOL    DATA     BYTE      LVDValue
      01001B65H   BLOCK     CODE     NEAR LAB  LVL=1
      00000006H   SYMBOL    DATA     BYTE      Temp
      ---         BLOCKEND  ---      ---       LVL=1
      01001B65H   LINE      CODE     ---       #97
      01001B65H   LINE      CODE     ---       #98
      01001B65H   LINE      CODE     ---       #99
      01001B65H   LINE      CODE     ---       #101
      01001B6AH   LINE      CODE     ---       #102
      01001B6DH   LINE      CODE     ---       #103
      01001B70H   LINE      CODE     ---       #104
      01001B72H   LINE      CODE     ---       #105
      ---         BLOCKEND  ---      ---       LVL=0

      01001F15H   BLOCK     CODE     ---       LVL=0
      01001F15H   LINE      CODE     ---       #114
      01001F15H   LINE      CODE     ---       #115
      01001F15H   LINE      CODE     ---       #116
      01001F1CH   LINE      CODE     ---       #117
      ---         BLOCKEND  ---      ---       LVL=0

LX51 LINKER/LOCATER V4.66.1.0                                                         09/08/2023  16:42:41  PAGE 113


      01001F1DH   BLOCK     CODE     ---       LVL=0
      01001F1DH   LINE      CODE     ---       #125
      01001F1DH   LINE      CODE     ---       #126
      01001F1DH   LINE      CODE     ---       #127
      01001F24H   LINE      CODE     ---       #128
      ---         BLOCKEND  ---      ---       LVL=0

      01001CD2H   BLOCK     CODE     ---       LVL=0
      01001CD2H   LINE      CODE     ---       #137
      01001CD2H   LINE      CODE     ---       #138
      01001CD2H   LINE      CODE     ---       #139
      01001CDDH   LINE      CODE     ---       #140
      ---         BLOCKEND  ---      ---       LVL=0

      01001F25H   BLOCK     CODE     ---       LVL=0
      01001F25H   LINE      CODE     ---       #149
      01001F25H   LINE      CODE     ---       #150
      01001F25H   LINE      CODE     ---       #151
      01001F2CH   LINE      CODE     ---       #152
      ---         BLOCKEND  ---      ---       LVL=0

      01001749H   BLOCK     CODE     ---       LVL=0
      01001749H   LINE      CODE     ---       #163
      01001749H   LINE      CODE     ---       #164
      01001749H   LINE      CODE     ---       #165
      0100174CH   LINE      CODE     ---       #166
      0100174CH   LINE      CODE     ---       #167
      0100174EH   LINE      CODE     ---       #168
      01001751H   LINE      CODE     ---       #169
      01001754H   LINE      CODE     ---       #170
      01001757H   LINE      CODE     ---       #171
      01001759H   LINE      CODE     ---       #172
      0100175AH   LINE      CODE     ---       #174
      0100175AH   LINE      CODE     ---       #175
      0100175DH   LINE      CODE     ---       #176
      01001760H   LINE      CODE     ---       #177
      01001763H   LINE      CODE     ---       #178
      01001763H   LINE      CODE     ---       #179
      ---         BLOCKEND  ---      ---       LVL=0

      01001764H   BLOCK     CODE     ---       LVL=0
      01001764H   LINE      CODE     ---       #188
      01001764H   LINE      CODE     ---       #189
      01001764H   LINE      CODE     ---       #190
      01001767H   LINE      CODE     ---       #191
      01001767H   LINE      CODE     ---       #192
      01001769H   LINE      CODE     ---       #193
      0100176CH   LINE      CODE     ---       #194
      0100176FH   LINE      CODE     ---       #195
      01001772H   LINE      CODE     ---       #196
      01001774H   LINE      CODE     ---       #197
      01001775H   LINE      CODE     ---       #199
      01001775H   LINE      CODE     ---       #200
      01001778H   LINE      CODE     ---       #201
      0100177BH   LINE      CODE     ---       #202
      0100177EH   LINE      CODE     ---       #203
      0100177EH   LINE      CODE     ---       #204
      ---         BLOCKEND  ---      ---       LVL=0

      01001DFEH   BLOCK     CODE     ---       LVL=0
      01001DFEH   LINE      CODE     ---       #213
      01001DFEH   LINE      CODE     ---       #214
      01001DFEH   LINE      CODE     ---       #215
      01001E07H   LINE      CODE     ---       #216
      ---         BLOCKEND  ---      ---       LVL=0
LX51 LINKER/LOCATER V4.66.1.0                                                         09/08/2023  16:42:41  PAGE 114



      0100177FH   BLOCK     CODE     ---       LVL=0
      0100177FH   LINE      CODE     ---       #225
      0100177FH   LINE      CODE     ---       #226
      0100177FH   LINE      CODE     ---       #227
      01001782H   LINE      CODE     ---       #228
      01001782H   LINE      CODE     ---       #229
      01001784H   LINE      CODE     ---       #230
      01001787H   LINE      CODE     ---       #231
      0100178AH   LINE      CODE     ---       #232
      0100178DH   LINE      CODE     ---       #233
      0100178FH   LINE      CODE     ---       #234
      01001790H   LINE      CODE     ---       #236
      01001790H   LINE      CODE     ---       #237
      01001793H   LINE      CODE     ---       #238
      01001796H   LINE      CODE     ---       #239
      01001799H   LINE      CODE     ---       #241
      01001799H   LINE      CODE     ---       #242
      ---         BLOCKEND  ---      ---       LVL=0

      0100179AH   BLOCK     CODE     ---       LVL=0
      0100179AH   LINE      CODE     ---       #252
      0100179AH   LINE      CODE     ---       #253
      0100179AH   LINE      CODE     ---       #254
      0100179DH   LINE      CODE     ---       #255
      0100179DH   LINE      CODE     ---       #256
      0100179FH   LINE      CODE     ---       #257
      010017A2H   LINE      CODE     ---       #258
      010017A5H   LINE      CODE     ---       #259
      010017A8H   LINE      CODE     ---       #260
      010017AAH   LINE      CODE     ---       #261
      010017ABH   LINE      CODE     ---       #263
      010017ABH   LINE      CODE     ---       #264
      010017AEH   LINE      CODE     ---       #265
      010017B1H   LINE      CODE     ---       #266
      010017B4H   LINE      CODE     ---       #267
      010017B4H   LINE      CODE     ---       #268
      ---         BLOCKEND  ---      ---       LVL=0

      010017B5H   BLOCK     CODE     ---       LVL=0
      010017B5H   LINE      CODE     ---       #277
      010017B5H   LINE      CODE     ---       #278
      010017B5H   LINE      CODE     ---       #279
      010017B8H   LINE      CODE     ---       #280
      010017B8H   LINE      CODE     ---       #281
      010017BAH   LINE      CODE     ---       #282
      010017BDH   LINE      CODE     ---       #283
      010017C0H   LINE      CODE     ---       #284
      010017C3H   LINE      CODE     ---       #285
      010017C5H   LINE      CODE     ---       #286
      010017C6H   LINE      CODE     ---       #288
      010017C6H   LINE      CODE     ---       #289
      010017C9H   LINE      CODE     ---       #290
      010017CCH   LINE      CODE     ---       #291
      010017CFH   LINE      CODE     ---       #292
      010017CFH   LINE      CODE     ---       #293
      ---         BLOCKEND  ---      ---       LVL=0

      01001E08H   BLOCK     CODE     ---       LVL=0
      01001E08H   LINE      CODE     ---       #302
      01001E08H   LINE      CODE     ---       #303
      01001E08H   LINE      CODE     ---       #304
      01001E11H   LINE      CODE     ---       #305
      ---         BLOCKEND  ---      ---       LVL=0

LX51 LINKER/LOCATER V4.66.1.0                                                         09/08/2023  16:42:41  PAGE 115


      01001FA2H   BLOCK     CODE     ---       LVL=0
      01001FA2H   LINE      CODE     ---       #314
      01001FA2H   LINE      CODE     ---       #315
      01001FA2H   LINE      CODE     ---       #316
      01001FA5H   LINE      CODE     ---       #317
      ---         BLOCKEND  ---      ---       LVL=0

      01001FA6H   BLOCK     CODE     ---       LVL=0
      01001FA6H   LINE      CODE     ---       #328
      01001FA6H   LINE      CODE     ---       #329
      01001FA6H   LINE      CODE     ---       #330
      01001FA9H   LINE      CODE     ---       #331
      ---         BLOCKEND  ---      ---       LVL=0

      01001FAAH   BLOCK     CODE     ---       LVL=0
      01001FAAH   LINE      CODE     ---       #340
      01001FAAH   LINE      CODE     ---       #341
      01001FAAH   LINE      CODE     ---       #342
      01001FADH   LINE      CODE     ---       #343
      ---         BLOCKEND  ---      ---       LVL=0

      01001CDEH   BLOCK     CODE     ---       LVL=0
      01001CDEH   LINE      CODE     ---       #353
      01001CDEH   LINE      CODE     ---       #354
      01001CDEH   LINE      CODE     ---       #355
      01001CDFH   LINE      CODE     ---       #356
      01001CE0H   LINE      CODE     ---       #357
      01001CE3H   LINE      CODE     ---       #358
      01001CE4H   LINE      CODE     ---       #359
      01001CE5H   LINE      CODE     ---       #360
      01001CE6H   LINE      CODE     ---       #361
      01001CE7H   LINE      CODE     ---       #362
      01001CE8H   LINE      CODE     ---       #363
      01001CE9H   LINE      CODE     ---       #364
      ---         BLOCKEND  ---      ---       LVL=0

      01001CEAH   BLOCK     CODE     ---       LVL=0
      01001CEAH   LINE      CODE     ---       #373
      01001CEAH   LINE      CODE     ---       #374
      01001CEAH   LINE      CODE     ---       #375
      01001CEBH   LINE      CODE     ---       #376
      01001CECH   LINE      CODE     ---       #377
      01001CEFH   LINE      CODE     ---       #378
      01001CF0H   LINE      CODE     ---       #379
      01001CF1H   LINE      CODE     ---       #380
      01001CF2H   LINE      CODE     ---       #381
      01001CF3H   LINE      CODE     ---       #382
      01001CF4H   LINE      CODE     ---       #383
      01001CF5H   LINE      CODE     ---       #384
      ---         BLOCKEND  ---      ---       LVL=0

      01001FAEH   BLOCK     CODE     ---       LVL=0
      01001FAEH   LINE      CODE     ---       #394
      01001FAEH   LINE      CODE     ---       #395
      01001FAEH   LINE      CODE     ---       #396
      01001FB1H   LINE      CODE     ---       #398
      ---         BLOCKEND  ---      ---       LVL=0

      01001FB2H   BLOCK     CODE     ---       LVL=0
      01001FB2H   LINE      CODE     ---       #407
      01001FB2H   LINE      CODE     ---       #408
      01001FB2H   LINE      CODE     ---       #409
      01001FB5H   LINE      CODE     ---       #410
      ---         BLOCKEND  ---      ---       LVL=0

LX51 LINKER/LOCATER V4.66.1.0                                                         09/08/2023  16:42:41  PAGE 116


      01001B73H   BLOCK     CODE     ---       LVL=0
      00000007H   SYMBOL    DATA     BYTE      clkdiv
      01001B73H   BLOCK     CODE     NEAR LAB  LVL=1
      00000006H   SYMBOL    DATA     BYTE      Temp
      ---         BLOCKEND  ---      ---       LVL=1
      01001B73H   LINE      CODE     ---       #422
      01001B73H   LINE      CODE     ---       #423
      01001B73H   LINE      CODE     ---       #424
      01001B73H   LINE      CODE     ---       #426
      01001B75H   LINE      CODE     ---       #427
      01001B78H   LINE      CODE     ---       #428
      01001B7EH   LINE      CODE     ---       #429
      01001B80H   LINE      CODE     ---       #430
      ---         BLOCKEND  ---      ---       LVL=0

      01001A96H   BLOCK     CODE     ---       LVL=0
      00000004H   SYMBOL    DATA     WORD      time
      01001A9AH   BLOCK     CODE     NEAR LAB  LVL=1
      00000003H   SYMBOL    DATA     BYTE      Temp
      ---         BLOCKEND  ---      ---       LVL=1
      01001A96H   LINE      CODE     ---       #439
      01001A9AH   LINE      CODE     ---       #440
      01001A9AH   LINE      CODE     ---       #441
      01001A9AH   LINE      CODE     ---       #443
      01001A9CH   LINE      CODE     ---       #444
      01001A9FH   LINE      CODE     ---       #445
      01001AA2H   LINE      CODE     ---       #446
      01001AA4H   LINE      CODE     ---       #448
      01001AA6H   LINE      CODE     ---       #449
      ---         BLOCKEND  ---      ---       LVL=0

      ---         MODULE    ---      ---       TIMER
      01001FD2H   PUBLIC    CODE     ---       TMR2_Stop
      01001E26H   PUBLIC    CODE     ---       TMR2_Start
      01001FE7H   PUBLIC    CODE     ---       TMR2_AllIntDisable
      01001FE4H   PUBLIC    CODE     ---       TMR2_AllIntEnable
      01001B01H   PUBLIC    CODE     ---       _TMR2_ClearCaptureIntFlag
      010016DCH   PUBLIC    CODE     ---       _TMR2_GetCaptureIntFlag
      01001AF2H   PUBLIC    CODE     ---       _TMR2_DisableCaptureInt
      01001B8FH   PUBLIC    CODE     ---       _TMR2_EnableCaptureInt
      01001AE3H   PUBLIC    CODE     ---       _TMR2_ClearCompareIntFlag
      010016C0H   PUBLIC    CODE     ---       _TMR2_GetCompareIntFlag
      01001AD4H   PUBLIC    CODE     ---       _TMR2_DisableCompareInt
      01001B81H   PUBLIC    CODE     ---       _TMR2_EnableCompareInt
      01001FCEH   PUBLIC    CODE     ---       TMR2_ClearT2EXIntFlag
      01001E1CH   PUBLIC    CODE     ---       TMR2_GetT2EXIntFlag
      01001FCAH   PUBLIC    CODE     ---       TMR2_DisableT2EXInt
      01001FC6H   PUBLIC    CODE     ---       TMR2_EnableT2EXInt
      01001FC2H   PUBLIC    CODE     ---       TMR2_ClearOverflowIntFlag
      01001E12H   PUBLIC    CODE     ---       TMR2_GetOverflowIntFlag
      01001FBEH   PUBLIC    CODE     ---       TMR2_DisableOverflowInt
      01001FBAH   PUBLIC    CODE     ---       TMR2_EnableOverflowInt
      01000FD2H   PUBLIC    CODE     ---       _TMR2_GetCaptureValue
      01001851H   PUBLIC    CODE     ---       _TMR2_DisableCapture
      01000B97H   PUBLIC    CODE     ---       _TMR2_EnableCapture
      01001D70H   PUBLIC    CODE     ---       _TMR2_ConfigCompareIntMode
      010015D5H   PUBLIC    CODE     ---       _TMR2_ConfigCompareValue
      01001838H   PUBLIC    CODE     ---       _TMR2_DisableCompare
      01001121H   PUBLIC    CODE     ---       _TMR2_EnableCompare
      01001D65H   PUBLIC    CODE     ---       TMR2_DisableGATE
      01001FB6H   PUBLIC    CODE     ---       TMR2_EnableGATE
      010015B6H   PUBLIC    CODE     ---       _TMR2_ConfigTimerPeriod
      01001D5AH   PUBLIC    CODE     ---       _TMR2_ConfigTimerClk
      01001CF6H   PUBLIC    CODE     ---       _TMR2_ConfigRunMode
      01001597H   PUBLIC    CODE     ---       _TMR_Stop
LX51 LINKER/LOCATER V4.66.1.0                                                         09/08/2023  16:42:41  PAGE 117


      01001578H   PUBLIC    CODE     ---       _TMR_Start
      0100166AH   PUBLIC    CODE     ---       _TMR_ClearOverflowIntFlag
      010010EEH   PUBLIC    CODE     ---       _TMR_GetOverflowIntFlag
      0100164DH   PUBLIC    CODE     ---       _TMR_DisableOverflowInt
      01001630H   PUBLIC    CODE     ---       _TMR_EnableOverflowInt
      01000F8EH   PUBLIC    CODE     ---       _TMR_GetCountValue
      01001BECH   PUBLIC    CODE     ---       _TMR_DisableGATE
      01001BDFH   PUBLIC    CODE     ---       _TMR_EnableGATE
      01001418H   PUBLIC    CODE     ---       _TMR_ConfigTimerPeriod
      01000F48H   PUBLIC    CODE     ---       _TMR_ConfigTimerClk
      01000F00H   PUBLIC    CODE     ---       _TMR_ConfigRunMode
      000000C8H   SFRSYM    DATA     BIT       T2I0
      000000C3H   SFRSYM    DATA     BYTE      CCH1
      00000080H   SFRSYM    DATA     BYTE      P0
      000000C8H.1 SFRSYM    DATA     BIT       T2I1
      000000C5H   SFRSYM    DATA     BYTE      CCH2
      00000090H   SFRSYM    DATA     BYTE      P1
      000000C7H   SFRSYM    DATA     BYTE      CCH3
      000000ACH   SFRSYM    DATA     BYTE      P0EXTIE
      000000A0H   SFRSYM    DATA     BYTE      P2
      000000B4H   SFRSYM    DATA     BYTE      P0EXTIF
      000000B0H   SFRSYM    DATA     BYTE      P3
      000000ADH   SFRSYM    DATA     BYTE      P1EXTIE
      000000D0H.6 SFRSYM    DATA     BIT       AC
      000000FFH   SFRSYM    DATA     BYTE      MCTRL
      000000C2H   SFRSYM    DATA     BYTE      CCL1
      000000B5H   SFRSYM    DATA     BYTE      P1EXTIF
      000000AEH   SFRSYM    DATA     BYTE      P2EXTIE
      000000C4H   SFRSYM    DATA     BYTE      CCL2
      000000B6H   SFRSYM    DATA     BYTE      P2EXTIF
      000000AFH   SFRSYM    DATA     BYTE      P3EXTIE
      000000A8H.7 SFRSYM    DATA     BIT       EA
      000000C6H   SFRSYM    DATA     BYTE      CCL3
      000000B7H   SFRSYM    DATA     BYTE      P3EXTIF
      000000AAH   SFRSYM    DATA     BYTE      EIE2
      000000B2H   SFRSYM    DATA     BYTE      EIF2
      000000C8H.3 SFRSYM    DATA     BIT       T2R0
      000000C8H.4 SFRSYM    DATA     BIT       T2R1
      00000083H   SFRSYM    DATA     BYTE      DPH0
      000000A8H   SFRSYM    DATA     BYTE      IE
      00000085H   SFRSYM    DATA     BYTE      DPH1
      000000B9H   SFRSYM    DATA     BYTE      EIP1
      000000BAH   SFRSYM    DATA     BYTE      EIP2
      00000082H   SFRSYM    DATA     BYTE      DPL0
      00000084H   SFRSYM    DATA     BYTE      DPL1
      000000C8H.6 SFRSYM    DATA     BIT       I3FR
      000000CFH   SFRSYM    DATA     BYTE      T2IE
      00000096H   SFRSYM    DATA     BYTE      TA
      000000C9H   SFRSYM    DATA     BYTE      T2IF
      000000C8H.2 SFRSYM    DATA     BIT       T2CM
      000000DFH   SFRSYM    DATA     BYTE      ADCON0
      000000DEH   SFRSYM    DATA     BYTE      ADCON1
      000000E9H   SFRSYM    DATA     BYTE      ADCON2
      000000B8H   SFRSYM    DATA     BYTE      IP
      000000CEH   SFRSYM    DATA     BYTE      CCEN
      000000D0H.7 SFRSYM    DATA     BIT       CY
      000000D2H   SFRSYM    DATA     BYTE      T34MOD
      00000093H   SFRSYM    DATA     BYTE      DPX0
      00000095H   SFRSYM    DATA     BYTE      DPX1
      000000F4H   SFRSYM    DATA     BYTE      I2CMSA
      000000F5H   SFRSYM    DATA     BYTE      I2CMCR
      00000081H   SFRSYM    DATA     BYTE      SP
      000000D0H.2 SFRSYM    DATA     BIT       OV
      000000F2H   SFRSYM    DATA     BYTE      I2CSCR
      000000C8H.7 SFRSYM    DATA     BIT       T2PS
LX51 LINKER/LOCATER V4.66.1.0                                                         09/08/2023  16:42:41  PAGE 118


      000000D1H   SFRSYM    DATA     BYTE      ADCMPC
      000000CBH   SFRSYM    DATA     BYTE      RLDH
      000000D5H   SFRSYM    DATA     BYTE      ADCMPH
      000000CAH   SFRSYM    DATA     BYTE      RLDL
      00000080H   SFRSYM    DATA     BIT       P00
      00000090H   SFRSYM    DATA     BIT       P10
      00000080H.1 SFRSYM    DATA     BIT       P01
      000000F7H   SFRSYM    DATA     BYTE      I2CMTP
      00000099H   SFRSYM    DATA     BYTE      SBUF
      00000087H   SFRSYM    DATA     BYTE      PCON
      000000A0H   SFRSYM    DATA     BIT       P20
      00000090H.1 SFRSYM    DATA     BIT       P11
      00000080H.2 SFRSYM    DATA     BIT       P02
      000000F5H   SFRSYM    DATA     BYTE      I2CMSR
      000000B0H   SFRSYM    DATA     BIT       P30
      000000A0H.1 SFRSYM    DATA     BIT       P21
      00000090H.2 SFRSYM    DATA     BIT       P12
      00000080H.3 SFRSYM    DATA     BIT       P03
      000000D4H   SFRSYM    DATA     BYTE      ADCMPL
      000000B0H.1 SFRSYM    DATA     BIT       P31
      000000A0H.2 SFRSYM    DATA     BIT       P22
      00000090H.3 SFRSYM    DATA     BIT       P13
      00000080H.4 SFRSYM    DATA     BIT       P04
      000000B0H.2 SFRSYM    DATA     BIT       P32
      000000A0H.3 SFRSYM    DATA     BIT       P23
      00000090H.4 SFRSYM    DATA     BIT       P14
      00000080H.5 SFRSYM    DATA     BIT       P05
      00000089H   SFRSYM    DATA     BYTE      TMOD
      00000088H   SFRSYM    DATA     BYTE      TCON
      000000B0H.3 SFRSYM    DATA     BIT       P33
      000000A0H.4 SFRSYM    DATA     BIT       P24
      00000090H.5 SFRSYM    DATA     BIT       P15
      00000080H.6 SFRSYM    DATA     BIT       P06
      000000B0H.4 SFRSYM    DATA     BIT       P34
      000000A0H.5 SFRSYM    DATA     BIT       P25
      00000090H.6 SFRSYM    DATA     BIT       P16
      00000080H.7 SFRSYM    DATA     BIT       P07
      000000B0H.5 SFRSYM    DATA     BIT       P35
      000000A0H.6 SFRSYM    DATA     BIT       P26
      00000090H.7 SFRSYM    DATA     BIT       P17
      000000F2H   SFRSYM    DATA     BYTE      I2CSSR
      000000B0H.6 SFRSYM    DATA     BIT       P36
      000000A0H.7 SFRSYM    DATA     BIT       P27
      000000ECH   SFRSYM    DATA     BYTE      SPCR
      000000DDH   SFRSYM    DATA     BYTE      ADRESH
      000000B0H.7 SFRSYM    DATA     BIT       P37
      000000EEH   SFRSYM    DATA     BYTE      SPDR
      000000EFH   SFRSYM    DATA     BYTE      SSCR
      000000D3H   SFRSYM    DATA     BYTE      ADDLYL
      000000DCH   SFRSYM    DATA     BYTE      ADRESL
      00000088H.1 SFRSYM    DATA     BIT       IE0
      00000088H.3 SFRSYM    DATA     BIT       IE1
      0000008FH   SFRSYM    DATA     BYTE      CLKDIV
      000000F0H   SFRSYM    DATA     BYTE      B
      00000091H   SFRSYM    DATA     BYTE      FUNCCR
      0000009AH   SFRSYM    DATA     BYTE      P0TRIS
      000000A1H   SFRSYM    DATA     BYTE      P1TRIS
      000000A2H   SFRSYM    DATA     BYTE      P2TRIS
      000000E0H   SFRSYM    DATA     BYTE      ACC
      000000A3H   SFRSYM    DATA     BYTE      P3TRIS
      000000A8H.4 SFRSYM    DATA     BIT       ES0
      000000A8H.6 SFRSYM    DATA     BIT       ES1
      000000A8H.1 SFRSYM    DATA     BIT       ET0
      000000EDH   SFRSYM    DATA     BYTE      SPSR
      000000A8H.3 SFRSYM    DATA     BIT       ET1
LX51 LINKER/LOCATER V4.66.1.0                                                         09/08/2023  16:42:41  PAGE 119


      00000088H.5 SFRSYM    DATA     BIT       TF0
      000000A8H.5 SFRSYM    DATA     BIT       ET2
      00000098H   SFRSYM    DATA     BIT       RI0
      00000088H.7 SFRSYM    DATA     BIT       TF1
      0000008CH   SFRSYM    DATA     BYTE      TH0
      000000A8H   SFRSYM    DATA     BIT       EX0
      00000098H.1 SFRSYM    DATA     BIT       TI0
      00000088H   SFRSYM    DATA     BIT       IT0
      0000008DH   SFRSYM    DATA     BYTE      TH1
      000000A8H.2 SFRSYM    DATA     BIT       EX1
      00000088H.2 SFRSYM    DATA     BIT       IT1
      000000CDH   SFRSYM    DATA     BYTE      TH2
      000000D0H   SFRSYM    DATA     BIT       P
      000000DBH   SFRSYM    DATA     BYTE      TH3
      000000E3H   SFRSYM    DATA     BYTE      TH4
      0000008AH   SFRSYM    DATA     BYTE      TL0
      0000008BH   SFRSYM    DATA     BYTE      TL1
      00000098H.2 SFRSYM    DATA     BIT       U0RB8
      000000CCH   SFRSYM    DATA     BYTE      TL2
      000000B8H.4 SFRSYM    DATA     BIT       PS0
      000000DAH   SFRSYM    DATA     BYTE      TL3
      000000BFH   SFRSYM    DATA     BYTE      BUZCON
      000000B8H.6 SFRSYM    DATA     BIT       PS1
      000000B8H.1 SFRSYM    DATA     BIT       PT0
      00000098H.3 SFRSYM    DATA     BIT       U0TB8
      000000E2H   SFRSYM    DATA     BYTE      TL4
      000000D0H.3 SFRSYM    DATA     BIT       RS0
      000000B8H.3 SFRSYM    DATA     BIT       PT1
      000000D0H.4 SFRSYM    DATA     BIT       RS1
      000000B8H.5 SFRSYM    DATA     BIT       PT2
      00000098H.7 SFRSYM    DATA     BIT       U0SM0
      00000088H.4 SFRSYM    DATA     BIT       TR0
      000000BEH   SFRSYM    DATA     BYTE      BUZDIV
      00000098H.6 SFRSYM    DATA     BIT       U0SM1
      00000088H.6 SFRSYM    DATA     BIT       TR1
      000000B8H   SFRSYM    DATA     BIT       PX0
      00000098H.5 SFRSYM    DATA     BIT       U0SM2
      000000B8H.2 SFRSYM    DATA     BIT       PX1
      000000BDH   SFRSYM    DATA     BYTE      WUTCRH
      00000099H   SFRSYM    DATA     BYTE      SBUF0
      000000EBH   SFRSYM    DATA     BYTE      SBUF1
      000000BCH   SFRSYM    DATA     BYTE      WUTCRL
      00000098H   SFRSYM    DATA     BYTE      SCON0
      000000EAH   SFRSYM    DATA     BYTE      SCON1
      000000C8H   SFRSYM    DATA     BYTE      T2CON
      00000086H   SFRSYM    DATA     BYTE      DPS
      000000FEH   SFRSYM    DATA     BYTE      MDATA
      000000F6H   SFRSYM    DATA     BYTE      I2CMBUF
      000000F1H   SFRSYM    DATA     BYTE      I2CSADR
      00000098H.4 SFRSYM    DATA     BIT       U0REN
      000000C8H.5 SFRSYM    DATA     BIT       CAPES
      000000FDH   SFRSYM    DATA     BYTE      MADRH
      0000008EH   SFRSYM    DATA     BYTE      CKCON
      000000F3H   SFRSYM    DATA     BYTE      I2CSBUF
      000000FCH   SFRSYM    DATA     BYTE      MADRL
      000000D0H.5 SFRSYM    DATA     BIT       F0
      000000FBH   SFRSYM    DATA     BYTE      MLOCK
      000000D0H   SFRSYM    DATA     BYTE      PSW
      00000097H   SFRSYM    DATA     BYTE      WDCON

      01000F00H   BLOCK     CODE     ---       LVL=0
      00000007H   SYMBOL    DATA     BYTE      Timern
      00000005H   SYMBOL    DATA     BYTE      TimerMode
      00000003H   SYMBOL    DATA     BYTE      TimerModeBranch
      01000F00H   BLOCK     CODE     NEAR LAB  LVL=1
LX51 LINKER/LOCATER V4.66.1.0                                                         09/08/2023  16:42:41  PAGE 120


      00000006H   SYMBOL    DATA     BYTE      Temp
      ---         BLOCKEND  ---      ---       LVL=1
      01000F00H   LINE      CODE     ---       #74
      01000F00H   LINE      CODE     ---       #75
      01000F00H   LINE      CODE     ---       #76
      01000F00H   LINE      CODE     ---       #78
      01000F0FH   LINE      CODE     ---       #79
      01000F0FH   LINE      CODE     ---       #80
      01000F0FH   LINE      CODE     ---       #81
      01000F11H   LINE      CODE     ---       #82
      01000F14H   LINE      CODE     ---       #83
      01000F1AH   LINE      CODE     ---       #84
      01000F1AH   LINE      CODE     ---       #85
      01000F1CH   LINE      CODE     ---       #86
      01000F1CH   LINE      CODE     ---       #87
      01000F1EH   LINE      CODE     ---       #88
      01000F21H   LINE      CODE     ---       #89
      01000F2FH   LINE      CODE     ---       #90
      01000F31H   LINE      CODE     ---       #91
      01000F32H   LINE      CODE     ---       #92
      01000F32H   LINE      CODE     ---       #93
      01000F34H   LINE      CODE     ---       #94
      01000F37H   LINE      CODE     ---       #95
      01000F38H   LINE      CODE     ---       #96
      01000F38H   LINE      CODE     ---       #97
      01000F3AH   LINE      CODE     ---       #98
      01000F3AH   LINE      CODE     ---       #99
      01000F3CH   LINE      CODE     ---       #100
      01000F3FH   LINE      CODE     ---       #101
      01000F45H   LINE      CODE     ---       #102
      01000F47H   LINE      CODE     ---       #103
      01000F47H   LINE      CODE     ---       #104
      01000F47H   LINE      CODE     ---       #105
      01000F47H   LINE      CODE     ---       #106
      01000F47H   LINE      CODE     ---       #107
      ---         BLOCKEND  ---      ---       LVL=0

      01000F48H   BLOCK     CODE     ---       LVL=0
      00000007H   SYMBOL    DATA     BYTE      Timern
      00000005H   SYMBOL    DATA     BYTE      TimerClkDiv
      01000F48H   BLOCK     CODE     NEAR LAB  LVL=1
      00000006H   SYMBOL    DATA     BYTE      Temp
      ---         BLOCKEND  ---      ---       LVL=1
      01000F48H   LINE      CODE     ---       #117
      01000F48H   LINE      CODE     ---       #118
      01000F48H   LINE      CODE     ---       #119
      01000F48H   LINE      CODE     ---       #121
      01000F57H   LINE      CODE     ---       #122
      01000F57H   LINE      CODE     ---       #123
      01000F57H   LINE      CODE     ---       #124
      01000F59H   LINE      CODE     ---       #125
      01000F5CH   LINE      CODE     ---       #126
      01000F62H   LINE      CODE     ---       #127
      01000F62H   LINE      CODE     ---       #128
      01000F64H   LINE      CODE     ---       #129
      01000F64H   LINE      CODE     ---       #130
      01000F66H   LINE      CODE     ---       #131
      01000F69H   LINE      CODE     ---       #132
      01000F6FH   LINE      CODE     ---       #133
      01000F71H   LINE      CODE     ---       #134
      01000F72H   LINE      CODE     ---       #135
      01000F72H   LINE      CODE     ---       #136
      01000F74H   LINE      CODE     ---       #137
      01000F77H   LINE      CODE     ---       #138
      01000F7CH   LINE      CODE     ---       #139
LX51 LINKER/LOCATER V4.66.1.0                                                         09/08/2023  16:42:41  PAGE 121


      01000F7CH   LINE      CODE     ---       #140
      01000F7EH   LINE      CODE     ---       #141
      01000F7EH   LINE      CODE     ---       #142
      01000F80H   LINE      CODE     ---       #143
      01000F83H   LINE      CODE     ---       #144
      01000F8BH   LINE      CODE     ---       #145
      01000F8DH   LINE      CODE     ---       #146
      01000F8DH   LINE      CODE     ---       #147
      01000F8DH   LINE      CODE     ---       #148
      01000F8DH   LINE      CODE     ---       #149
      01000F8DH   LINE      CODE     ---       #150
      ---         BLOCKEND  ---      ---       LVL=0

      01001418H   BLOCK     CODE     ---       LVL=0
      00000007H   SYMBOL    DATA     BYTE      Timern
      00000005H   SYMBOL    DATA     BYTE      TimerPeriodHigh
      00000003H   SYMBOL    DATA     BYTE      TimerPeriodLow
      01001418H   LINE      CODE     ---       #160
      01001418H   LINE      CODE     ---       #161
      01001418H   LINE      CODE     ---       #162
      01001427H   LINE      CODE     ---       #163
      01001427H   LINE      CODE     ---       #164
      01001427H   LINE      CODE     ---       #165
      01001429H   LINE      CODE     ---       #166
      0100142BH   LINE      CODE     ---       #167
      0100142CH   LINE      CODE     ---       #168
      0100142CH   LINE      CODE     ---       #169
      0100142EH   LINE      CODE     ---       #170
      01001430H   LINE      CODE     ---       #171
      01001431H   LINE      CODE     ---       #172
      01001431H   LINE      CODE     ---       #173
      01001433H   LINE      CODE     ---       #174
      01001435H   LINE      CODE     ---       #175
      01001436H   LINE      CODE     ---       #176
      01001436H   LINE      CODE     ---       #177
      01001438H   LINE      CODE     ---       #178
      0100143AH   LINE      CODE     ---       #179
      0100143AH   LINE      CODE     ---       #180
      0100143AH   LINE      CODE     ---       #181
      0100143AH   LINE      CODE     ---       #182
      0100143AH   LINE      CODE     ---       #183
      ---         BLOCKEND  ---      ---       LVL=0

      01001BDFH   BLOCK     CODE     ---       LVL=0
      00000007H   SYMBOL    DATA     BYTE      Timern
      01001BDFH   LINE      CODE     ---       #192
      01001BDFH   LINE      CODE     ---       #193
      01001BDFH   LINE      CODE     ---       #194
      01001BE2H   LINE      CODE     ---       #195
      01001BE2H   LINE      CODE     ---       #196
      01001BE5H   LINE      CODE     ---       #197
      01001BE5H   LINE      CODE     ---       #198
      01001BE8H   LINE      CODE     ---       #199
      01001BE8H   LINE      CODE     ---       #200
      01001BEBH   LINE      CODE     ---       #201
      01001BEBH   LINE      CODE     ---       #202
      ---         BLOCKEND  ---      ---       LVL=0

      01001BECH   BLOCK     CODE     ---       LVL=0
      00000007H   SYMBOL    DATA     BYTE      Timern
      01001BECH   LINE      CODE     ---       #210
      01001BECH   LINE      CODE     ---       #211
      01001BECH   LINE      CODE     ---       #212
      01001BEFH   LINE      CODE     ---       #213
      01001BEFH   LINE      CODE     ---       #214
LX51 LINKER/LOCATER V4.66.1.0                                                         09/08/2023  16:42:41  PAGE 122


      01001BF2H   LINE      CODE     ---       #215
      01001BF2H   LINE      CODE     ---       #216
      01001BF5H   LINE      CODE     ---       #217
      01001BF5H   LINE      CODE     ---       #218
      01001BF8H   LINE      CODE     ---       #219
      01001BF8H   LINE      CODE     ---       #220
      ---         BLOCKEND  ---      ---       LVL=0

      01000F8EH   BLOCK     CODE     ---       LVL=0
      00000007H   SYMBOL    DATA     BYTE      Timern
      01000F8EH   LINE      CODE     ---       #228
      01000F8EH   LINE      CODE     ---       #229
      01000F8EH   LINE      CODE     ---       #230
      01000F91H   LINE      CODE     ---       #231
      01000F91H   LINE      CODE     ---       #232
      01000F99H   LINE      CODE     ---       #233
      01000F99H   LINE      CODE     ---       #234
      01000FA5H   LINE      CODE     ---       #235
      01000FA5H   LINE      CODE     ---       #236
      01000FACH   LINE      CODE     ---       #237
      01000FACH   LINE      CODE     ---       #238
      01000FB1H   LINE      CODE     ---       #239
      01000FB1H   LINE      CODE     ---       #240
      01000FB9H   LINE      CODE     ---       #241
      01000FB9H   LINE      CODE     ---       #242
      01000FC7H   LINE      CODE     ---       #243
      01000FC7H   LINE      CODE     ---       #244
      01000FCEH   LINE      CODE     ---       #245
      01000FCEH   LINE      CODE     ---       #246
      01000FD1H   LINE      CODE     ---       #247
      ---         BLOCKEND  ---      ---       LVL=0

      01001630H   BLOCK     CODE     ---       LVL=0
      00000007H   SYMBOL    DATA     BYTE      Timern
      01001630H   LINE      CODE     ---       #256
      01001630H   LINE      CODE     ---       #257
      01001630H   LINE      CODE     ---       #258
      0100163FH   LINE      CODE     ---       #259
      0100163FH   LINE      CODE     ---       #260
      0100163FH   LINE      CODE     ---       #261
      01001641H   LINE      CODE     ---       #262
      01001642H   LINE      CODE     ---       #263
      01001642H   LINE      CODE     ---       #264
      01001644H   LINE      CODE     ---       #265
      01001645H   LINE      CODE     ---       #266
      01001645H   LINE      CODE     ---       #267
      01001648H   LINE      CODE     ---       #268
      01001649H   LINE      CODE     ---       #269
      01001649H   LINE      CODE     ---       #270
      0100164CH   LINE      CODE     ---       #271
      0100164CH   LINE      CODE     ---       #272
      0100164CH   LINE      CODE     ---       #273
      0100164CH   LINE      CODE     ---       #274
      0100164CH   LINE      CODE     ---       #275
      ---         BLOCKEND  ---      ---       LVL=0

      0100164DH   BLOCK     CODE     ---       LVL=0
      00000007H   SYMBOL    DATA     BYTE      Timern
      0100164DH   LINE      CODE     ---       #284
      0100164DH   LINE      CODE     ---       #285
      0100164DH   LINE      CODE     ---       #286
      0100165CH   LINE      CODE     ---       #287
      0100165CH   LINE      CODE     ---       #288
      0100165CH   LINE      CODE     ---       #289
      0100165EH   LINE      CODE     ---       #290
LX51 LINKER/LOCATER V4.66.1.0                                                         09/08/2023  16:42:41  PAGE 123


      0100165FH   LINE      CODE     ---       #291
      0100165FH   LINE      CODE     ---       #292
      01001661H   LINE      CODE     ---       #293
      01001662H   LINE      CODE     ---       #294
      01001662H   LINE      CODE     ---       #295
      01001665H   LINE      CODE     ---       #296
      01001666H   LINE      CODE     ---       #297
      01001666H   LINE      CODE     ---       #298
      01001669H   LINE      CODE     ---       #299
      01001669H   LINE      CODE     ---       #300
      01001669H   LINE      CODE     ---       #301
      01001669H   LINE      CODE     ---       #302
      01001669H   LINE      CODE     ---       #303
      ---         BLOCKEND  ---      ---       LVL=0

      010010EEH   BLOCK     CODE     ---       LVL=0
      00000007H   SYMBOL    DATA     BYTE      Timern
      010010EEH   BLOCK     CODE     NEAR LAB  LVL=1
      00000006H   SYMBOL    DATA     BYTE      IntFlag
      ---         BLOCKEND  ---      ---       LVL=1
      010010EEH   LINE      CODE     ---       #312
      010010EEH   LINE      CODE     ---       #313
      010010EEH   LINE      CODE     ---       #314
      010010F0H   LINE      CODE     ---       #315
      010010FFH   LINE      CODE     ---       #316
      010010FFH   LINE      CODE     ---       #317
      010010FFH   LINE      CODE     ---       #318
      01001104H   LINE      CODE     ---       #319
      01001106H   LINE      CODE     ---       #320
      01001106H   LINE      CODE     ---       #321
      0100110BH   LINE      CODE     ---       #322
      0100110DH   LINE      CODE     ---       #323
      0100110DH   LINE      CODE     ---       #324
      01001112H   LINE      CODE     ---       #325
      01001114H   LINE      CODE     ---       #326
      01001114H   LINE      CODE     ---       #327
      01001119H   LINE      CODE     ---       #328
      01001119H   LINE      CODE     ---       #329
      01001119H   LINE      CODE     ---       #330
      01001119H   LINE      CODE     ---       #331
      01001119H   LINE      CODE     ---       #332
      01001120H   LINE      CODE     ---       #333
      ---         BLOCKEND  ---      ---       LVL=0

      0100166AH   BLOCK     CODE     ---       LVL=0
      00000007H   SYMBOL    DATA     BYTE      Timern
      0100166AH   LINE      CODE     ---       #341
      0100166AH   LINE      CODE     ---       #342
      0100166AH   LINE      CODE     ---       #343
      01001679H   LINE      CODE     ---       #344
      01001679H   LINE      CODE     ---       #345
      01001679H   LINE      CODE     ---       #346
      0100167BH   LINE      CODE     ---       #347
      0100167CH   LINE      CODE     ---       #348
      0100167CH   LINE      CODE     ---       #349
      0100167EH   LINE      CODE     ---       #350
      0100167FH   LINE      CODE     ---       #351
      0100167FH   LINE      CODE     ---       #352
      01001682H   LINE      CODE     ---       #353
      01001683H   LINE      CODE     ---       #354
      01001683H   LINE      CODE     ---       #355
      01001686H   LINE      CODE     ---       #356
      01001686H   LINE      CODE     ---       #357
      01001686H   LINE      CODE     ---       #358
      01001686H   LINE      CODE     ---       #359
LX51 LINKER/LOCATER V4.66.1.0                                                         09/08/2023  16:42:41  PAGE 124


      01001686H   LINE      CODE     ---       #360
      ---         BLOCKEND  ---      ---       LVL=0

      01001578H   BLOCK     CODE     ---       LVL=0
      00000007H   SYMBOL    DATA     BYTE      Timern
      01001578H   LINE      CODE     ---       #368
      01001578H   LINE      CODE     ---       #369
      01001578H   LINE      CODE     ---       #370
      01001587H   LINE      CODE     ---       #371
      01001587H   LINE      CODE     ---       #372
      01001587H   LINE      CODE     ---       #373
      0100158AH   LINE      CODE     ---       #374
      0100158BH   LINE      CODE     ---       #375
      0100158BH   LINE      CODE     ---       #376
      0100158EH   LINE      CODE     ---       #377
      0100158FH   LINE      CODE     ---       #378
      0100158FH   LINE      CODE     ---       #379
      01001592H   LINE      CODE     ---       #380
      01001593H   LINE      CODE     ---       #381
      01001593H   LINE      CODE     ---       #382
      01001596H   LINE      CODE     ---       #383
      01001596H   LINE      CODE     ---       #384
      01001596H   LINE      CODE     ---       #385
      01001596H   LINE      CODE     ---       #386
      01001596H   LINE      CODE     ---       #387
      ---         BLOCKEND  ---      ---       LVL=0

      01001597H   BLOCK     CODE     ---       LVL=0
      00000007H   SYMBOL    DATA     BYTE      Timern
      01001597H   LINE      CODE     ---       #395
      01001597H   LINE      CODE     ---       #396
      01001597H   LINE      CODE     ---       #397
      010015A6H   LINE      CODE     ---       #398
      010015A6H   LINE      CODE     ---       #399
      010015A6H   LINE      CODE     ---       #400
      010015A9H   LINE      CODE     ---       #401
      010015AAH   LINE      CODE     ---       #402
      010015AAH   LINE      CODE     ---       #403
      010015ADH   LINE      CODE     ---       #404
      010015AEH   LINE      CODE     ---       #405
      010015AEH   LINE      CODE     ---       #406
      010015B1H   LINE      CODE     ---       #407
      010015B2H   LINE      CODE     ---       #408
      010015B2H   LINE      CODE     ---       #409
      010015B5H   LINE      CODE     ---       #410
      010015B5H   LINE      CODE     ---       #411
      010015B5H   LINE      CODE     ---       #412
      010015B5H   LINE      CODE     ---       #413
      010015B5H   LINE      CODE     ---       #414
      ---         BLOCKEND  ---      ---       LVL=0

      01001CF6H   BLOCK     CODE     ---       LVL=0
      00000007H   SYMBOL    DATA     BYTE      Timer2Mode
      00000005H   SYMBOL    DATA     BYTE      Timer2LoadMode
      01001CF6H   BLOCK     CODE     NEAR LAB  LVL=1
      00000006H   SYMBOL    DATA     BYTE      Temp
      ---         BLOCKEND  ---      ---       LVL=1
      01001CF6H   LINE      CODE     ---       #430
      01001CF6H   LINE      CODE     ---       #431
      01001CF6H   LINE      CODE     ---       #432
      01001CF6H   LINE      CODE     ---       #434
      01001CF8H   LINE      CODE     ---       #435
      01001CFBH   LINE      CODE     ---       #436
      01001CFFH   LINE      CODE     ---       #437
      01001D01H   LINE      CODE     ---       #438
LX51 LINKER/LOCATER V4.66.1.0                                                         09/08/2023  16:42:41  PAGE 125


      ---         BLOCKEND  ---      ---       LVL=0

      01001D5AH   BLOCK     CODE     ---       LVL=0
      00000007H   SYMBOL    DATA     BYTE      TimerClkDiv
      01001D5AH   BLOCK     CODE     NEAR LAB  LVL=1
      00000006H   SYMBOL    DATA     BYTE      Temp
      ---         BLOCKEND  ---      ---       LVL=1
      01001D5AH   LINE      CODE     ---       #446
      01001D5AH   LINE      CODE     ---       #447
      01001D5AH   LINE      CODE     ---       #448
      01001D5AH   LINE      CODE     ---       #450
      01001D5CH   LINE      CODE     ---       #451
      01001D5FH   LINE      CODE     ---       #452
      01001D62H   LINE      CODE     ---       #453
      01001D64H   LINE      CODE     ---       #454
      ---         BLOCKEND  ---      ---       LVL=0

      010015B6H   BLOCK     CODE     ---       LVL=0
      00000004H   SYMBOL    DATA     WORD      TimerPeriod
      010015B6H   LINE      CODE     ---       #462
      010015BAH   LINE      CODE     ---       #463
      010015BAH   LINE      CODE     ---       #464
      010015BCH   LINE      CODE     ---       #465
      010015C0H   LINE      CODE     ---       #466
      010015D0H   LINE      CODE     ---       #467
      010015D0H   LINE      CODE     ---       #468
      010015D2H   LINE      CODE     ---       #469
      010015D4H   LINE      CODE     ---       #470
      010015D4H   LINE      CODE     ---       #471
      ---         BLOCKEND  ---      ---       LVL=0

      01001FB6H   BLOCK     CODE     ---       LVL=0
      01001FB6H   LINE      CODE     ---       #479
      01001FB6H   LINE      CODE     ---       #480
      01001FB6H   LINE      CODE     ---       #481
      01001FB9H   LINE      CODE     ---       #482
      ---         BLOCKEND  ---      ---       LVL=0

      01001D65H   BLOCK     CODE     ---       LVL=0
      01001D65H   BLOCK     CODE     NEAR LAB  LVL=1
      00000007H   SYMBOL    DATA     BYTE      Temp
      ---         BLOCKEND  ---      ---       LVL=1
      01001D65H   LINE      CODE     ---       #490
      01001D65H   LINE      CODE     ---       #491
      01001D65H   LINE      CODE     ---       #492
      01001D65H   LINE      CODE     ---       #494
      01001D67H   LINE      CODE     ---       #495
      01001D6AH   LINE      CODE     ---       #496
      01001D6DH   LINE      CODE     ---       #497
      01001D6FH   LINE      CODE     ---       #498
      ---         BLOCKEND  ---      ---       LVL=0

      01001121H   BLOCK     CODE     ---       LVL=0
      00000007H   SYMBOL    DATA     BYTE      Timer2CCn
      00000005H   SYMBOL    DATA     BYTE      CompareMode
      01001121H   BLOCK     CODE     NEAR LAB  LVL=1
      00000006H   SYMBOL    DATA     BYTE      Temp
      ---         BLOCKEND  ---      ---       LVL=1
      01001121H   LINE      CODE     ---       #509
      01001121H   LINE      CODE     ---       #510
      01001121H   LINE      CODE     ---       #511
      01001121H   LINE      CODE     ---       #513
      01001123H   LINE      CODE     ---       #514
      01001126H   LINE      CODE     ---       #515
      01001129H   LINE      CODE     ---       #516
LX51 LINKER/LOCATER V4.66.1.0                                                         09/08/2023  16:42:41  PAGE 126


      0100112BH   LINE      CODE     ---       #518
      0100112DH   LINE      CODE     ---       #519
      01001130H   LINE      CODE     ---       #520
      01001130H   LINE      CODE     ---       #521
      01001133H   LINE      CODE     ---       #522
      01001136H   LINE      CODE     ---       #523
      01001136H   LINE      CODE     ---       #524
      01001139H   LINE      CODE     ---       #525
      01001139H   LINE      CODE     ---       #526
      0100113CH   LINE      CODE     ---       #527
      0100113FH   LINE      CODE     ---       #528
      0100113FH   LINE      CODE     ---       #529
      01001142H   LINE      CODE     ---       #530
      01001142H   LINE      CODE     ---       #531
      01001145H   LINE      CODE     ---       #532
      01001148H   LINE      CODE     ---       #533
      01001148H   LINE      CODE     ---       #534
      0100114BH   LINE      CODE     ---       #535
      0100114BH   LINE      CODE     ---       #536
      0100114EH   LINE      CODE     ---       #537
      01001151H   LINE      CODE     ---       #538
      01001151H   LINE      CODE     ---       #539
      01001153H   LINE      CODE     ---       #540
      ---         BLOCKEND  ---      ---       LVL=0

      01001838H   BLOCK     CODE     ---       LVL=0
      00000007H   SYMBOL    DATA     BYTE      Timer2CCn
      01001838H   LINE      CODE     ---       #548
      01001838H   LINE      CODE     ---       #549
      01001838H   LINE      CODE     ---       #550
      0100183BH   LINE      CODE     ---       #551
      0100183BH   LINE      CODE     ---       #552
      0100183EH   LINE      CODE     ---       #553
      0100183EH   LINE      CODE     ---       #554
      01001841H   LINE      CODE     ---       #555
      01001841H   LINE      CODE     ---       #556
      01001844H   LINE      CODE     ---       #557
      01001844H   LINE      CODE     ---       #558
      01001847H   LINE      CODE     ---       #559
      01001847H   LINE      CODE     ---       #560
      0100184AH   LINE      CODE     ---       #561
      0100184AH   LINE      CODE     ---       #562
      0100184DH   LINE      CODE     ---       #563
      0100184DH   LINE      CODE     ---       #564
      01001850H   LINE      CODE     ---       #565
      01001850H   LINE      CODE     ---       #566
      ---         BLOCKEND  ---      ---       LVL=0

      010015D5H   BLOCK     CODE     ---       LVL=0
      00000003H   SYMBOL    DATA     BYTE      Timer2CCn
      00000004H   SYMBOL    DATA     WORD      CompareValue
      010015D5H   LINE      CODE     ---       #576
      010015D7H   LINE      CODE     ---       #577
      010015D7H   LINE      CODE     ---       #578
      010015DAH   LINE      CODE     ---       #579
      010015DAH   LINE      CODE     ---       #580
      010015DCH   LINE      CODE     ---       #581
      010015DEH   LINE      CODE     ---       #582
      010015DEH   LINE      CODE     ---       #583
      010015E1H   LINE      CODE     ---       #584
      010015E1H   LINE      CODE     ---       #585
      010015E3H   LINE      CODE     ---       #586
      010015E5H   LINE      CODE     ---       #587
      010015E5H   LINE      CODE     ---       #588
      010015E8H   LINE      CODE     ---       #589
LX51 LINKER/LOCATER V4.66.1.0                                                         09/08/2023  16:42:41  PAGE 127


      010015E8H   LINE      CODE     ---       #590
      010015EAH   LINE      CODE     ---       #591
      010015ECH   LINE      CODE     ---       #592
      010015ECH   LINE      CODE     ---       #593
      010015EFH   LINE      CODE     ---       #594
      010015EFH   LINE      CODE     ---       #595
      010015F1H   LINE      CODE     ---       #596
      010015F3H   LINE      CODE     ---       #597
      010015F3H   LINE      CODE     ---       #598
      ---         BLOCKEND  ---      ---       LVL=0

      01001D70H   BLOCK     CODE     ---       LVL=0
      00000007H   SYMBOL    DATA     BYTE      Timer2CompareIntMode
      01001D70H   BLOCK     CODE     NEAR LAB  LVL=1
      00000006H   SYMBOL    DATA     BYTE      Temp
      ---         BLOCKEND  ---      ---       LVL=1
      01001D70H   LINE      CODE     ---       #608
      01001D70H   LINE      CODE     ---       #609
      01001D70H   LINE      CODE     ---       #610
      01001D70H   LINE      CODE     ---       #612
      01001D72H   LINE      CODE     ---       #613
      01001D75H   LINE      CODE     ---       #614
      01001D78H   LINE      CODE     ---       #615
      01001D7AH   LINE      CODE     ---       #616
      ---         BLOCKEND  ---      ---       LVL=0

      01000B97H   BLOCK     CODE     ---       LVL=0
      00000007H   SYMBOL    DATA     BYTE      Timer2CCn
      00000005H   SYMBOL    DATA     BYTE      Timer2CaptureMode
      01000B97H   BLOCK     CODE     NEAR LAB  LVL=1
      00000006H   SYMBOL    DATA     BYTE      Temp
      ---         BLOCKEND  ---      ---       LVL=1
      01000B97H   LINE      CODE     ---       #631
      01000B97H   LINE      CODE     ---       #632
      01000B97H   LINE      CODE     ---       #633
      01000B97H   LINE      CODE     ---       #635
      01000B9AH   LINE      CODE     ---       #636
      01000B9AH   LINE      CODE     ---       #637
      01000B9CH   LINE      CODE     ---       #638
      01000B9FH   LINE      CODE     ---       #639
      01000BA9H   LINE      CODE     ---       #640
      01000BABH   LINE      CODE     ---       #642
      01000BADH   LINE      CODE     ---       #643
      01000BB0H   LINE      CODE     ---       #644
      01000BB5H   LINE      CODE     ---       #645
      01000BB7H   LINE      CODE     ---       #646
      01000BB7H   LINE      CODE     ---       #647
      01000BBCH   LINE      CODE     ---       #648
      01000BBCH   LINE      CODE     ---       #649
      01000BBFH   LINE      CODE     ---       #650
      01000BC2H   LINE      CODE     ---       #651
      01000BC2H   LINE      CODE     ---       #652
      01000BC5H   LINE      CODE     ---       #653
      01000BC5H   LINE      CODE     ---       #654
      01000BC7H   LINE      CODE     ---       #655
      01000BCAH   LINE      CODE     ---       #656
      01000BD3H   LINE      CODE     ---       #657
      01000BD5H   LINE      CODE     ---       #658
      01000BD5H   LINE      CODE     ---       #659
      01000BDAH   LINE      CODE     ---       #660
      01000BDAH   LINE      CODE     ---       #661
      01000BDDH   LINE      CODE     ---       #662
      01000BE0H   LINE      CODE     ---       #663
      01000BE0H   LINE      CODE     ---       #664
      01000BE3H   LINE      CODE     ---       #665
LX51 LINKER/LOCATER V4.66.1.0                                                         09/08/2023  16:42:41  PAGE 128


      01000BE3H   LINE      CODE     ---       #666
      01000BE5H   LINE      CODE     ---       #667
      01000BE8H   LINE      CODE     ---       #668
      01000BF0H   LINE      CODE     ---       #669
      01000BF2H   LINE      CODE     ---       #670
      01000BF2H   LINE      CODE     ---       #671
      01000BF7H   LINE      CODE     ---       #672
      01000BF7H   LINE      CODE     ---       #673
      01000BFAH   LINE      CODE     ---       #674
      01000BFDH   LINE      CODE     ---       #675
      01000BFDH   LINE      CODE     ---       #676
      01000C00H   LINE      CODE     ---       #677
      01000C00H   LINE      CODE     ---       #678
      01000C02H   LINE      CODE     ---       #679
      01000C05H   LINE      CODE     ---       #680
      01000C0FH   LINE      CODE     ---       #681
      01000C11H   LINE      CODE     ---       #682
      01000C11H   LINE      CODE     ---       #683
      ---         BLOCKEND  ---      ---       LVL=0

      01001851H   BLOCK     CODE     ---       LVL=0
      00000007H   SYMBOL    DATA     BYTE      Timer2CCn
      01001851H   LINE      CODE     ---       #692
      01001851H   LINE      CODE     ---       #693
      01001851H   LINE      CODE     ---       #694
      01001854H   LINE      CODE     ---       #695
      01001854H   LINE      CODE     ---       #696
      01001857H   LINE      CODE     ---       #697
      01001857H   LINE      CODE     ---       #698
      0100185AH   LINE      CODE     ---       #699
      0100185AH   LINE      CODE     ---       #700
      0100185DH   LINE      CODE     ---       #701
      0100185DH   LINE      CODE     ---       #702
      01001860H   LINE      CODE     ---       #703
      01001860H   LINE      CODE     ---       #704
      01001863H   LINE      CODE     ---       #705
      01001863H   LINE      CODE     ---       #706
      01001866H   LINE      CODE     ---       #707
      01001866H   LINE      CODE     ---       #708
      01001869H   LINE      CODE     ---       #709
      01001869H   LINE      CODE     ---       #710
      ---         BLOCKEND  ---      ---       LVL=0

      01000FD2H   BLOCK     CODE     ---       LVL=0
      00000007H   SYMBOL    DATA     BYTE      Timer2CCn
      01000FD2H   BLOCK     CODE     NEAR LAB  LVL=1
      00000004H   SYMBOL    DATA     WORD      CaputerValue
      ---         BLOCKEND  ---      ---       LVL=1
      01000FD2H   LINE      CODE     ---       #719
      01000FD2H   LINE      CODE     ---       #720
      01000FD2H   LINE      CODE     ---       #721
      01000FD5H   LINE      CODE     ---       #722
      01000FE3H   LINE      CODE     ---       #723
      01000FE3H   LINE      CODE     ---       #724
      01000FE3H   LINE      CODE     ---       #725
      01000FE7H   LINE      CODE     ---       #726
      01000FEBH   LINE      CODE     ---       #727
      01000FEDH   LINE      CODE     ---       #728
      01000FEDH   LINE      CODE     ---       #729
      01000FF1H   LINE      CODE     ---       #730
      01000FF5H   LINE      CODE     ---       #731
      01000FF7H   LINE      CODE     ---       #732
      01000FF7H   LINE      CODE     ---       #733
      01000FFBH   LINE      CODE     ---       #734
      01000FFFH   LINE      CODE     ---       #735
LX51 LINKER/LOCATER V4.66.1.0                                                         09/08/2023  16:42:41  PAGE 129


      01001001H   LINE      CODE     ---       #736
      01001001H   LINE      CODE     ---       #737
      01001005H   LINE      CODE     ---       #738
      01001009H   LINE      CODE     ---       #739
      01001009H   LINE      CODE     ---       #740
      01001009H   LINE      CODE     ---       #741
      01001009H   LINE      CODE     ---       #742
      01001009H   LINE      CODE     ---       #743
      0100100DH   LINE      CODE     ---       #744
      ---         BLOCKEND  ---      ---       LVL=0

      01001FBAH   BLOCK     CODE     ---       LVL=0
      01001FBAH   LINE      CODE     ---       #753
      01001FBAH   LINE      CODE     ---       #754
      01001FBAH   LINE      CODE     ---       #755
      01001FBDH   LINE      CODE     ---       #756
      ---         BLOCKEND  ---      ---       LVL=0

      01001FBEH   BLOCK     CODE     ---       LVL=0
      01001FBEH   LINE      CODE     ---       #765
      01001FBEH   LINE      CODE     ---       #766
      01001FBEH   LINE      CODE     ---       #767
      01001FC1H   LINE      CODE     ---       #768
      ---         BLOCKEND  ---      ---       LVL=0

      01001E12H   BLOCK     CODE     ---       LVL=0
      01001E12H   LINE      CODE     ---       #777
      01001E12H   LINE      CODE     ---       #778
      01001E12H   LINE      CODE     ---       #779
      01001E1BH   LINE      CODE     ---       #780
      ---         BLOCKEND  ---      ---       LVL=0

      01001FC2H   BLOCK     CODE     ---       LVL=0
      01001FC2H   LINE      CODE     ---       #788
      01001FC2H   LINE      CODE     ---       #789
      01001FC2H   LINE      CODE     ---       #790
      01001FC5H   LINE      CODE     ---       #791
      ---         BLOCKEND  ---      ---       LVL=0

      01001FC6H   BLOCK     CODE     ---       LVL=0
      01001FC6H   LINE      CODE     ---       #800
      01001FC6H   LINE      CODE     ---       #801
      01001FC6H   LINE      CODE     ---       #802
      01001FC9H   LINE      CODE     ---       #803
      ---         BLOCKEND  ---      ---       LVL=0

      01001FCAH   BLOCK     CODE     ---       LVL=0
      01001FCAH   LINE      CODE     ---       #812
      01001FCAH   LINE      CODE     ---       #813
      01001FCAH   LINE      CODE     ---       #814
      01001FCDH   LINE      CODE     ---       #815
      ---         BLOCKEND  ---      ---       LVL=0

      01001E1CH   BLOCK     CODE     ---       LVL=0
      01001E1CH   LINE      CODE     ---       #823
      01001E1CH   LINE      CODE     ---       #824
      01001E1CH   LINE      CODE     ---       #825
      01001E25H   LINE      CODE     ---       #826
      ---         BLOCKEND  ---      ---       LVL=0

      01001FCEH   BLOCK     CODE     ---       LVL=0
      01001FCEH   LINE      CODE     ---       #835
      01001FCEH   LINE      CODE     ---       #836
      01001FCEH   LINE      CODE     ---       #837
      01001FD1H   LINE      CODE     ---       #838
LX51 LINKER/LOCATER V4.66.1.0                                                         09/08/2023  16:42:41  PAGE 130


      ---         BLOCKEND  ---      ---       LVL=0

      01001B81H   BLOCK     CODE     ---       LVL=0
      00000007H   SYMBOL    DATA     BYTE      Timer2CCn
      01001B81H   LINE      CODE     ---       #847
      01001B81H   LINE      CODE     ---       #848
      01001B81H   LINE      CODE     ---       #849
      01001B8EH   LINE      CODE     ---       #850
      ---         BLOCKEND  ---      ---       LVL=0

      01001AD4H   BLOCK     CODE     ---       LVL=0
      00000007H   SYMBOL    DATA     BYTE      Timer2CCn
      01001AD4H   LINE      CODE     ---       #859
      01001AD4H   LINE      CODE     ---       #860
      01001AD4H   LINE      CODE     ---       #861
      01001AE2H   LINE      CODE     ---       #862
      ---         BLOCKEND  ---      ---       LVL=0

      010016C0H   BLOCK     CODE     ---       LVL=0
      00000007H   SYMBOL    DATA     BYTE      Timer2CCn
      010016C0H   LINE      CODE     ---       #871
      010016C0H   LINE      CODE     ---       #872
      010016C0H   LINE      CODE     ---       #873
      010016DBH   LINE      CODE     ---       #874
      ---         BLOCKEND  ---      ---       LVL=0

      01001AE3H   BLOCK     CODE     ---       LVL=0
      00000007H   SYMBOL    DATA     BYTE      Timer2CCn
      01001AE3H   LINE      CODE     ---       #882
      01001AE3H   LINE      CODE     ---       #883
      01001AE3H   LINE      CODE     ---       #884
      01001AF1H   LINE      CODE     ---       #885
      ---         BLOCKEND  ---      ---       LVL=0

      01001B8FH   BLOCK     CODE     ---       LVL=0
      00000007H   SYMBOL    DATA     BYTE      Timer2CCn
      01001B8FH   LINE      CODE     ---       #894
      01001B8FH   LINE      CODE     ---       #895
      01001B8FH   LINE      CODE     ---       #896
      01001B9CH   LINE      CODE     ---       #897
      ---         BLOCKEND  ---      ---       LVL=0

      01001AF2H   BLOCK     CODE     ---       LVL=0
      00000007H   SYMBOL    DATA     BYTE      Timer2CCn
      01001AF2H   LINE      CODE     ---       #905
      01001AF2H   LINE      CODE     ---       #906
      01001AF2H   LINE      CODE     ---       #907
      01001B00H   LINE      CODE     ---       #908
      ---         BLOCKEND  ---      ---       LVL=0

      010016DCH   BLOCK     CODE     ---       LVL=0
      00000007H   SYMBOL    DATA     BYTE      Timer2CCn
      010016DCH   LINE      CODE     ---       #916
      010016DCH   LINE      CODE     ---       #917
      010016DCH   LINE      CODE     ---       #918
      010016F7H   LINE      CODE     ---       #919
      ---         BLOCKEND  ---      ---       LVL=0

      01001B01H   BLOCK     CODE     ---       LVL=0
      00000007H   SYMBOL    DATA     BYTE      Timer2CCn
      01001B01H   LINE      CODE     ---       #927
      01001B01H   LINE      CODE     ---       #928
      01001B01H   LINE      CODE     ---       #929
      01001B0FH   LINE      CODE     ---       #930
      ---         BLOCKEND  ---      ---       LVL=0
LX51 LINKER/LOCATER V4.66.1.0                                                         09/08/2023  16:42:41  PAGE 131



      01001FE4H   BLOCK     CODE     ---       LVL=0
      01001FE4H   LINE      CODE     ---       #939
      01001FE4H   LINE      CODE     ---       #940
      01001FE4H   LINE      CODE     ---       #941
      01001FE6H   LINE      CODE     ---       #942
      ---         BLOCKEND  ---      ---       LVL=0

      01001FE7H   BLOCK     CODE     ---       LVL=0
      01001FE7H   LINE      CODE     ---       #951
      01001FE7H   LINE      CODE     ---       #952
      01001FE7H   LINE      CODE     ---       #953
      01001FE9H   LINE      CODE     ---       #954
      ---         BLOCKEND  ---      ---       LVL=0

      01001E26H   BLOCK     CODE     ---       LVL=0
      01001E26H   LINE      CODE     ---       #962
      01001E26H   LINE      CODE     ---       #963
      01001E26H   LINE      CODE     ---       #964
      01001E2CH   LINE      CODE     ---       #965
      01001E2CH   LINE      CODE     ---       #966
      01001E2FH   LINE      CODE     ---       #967
      01001E2FH   LINE      CODE     ---       #968
      ---         BLOCKEND  ---      ---       LVL=0

      01001FD2H   BLOCK     CODE     ---       LVL=0
      01001FD2H   LINE      CODE     ---       #976
      01001FD2H   LINE      CODE     ---       #977
      01001FD2H   LINE      CODE     ---       #978
      01001FD5H   LINE      CODE     ---       #979
      ---         BLOCKEND  ---      ---       LVL=0

      ---         MODULE    ---      ---       WDT
      010017EBH   PUBLIC    CODE     ---       WDT_ClearOverflowIntFlag
      01001E30H   PUBLIC    CODE     ---       WDT_GetOverflowIntFlag
      01001FDAH   PUBLIC    CODE     ---       WDT_DisableOverflowInt
      01001FD6H   PUBLIC    CODE     ---       WDT_EnableOverflowInt
      010017D0H   PUBLIC    CODE     ---       WDT_ClearWDT
      01001B10H   PUBLIC    CODE     ---       _WDT_ConfigOverflowTime
      000000C8H   SFRSYM    DATA     BIT       T2I0
      000000C3H   SFRSYM    DATA     BYTE      CCH1
      00000080H   SFRSYM    DATA     BYTE      P0
      000000C8H.1 SFRSYM    DATA     BIT       T2I1
      000000C5H   SFRSYM    DATA     BYTE      CCH2
      00000090H   SFRSYM    DATA     BYTE      P1
      000000C7H   SFRSYM    DATA     BYTE      CCH3
      000000ACH   SFRSYM    DATA     BYTE      P0EXTIE
      000000A0H   SFRSYM    DATA     BYTE      P2
      000000B4H   SFRSYM    DATA     BYTE      P0EXTIF
      000000B0H   SFRSYM    DATA     BYTE      P3
      000000ADH   SFRSYM    DATA     BYTE      P1EXTIE
      000000D0H.6 SFRSYM    DATA     BIT       AC
      000000FFH   SFRSYM    DATA     BYTE      MCTRL
      000000C2H   SFRSYM    DATA     BYTE      CCL1
      000000B5H   SFRSYM    DATA     BYTE      P1EXTIF
      000000AEH   SFRSYM    DATA     BYTE      P2EXTIE
      000000C4H   SFRSYM    DATA     BYTE      CCL2
      000000B6H   SFRSYM    DATA     BYTE      P2EXTIF
      000000AFH   SFRSYM    DATA     BYTE      P3EXTIE
      000000A8H.7 SFRSYM    DATA     BIT       EA
      000000C6H   SFRSYM    DATA     BYTE      CCL3
      000000B7H   SFRSYM    DATA     BYTE      P3EXTIF
      000000AAH   SFRSYM    DATA     BYTE      EIE2
      000000B2H   SFRSYM    DATA     BYTE      EIF2
      000000C8H.3 SFRSYM    DATA     BIT       T2R0
LX51 LINKER/LOCATER V4.66.1.0                                                         09/08/2023  16:42:41  PAGE 132


      000000C8H.4 SFRSYM    DATA     BIT       T2R1
      00000083H   SFRSYM    DATA     BYTE      DPH0
      000000A8H   SFRSYM    DATA     BYTE      IE
      00000085H   SFRSYM    DATA     BYTE      DPH1
      000000B9H   SFRSYM    DATA     BYTE      EIP1
      000000BAH   SFRSYM    DATA     BYTE      EIP2
      00000082H   SFRSYM    DATA     BYTE      DPL0
      00000084H   SFRSYM    DATA     BYTE      DPL1
      000000C8H.6 SFRSYM    DATA     BIT       I3FR
      000000CFH   SFRSYM    DATA     BYTE      T2IE
      00000096H   SFRSYM    DATA     BYTE      TA
      000000C9H   SFRSYM    DATA     BYTE      T2IF
      000000C8H.2 SFRSYM    DATA     BIT       T2CM
      000000DFH   SFRSYM    DATA     BYTE      ADCON0
      000000DEH   SFRSYM    DATA     BYTE      ADCON1
      000000E9H   SFRSYM    DATA     BYTE      ADCON2
      000000B8H   SFRSYM    DATA     BYTE      IP
      000000CEH   SFRSYM    DATA     BYTE      CCEN
      000000D0H.7 SFRSYM    DATA     BIT       CY
      000000D2H   SFRSYM    DATA     BYTE      T34MOD
      00000093H   SFRSYM    DATA     BYTE      DPX0
      00000095H   SFRSYM    DATA     BYTE      DPX1
      000000F4H   SFRSYM    DATA     BYTE      I2CMSA
      000000F5H   SFRSYM    DATA     BYTE      I2CMCR
      00000081H   SFRSYM    DATA     BYTE      SP
      000000D0H.2 SFRSYM    DATA     BIT       OV
      000000F2H   SFRSYM    DATA     BYTE      I2CSCR
      000000C8H.7 SFRSYM    DATA     BIT       T2PS
      000000D1H   SFRSYM    DATA     BYTE      ADCMPC
      000000CBH   SFRSYM    DATA     BYTE      RLDH
      000000D5H   SFRSYM    DATA     BYTE      ADCMPH
      000000CAH   SFRSYM    DATA     BYTE      RLDL
      00000080H   SFRSYM    DATA     BIT       P00
      00000090H   SFRSYM    DATA     BIT       P10
      00000080H.1 SFRSYM    DATA     BIT       P01
      000000F7H   SFRSYM    DATA     BYTE      I2CMTP
      00000099H   SFRSYM    DATA     BYTE      SBUF
      00000087H   SFRSYM    DATA     BYTE      PCON
      000000A0H   SFRSYM    DATA     BIT       P20
      00000090H.1 SFRSYM    DATA     BIT       P11
      00000080H.2 SFRSYM    DATA     BIT       P02
      000000F5H   SFRSYM    DATA     BYTE      I2CMSR
      000000B0H   SFRSYM    DATA     BIT       P30
      000000A0H.1 SFRSYM    DATA     BIT       P21
      00000090H.2 SFRSYM    DATA     BIT       P12
      00000080H.3 SFRSYM    DATA     BIT       P03
      000000D4H   SFRSYM    DATA     BYTE      ADCMPL
      000000B0H.1 SFRSYM    DATA     BIT       P31
      000000A0H.2 SFRSYM    DATA     BIT       P22
      00000090H.3 SFRSYM    DATA     BIT       P13
      00000080H.4 SFRSYM    DATA     BIT       P04
      000000B0H.2 SFRSYM    DATA     BIT       P32
      000000A0H.3 SFRSYM    DATA     BIT       P23
      00000090H.4 SFRSYM    DATA     BIT       P14
      00000080H.5 SFRSYM    DATA     BIT       P05
      00000089H   SFRSYM    DATA     BYTE      TMOD
      00000088H   SFRSYM    DATA     BYTE      TCON
      000000B0H.3 SFRSYM    DATA     BIT       P33
      000000A0H.4 SFRSYM    DATA     BIT       P24
      00000090H.5 SFRSYM    DATA     BIT       P15
      00000080H.6 SFRSYM    DATA     BIT       P06
      000000B0H.4 SFRSYM    DATA     BIT       P34
      000000A0H.5 SFRSYM    DATA     BIT       P25
      00000090H.6 SFRSYM    DATA     BIT       P16
      00000080H.7 SFRSYM    DATA     BIT       P07
LX51 LINKER/LOCATER V4.66.1.0                                                         09/08/2023  16:42:41  PAGE 133


      000000B0H.5 SFRSYM    DATA     BIT       P35
      000000A0H.6 SFRSYM    DATA     BIT       P26
      00000090H.7 SFRSYM    DATA     BIT       P17
      000000F2H   SFRSYM    DATA     BYTE      I2CSSR
      000000B0H.6 SFRSYM    DATA     BIT       P36
      000000A0H.7 SFRSYM    DATA     BIT       P27
      000000ECH   SFRSYM    DATA     BYTE      SPCR
      000000DDH   SFRSYM    DATA     BYTE      ADRESH
      000000B0H.7 SFRSYM    DATA     BIT       P37
      000000EEH   SFRSYM    DATA     BYTE      SPDR
      000000EFH   SFRSYM    DATA     BYTE      SSCR
      000000D3H   SFRSYM    DATA     BYTE      ADDLYL
      000000DCH   SFRSYM    DATA     BYTE      ADRESL
      00000088H.1 SFRSYM    DATA     BIT       IE0
      00000088H.3 SFRSYM    DATA     BIT       IE1
      0000008FH   SFRSYM    DATA     BYTE      CLKDIV
      000000F0H   SFRSYM    DATA     BYTE      B
      00000091H   SFRSYM    DATA     BYTE      FUNCCR
      0000009AH   SFRSYM    DATA     BYTE      P0TRIS
      000000A1H   SFRSYM    DATA     BYTE      P1TRIS
      000000A2H   SFRSYM    DATA     BYTE      P2TRIS
      000000E0H   SFRSYM    DATA     BYTE      ACC
      000000A3H   SFRSYM    DATA     BYTE      P3TRIS
      000000A8H.4 SFRSYM    DATA     BIT       ES0
      000000A8H.6 SFRSYM    DATA     BIT       ES1
      000000A8H.1 SFRSYM    DATA     BIT       ET0
      000000EDH   SFRSYM    DATA     BYTE      SPSR
      000000A8H.3 SFRSYM    DATA     BIT       ET1
      00000088H.5 SFRSYM    DATA     BIT       TF0
      000000A8H.5 SFRSYM    DATA     BIT       ET2
      00000098H   SFRSYM    DATA     BIT       RI0
      00000088H.7 SFRSYM    DATA     BIT       TF1
      0000008CH   SFRSYM    DATA     BYTE      TH0
      000000A8H   SFRSYM    DATA     BIT       EX0
      00000098H.1 SFRSYM    DATA     BIT       TI0
      00000088H   SFRSYM    DATA     BIT       IT0
      0000008DH   SFRSYM    DATA     BYTE      TH1
      000000A8H.2 SFRSYM    DATA     BIT       EX1
      00000088H.2 SFRSYM    DATA     BIT       IT1
      000000CDH   SFRSYM    DATA     BYTE      TH2
      000000D0H   SFRSYM    DATA     BIT       P
      000000DBH   SFRSYM    DATA     BYTE      TH3
      000000E3H   SFRSYM    DATA     BYTE      TH4
      0000008AH   SFRSYM    DATA     BYTE      TL0
      0000008BH   SFRSYM    DATA     BYTE      TL1
      00000098H.2 SFRSYM    DATA     BIT       U0RB8
      000000CCH   SFRSYM    DATA     BYTE      TL2
      000000B8H.4 SFRSYM    DATA     BIT       PS0
      000000DAH   SFRSYM    DATA     BYTE      TL3
      000000BFH   SFRSYM    DATA     BYTE      BUZCON
      000000B8H.6 SFRSYM    DATA     BIT       PS1
      000000B8H.1 SFRSYM    DATA     BIT       PT0
      00000098H.3 SFRSYM    DATA     BIT       U0TB8
      000000E2H   SFRSYM    DATA     BYTE      TL4
      000000D0H.3 SFRSYM    DATA     BIT       RS0
      000000B8H.3 SFRSYM    DATA     BIT       PT1
      000000D0H.4 SFRSYM    DATA     BIT       RS1
      000000B8H.5 SFRSYM    DATA     BIT       PT2
      00000098H.7 SFRSYM    DATA     BIT       U0SM0
      00000088H.4 SFRSYM    DATA     BIT       TR0
      000000BEH   SFRSYM    DATA     BYTE      BUZDIV
      00000098H.6 SFRSYM    DATA     BIT       U0SM1
      00000088H.6 SFRSYM    DATA     BIT       TR1
      000000B8H   SFRSYM    DATA     BIT       PX0
      00000098H.5 SFRSYM    DATA     BIT       U0SM2
LX51 LINKER/LOCATER V4.66.1.0                                                         09/08/2023  16:42:41  PAGE 134


      000000B8H.2 SFRSYM    DATA     BIT       PX1
      000000BDH   SFRSYM    DATA     BYTE      WUTCRH
      00000099H   SFRSYM    DATA     BYTE      SBUF0
      000000EBH   SFRSYM    DATA     BYTE      SBUF1
      000000BCH   SFRSYM    DATA     BYTE      WUTCRL
      00000098H   SFRSYM    DATA     BYTE      SCON0
      000000EAH   SFRSYM    DATA     BYTE      SCON1
      000000C8H   SFRSYM    DATA     BYTE      T2CON
      00000086H   SFRSYM    DATA     BYTE      DPS
      000000FEH   SFRSYM    DATA     BYTE      MDATA
      000000F6H   SFRSYM    DATA     BYTE      I2CMBUF
      000000F1H   SFRSYM    DATA     BYTE      I2CSADR
      00000098H.4 SFRSYM    DATA     BIT       U0REN
      000000C8H.5 SFRSYM    DATA     BIT       CAPES
      000000FDH   SFRSYM    DATA     BYTE      MADRH
      0000008EH   SFRSYM    DATA     BYTE      CKCON
      000000F3H   SFRSYM    DATA     BYTE      I2CSBUF
      000000FCH   SFRSYM    DATA     BYTE      MADRL
      000000D0H.5 SFRSYM    DATA     BIT       F0
      000000FBH   SFRSYM    DATA     BYTE      MLOCK
      000000D0H   SFRSYM    DATA     BYTE      PSW
      00000097H   SFRSYM    DATA     BYTE      WDCON

      01001B10H   BLOCK     CODE     ---       LVL=0
      00000007H   SYMBOL    DATA     BYTE      TsysCoefficient
      01001B10H   BLOCK     CODE     NEAR LAB  LVL=1
      00000006H   SYMBOL    DATA     BYTE      Temp
      ---         BLOCKEND  ---      ---       LVL=1
      01001B10H   LINE      CODE     ---       #81
      01001B10H   LINE      CODE     ---       #82
      01001B10H   LINE      CODE     ---       #83
      01001B10H   LINE      CODE     ---       #85
      01001B12H   LINE      CODE     ---       #86
      01001B15H   LINE      CODE     ---       #87
      01001B1CH   LINE      CODE     ---       #88
      01001B1EH   LINE      CODE     ---       #89
      ---         BLOCKEND  ---      ---       LVL=0

      010017D0H   BLOCK     CODE     ---       LVL=0
      010017D0H   LINE      CODE     ---       #98
      010017D0H   LINE      CODE     ---       #99
      010017D0H   LINE      CODE     ---       #100
      010017D3H   LINE      CODE     ---       #101
      010017D3H   LINE      CODE     ---       #102
      010017D5H   LINE      CODE     ---       #103
      010017D8H   LINE      CODE     ---       #104
      010017DBH   LINE      CODE     ---       #105
      010017DEH   LINE      CODE     ---       #106
      010017E0H   LINE      CODE     ---       #107
      010017E1H   LINE      CODE     ---       #109
      010017E1H   LINE      CODE     ---       #110
      010017E4H   LINE      CODE     ---       #111
      010017E7H   LINE      CODE     ---       #112
      010017EAH   LINE      CODE     ---       #113
      010017EAH   LINE      CODE     ---       #114
      ---         BLOCKEND  ---      ---       LVL=0

      01001FD6H   BLOCK     CODE     ---       LVL=0
      01001FD6H   LINE      CODE     ---       #123
      01001FD6H   LINE      CODE     ---       #124
      01001FD6H   LINE      CODE     ---       #125
      01001FD9H   LINE      CODE     ---       #126
      ---         BLOCKEND  ---      ---       LVL=0

      01001FDAH   BLOCK     CODE     ---       LVL=0
LX51 LINKER/LOCATER V4.66.1.0                                                         09/08/2023  16:42:41  PAGE 135


      01001FDAH   LINE      CODE     ---       #135
      01001FDAH   LINE      CODE     ---       #136
      01001FDAH   LINE      CODE     ---       #137
      01001FDDH   LINE      CODE     ---       #138
      ---         BLOCKEND  ---      ---       LVL=0

      01001E30H   BLOCK     CODE     ---       LVL=0
      01001E30H   LINE      CODE     ---       #147
      01001E30H   LINE      CODE     ---       #148
      01001E30H   LINE      CODE     ---       #149
      01001E39H   LINE      CODE     ---       #150
      ---         BLOCKEND  ---      ---       LVL=0

      010017EBH   BLOCK     CODE     ---       LVL=0
      010017EBH   LINE      CODE     ---       #159
      010017EBH   LINE      CODE     ---       #160
      010017EBH   LINE      CODE     ---       #161
      010017EEH   LINE      CODE     ---       #162
      010017EEH   LINE      CODE     ---       #163
      010017F0H   LINE      CODE     ---       #164
      010017F3H   LINE      CODE     ---       #165
      010017F6H   LINE      CODE     ---       #166
      010017F9H   LINE      CODE     ---       #167
      010017FBH   LINE      CODE     ---       #168
      010017FCH   LINE      CODE     ---       #170
      010017FCH   LINE      CODE     ---       #171
      010017FFH   LINE      CODE     ---       #172
      01001802H   LINE      CODE     ---       #173
      01001805H   LINE      CODE     ---       #174
      01001805H   LINE      CODE     ---       #175
      ---         BLOCKEND  ---      ---       LVL=0

      ---         MODULE    ---      ---       ?C_STARTUP
      01000000H   PUBLIC    CODE     ---       ?C_STARTUP
      000000E0H   SYMBOL    DATA     ---       ACC
      000000F0H   SYMBOL    DATA     ---       B
      00000083H   SYMBOL    DATA     ---       DPH
      00000082H   SYMBOL    DATA     ---       DPL
      00000000H   SYMBOL    NUMBER   ---       IBPSTACK
      00000100H   SYMBOL    NUMBER   ---       IBPSTACKTOP
      00000100H   SYMBOL    NUMBER   ---       IDATALEN
      01000870H   SYMBOL    CODE     ---       IDATALOOP
      00000000H   SYMBOL    NUMBER   ---       PBPSTACK
      00000100H   SYMBOL    NUMBER   ---       PBPSTACKTOP
      00000000H   SYMBOL    NUMBER   ---       PDATALEN
      00000000H   SYMBOL    NUMBER   ---       PDATASTART
      00000000H   SYMBOL    NUMBER   ---       PPAGE
      00000000H   SYMBOL    NUMBER   ---       PPAGEENABLE
      000000A0H   SYMBOL    DATA     ---       PPAGE_SFR
      00000081H   SYMBOL    DATA     ---       SP
      0100086DH   SYMBOL    CODE     ---       STARTUP1
      00000000H   SYMBOL    NUMBER   ---       XBPSTACK
      00000000H   SYMBOL    NUMBER   ---       XBPSTACKTOP
      00000400H   SYMBOL    NUMBER   ---       XDATALEN
      0100087BH   SYMBOL    CODE     ---       XDATALOOP
      00000000H   SYMBOL    NUMBER   ---       XDATASTART
      01000000H   LINE      CODE     ---       #126
      0100086DH   LINE      CODE     ---       #133
      0100086FH   LINE      CODE     ---       #134
      01000870H   LINE      CODE     ---       #135
      01000871H   LINE      CODE     ---       #136
      01000873H   LINE      CODE     ---       #140
      01000876H   LINE      CODE     ---       #141
      01000878H   LINE      CODE     ---       #145
      0100087AH   LINE      CODE     ---       #147
LX51 LINKER/LOCATER V4.66.1.0                                                         09/08/2023  16:42:41  PAGE 136


      0100087BH   LINE      CODE     ---       #148
      0100087CH   LINE      CODE     ---       #149
      0100087DH   LINE      CODE     ---       #150
      0100087FH   LINE      CODE     ---       #151
      01000881H   LINE      CODE     ---       #185
      01000884H   LINE      CODE     ---       #196

      ---         MODULE    ---      ---       TEST_UART
      010018AFH   PUBLIC    CODE     ---       _puts
      01001D7BH   PUBLIC    CODE     ---       getchar
      01001BF9H   PUBLIC    CODE     ---       _putchar
      01000B19H   PUBLIC    CODE     ---       _UART_ISR_Config
      0100100EH   PUBLIC    CODE     ---       _UART_Config
      000000C8H   SFRSYM    DATA     BIT       T2I0
      000000C3H   SFRSYM    DATA     BYTE      CCH1
      00000080H   SFRSYM    DATA     BYTE      P0
      000000C8H.1 SFRSYM    DATA     BIT       T2I1
      000000C5H   SFRSYM    DATA     BYTE      CCH2
      00000090H   SFRSYM    DATA     BYTE      P1
      000000C7H   SFRSYM    DATA     BYTE      CCH3
      000000ACH   SFRSYM    DATA     BYTE      P0EXTIE
      000000A0H   SFRSYM    DATA     BYTE      P2
      000000B4H   SFRSYM    DATA     BYTE      P0EXTIF
      000000B0H   SFRSYM    DATA     BYTE      P3
      000000ADH   SFRSYM    DATA     BYTE      P1EXTIE
      000000D0H.6 SFRSYM    DATA     BIT       AC
      000000FFH   SFRSYM    DATA     BYTE      MCTRL
      000000C2H   SFRSYM    DATA     BYTE      CCL1
      000000B5H   SFRSYM    DATA     BYTE      P1EXTIF
      000000AEH   SFRSYM    DATA     BYTE      P2EXTIE
      000000C4H   SFRSYM    DATA     BYTE      CCL2
      000000B6H   SFRSYM    DATA     BYTE      P2EXTIF
      000000AFH   SFRSYM    DATA     BYTE      P3EXTIE
      000000A8H.7 SFRSYM    DATA     BIT       EA
      000000C6H   SFRSYM    DATA     BYTE      CCL3
      000000B7H   SFRSYM    DATA     BYTE      P3EXTIF
      000000AAH   SFRSYM    DATA     BYTE      EIE2
      000000B2H   SFRSYM    DATA     BYTE      EIF2
      000000C8H.3 SFRSYM    DATA     BIT       T2R0
      000000C8H.4 SFRSYM    DATA     BIT       T2R1
      00000083H   SFRSYM    DATA     BYTE      DPH0
      000000A8H   SFRSYM    DATA     BYTE      IE
      00000085H   SFRSYM    DATA     BYTE      DPH1
      000000B9H   SFRSYM    DATA     BYTE      EIP1
      000000BAH   SFRSYM    DATA     BYTE      EIP2
      00000082H   SFRSYM    DATA     BYTE      DPL0
      00000084H   SFRSYM    DATA     BYTE      DPL1
      000000C8H.6 SFRSYM    DATA     BIT       I3FR
      000000CFH   SFRSYM    DATA     BYTE      T2IE
      00000096H   SFRSYM    DATA     BYTE      TA
      000000C9H   SFRSYM    DATA     BYTE      T2IF
      000000C8H.2 SFRSYM    DATA     BIT       T2CM
      000000DFH   SFRSYM    DATA     BYTE      ADCON0
      000000DEH   SFRSYM    DATA     BYTE      ADCON1
      000000E9H   SFRSYM    DATA     BYTE      ADCON2
      000000B8H   SFRSYM    DATA     BYTE      IP
      000000CEH   SFRSYM    DATA     BYTE      CCEN
      000000D0H.7 SFRSYM    DATA     BIT       CY
      000000D2H   SFRSYM    DATA     BYTE      T34MOD
      00000093H   SFRSYM    DATA     BYTE      DPX0
      00000095H   SFRSYM    DATA     BYTE      DPX1
      000000F4H   SFRSYM    DATA     BYTE      I2CMSA
      000000F5H   SFRSYM    DATA     BYTE      I2CMCR
      00000081H   SFRSYM    DATA     BYTE      SP
      000000D0H.2 SFRSYM    DATA     BIT       OV
LX51 LINKER/LOCATER V4.66.1.0                                                         09/08/2023  16:42:41  PAGE 137


      000000F2H   SFRSYM    DATA     BYTE      I2CSCR
      000000C8H.7 SFRSYM    DATA     BIT       T2PS
      000000D1H   SFRSYM    DATA     BYTE      ADCMPC
      000000CBH   SFRSYM    DATA     BYTE      RLDH
      000000D5H   SFRSYM    DATA     BYTE      ADCMPH
      000000CAH   SFRSYM    DATA     BYTE      RLDL
      00000080H   SFRSYM    DATA     BIT       P00
      00000090H   SFRSYM    DATA     BIT       P10
      00000080H.1 SFRSYM    DATA     BIT       P01
      000000F7H   SFRSYM    DATA     BYTE      I2CMTP
      00000099H   SFRSYM    DATA     BYTE      SBUF
      00000087H   SFRSYM    DATA     BYTE      PCON
      000000A0H   SFRSYM    DATA     BIT       P20
      00000090H.1 SFRSYM    DATA     BIT       P11
      00000080H.2 SFRSYM    DATA     BIT       P02
      000000F5H   SFRSYM    DATA     BYTE      I2CMSR
      000000B0H   SFRSYM    DATA     BIT       P30
      000000A0H.1 SFRSYM    DATA     BIT       P21
      00000090H.2 SFRSYM    DATA     BIT       P12
      00000080H.3 SFRSYM    DATA     BIT       P03
      000000D4H   SFRSYM    DATA     BYTE      ADCMPL
      000000B0H.1 SFRSYM    DATA     BIT       P31
      000000A0H.2 SFRSYM    DATA     BIT       P22
      00000090H.3 SFRSYM    DATA     BIT       P13
      00000080H.4 SFRSYM    DATA     BIT       P04
      000000B0H.2 SFRSYM    DATA     BIT       P32
      000000A0H.3 SFRSYM    DATA     BIT       P23
      00000090H.4 SFRSYM    DATA     BIT       P14
      00000080H.5 SFRSYM    DATA     BIT       P05
      00000089H   SFRSYM    DATA     BYTE      TMOD
      00000088H   SFRSYM    DATA     BYTE      TCON
      000000B0H.3 SFRSYM    DATA     BIT       P33
      000000A0H.4 SFRSYM    DATA     BIT       P24
      00000090H.5 SFRSYM    DATA     BIT       P15
      00000080H.6 SFRSYM    DATA     BIT       P06
      000000B0H.4 SFRSYM    DATA     BIT       P34
      000000A0H.5 SFRSYM    DATA     BIT       P25
      00000090H.6 SFRSYM    DATA     BIT       P16
      00000080H.7 SFRSYM    DATA     BIT       P07
      000000B0H.5 SFRSYM    DATA     BIT       P35
      000000A0H.6 SFRSYM    DATA     BIT       P26
      00000090H.7 SFRSYM    DATA     BIT       P17
      000000F2H   SFRSYM    DATA     BYTE      I2CSSR
      000000B0H.6 SFRSYM    DATA     BIT       P36
      000000A0H.7 SFRSYM    DATA     BIT       P27
      000000ECH   SFRSYM    DATA     BYTE      SPCR
      000000DDH   SFRSYM    DATA     BYTE      ADRESH
      000000B0H.7 SFRSYM    DATA     BIT       P37
      000000EEH   SFRSYM    DATA     BYTE      SPDR
      000000EFH   SFRSYM    DATA     BYTE      SSCR
      000000D3H   SFRSYM    DATA     BYTE      ADDLYL
      000000DCH   SFRSYM    DATA     BYTE      ADRESL
      00000088H.1 SFRSYM    DATA     BIT       IE0
      00000088H.3 SFRSYM    DATA     BIT       IE1
      0000008FH   SFRSYM    DATA     BYTE      CLKDIV
      000000F0H   SFRSYM    DATA     BYTE      B
      00000091H   SFRSYM    DATA     BYTE      FUNCCR
      0000009AH   SFRSYM    DATA     BYTE      P0TRIS
      000000A1H   SFRSYM    DATA     BYTE      P1TRIS
      000000A2H   SFRSYM    DATA     BYTE      P2TRIS
      000000E0H   SFRSYM    DATA     BYTE      ACC
      000000A3H   SFRSYM    DATA     BYTE      P3TRIS
      000000A8H.4 SFRSYM    DATA     BIT       ES0
      000000A8H.6 SFRSYM    DATA     BIT       ES1
      000000A8H.1 SFRSYM    DATA     BIT       ET0
LX51 LINKER/LOCATER V4.66.1.0                                                         09/08/2023  16:42:41  PAGE 138


      000000EDH   SFRSYM    DATA     BYTE      SPSR
      000000A8H.3 SFRSYM    DATA     BIT       ET1
      00000088H.5 SFRSYM    DATA     BIT       TF0
      000000A8H.5 SFRSYM    DATA     BIT       ET2
      00000098H   SFRSYM    DATA     BIT       RI0
      00000088H.7 SFRSYM    DATA     BIT       TF1
      0000008CH   SFRSYM    DATA     BYTE      TH0
      000000A8H   SFRSYM    DATA     BIT       EX0
      00000098H.1 SFRSYM    DATA     BIT       TI0
      00000088H   SFRSYM    DATA     BIT       IT0
      0000008DH   SFRSYM    DATA     BYTE      TH1
      000000A8H.2 SFRSYM    DATA     BIT       EX1
      00000088H.2 SFRSYM    DATA     BIT       IT1
      000000CDH   SFRSYM    DATA     BYTE      TH2
      000000D0H   SFRSYM    DATA     BIT       P
      000000DBH   SFRSYM    DATA     BYTE      TH3
      000000E3H   SFRSYM    DATA     BYTE      TH4
      0000008AH   SFRSYM    DATA     BYTE      TL0
      0000008BH   SFRSYM    DATA     BYTE      TL1
      00000098H.2 SFRSYM    DATA     BIT       U0RB8
      000000CCH   SFRSYM    DATA     BYTE      TL2
      000000B8H.4 SFRSYM    DATA     BIT       PS0
      000000DAH   SFRSYM    DATA     BYTE      TL3
      000000BFH   SFRSYM    DATA     BYTE      BUZCON
      000000B8H.6 SFRSYM    DATA     BIT       PS1
      000000B8H.1 SFRSYM    DATA     BIT       PT0
      00000098H.3 SFRSYM    DATA     BIT       U0TB8
      000000E2H   SFRSYM    DATA     BYTE      TL4
      000000D0H.3 SFRSYM    DATA     BIT       RS0
      000000B8H.3 SFRSYM    DATA     BIT       PT1
      000000D0H.4 SFRSYM    DATA     BIT       RS1
      000000B8H.5 SFRSYM    DATA     BIT       PT2
      00000098H.7 SFRSYM    DATA     BIT       U0SM0
      00000088H.4 SFRSYM    DATA     BIT       TR0
      000000BEH   SFRSYM    DATA     BYTE      BUZDIV
      00000098H.6 SFRSYM    DATA     BIT       U0SM1
      00000088H.6 SFRSYM    DATA     BIT       TR1
      000000B8H   SFRSYM    DATA     BIT       PX0
      00000098H.5 SFRSYM    DATA     BIT       U0SM2
      000000B8H.2 SFRSYM    DATA     BIT       PX1
      000000BDH   SFRSYM    DATA     BYTE      WUTCRH
      00000099H   SFRSYM    DATA     BYTE      SBUF0
      000000EBH   SFRSYM    DATA     BYTE      SBUF1
      000000BCH   SFRSYM    DATA     BYTE      WUTCRL
      00000098H   SFRSYM    DATA     BYTE      SCON0
      000000EAH   SFRSYM    DATA     BYTE      SCON1
      000000C8H   SFRSYM    DATA     BYTE      T2CON
      00000086H   SFRSYM    DATA     BYTE      DPS
      000000FEH   SFRSYM    DATA     BYTE      MDATA
      000000F6H   SFRSYM    DATA     BYTE      I2CMBUF
      000000F1H   SFRSYM    DATA     BYTE      I2CSADR
      00000098H.4 SFRSYM    DATA     BIT       U0REN
      000000C8H.5 SFRSYM    DATA     BIT       CAPES
      000000FDH   SFRSYM    DATA     BYTE      MADRH
      0000008EH   SFRSYM    DATA     BYTE      CKCON
      000000F3H   SFRSYM    DATA     BYTE      I2CSBUF
      000000FCH   SFRSYM    DATA     BYTE      MADRL
      000000D0H.5 SFRSYM    DATA     BIT       F0
      000000FBH   SFRSYM    DATA     BYTE      MLOCK
      000000D0H   SFRSYM    DATA     BYTE      PSW
      00000097H   SFRSYM    DATA     BYTE      WDCON

      0100100EH   BLOCK     CODE     ---       LVL=0
      0000000AH   SYMBOL    DATA     BYTE      UARTChose
      01001010H   BLOCK     CODE     NEAR LAB  LVL=1
LX51 LINKER/LOCATER V4.66.1.0                                                         09/08/2023  16:42:41  PAGE 139


      00000006H   SYMBOL    DATA     WORD      BRTValue
      0000000BH   SYMBOL    DATA     DWORD     BaudRateVlue
      ---         BLOCKEND  ---      ---       LVL=1
      0100100EH   LINE      CODE     ---       #9
      01001010H   LINE      CODE     ---       #10
      01001010H   LINE      CODE     ---       #13
      01001012H   LINE      CODE     ---       #14
      0100101CH   LINE      CODE     ---       #17
      01001025H   LINE      CODE     ---       #19
      0100102AH   LINE      CODE     ---       #22
      0100102FH   LINE      CODE     ---       #24
      01001034H   LINE      CODE     ---       #30
      01001038H   LINE      CODE     ---       #34
      0100103BH   LINE      CODE     ---       #36
      0100103EH   LINE      CODE     ---       #39
      01001044H   LINE      CODE     ---       #40
      01001049H   LINE      CODE     ---       #142
      ---         BLOCKEND  ---      ---       LVL=0

      01000B19H   BLOCK     CODE     ---       LVL=0
      00000007H   SYMBOL    DATA     BYTE      UARTChose
      00000033H   SYMBOL    DATA     BYTE      IRQPN
      01000B19H   LINE      CODE     ---       #152
      01000B1BH   LINE      CODE     ---       #153
      01000B1BH   LINE      CODE     ---       #155
      01000B1EH   LINE      CODE     ---       #157
      01000B93H   LINE      CODE     ---       #159
      01000B96H   LINE      CODE     ---       #160
      ---         BLOCKEND  ---      ---       LVL=0

      01001BF9H   BLOCK     CODE     ---       LVL=0
      00000007H   SYMBOL    DATA     CHAR      ch
      01001BF9H   LINE      CODE     ---       #169
      01001BF9H   LINE      CODE     ---       #170
      01001BF9H   LINE      CODE     ---       #171
      01001BFBH   LINE      CODE     ---       #172
      01001C00H   LINE      CODE     ---       #174
      01001C03H   LINE      CODE     ---       #175
      01001C05H   LINE      CODE     ---       #176
      ---         BLOCKEND  ---      ---       LVL=0

      01001D7BH   BLOCK     CODE     ---       LVL=0
      01001D7BH   LINE      CODE     ---       #183
      01001D7BH   LINE      CODE     ---       #184
      01001D7BH   LINE      CODE     ---       #185
      01001D80H   LINE      CODE     ---       #187
      01001D83H   LINE      CODE     ---       #188
      01001D85H   LINE      CODE     ---       #189
      ---         BLOCKEND  ---      ---       LVL=0

      010018AFH   BLOCK     CODE     ---       LVL=0
      00000001H   SYMBOL    DATA     ---       s
      010018AFH   LINE      CODE     ---       #191
      010018AFH   LINE      CODE     ---       #192
      010018AFH   LINE      CODE     ---       #193
      010018B5H   LINE      CODE     ---       #194
      010018B5H   LINE      CODE     ---       #195
      010018B8H   LINE      CODE     ---       #196
      010018BFH   LINE      CODE     ---       #197
      010018C1H   LINE      CODE     ---       #198
      010018C4H   LINE      CODE     ---       #199
      ---         BLOCKEND  ---      ---       LVL=0

      ---         MODULE    ---      ---       TEST_LED
      0100138BH   PUBLIC    CODE     ---       LED_Run
LX51 LINKER/LOCATER V4.66.1.0                                                         09/08/2023  16:42:41  PAGE 140


      01001B9DH   PUBLIC    CODE     ---       GPIO_Config
      000000C8H   SFRSYM    DATA     BIT       T2I0
      000000C3H   SFRSYM    DATA     BYTE      CCH1
      00000080H   SFRSYM    DATA     BYTE      P0
      000000C8H.1 SFRSYM    DATA     BIT       T2I1
      000000C5H   SFRSYM    DATA     BYTE      CCH2
      00000090H   SFRSYM    DATA     BYTE      P1
      000000C7H   SFRSYM    DATA     BYTE      CCH3
      000000ACH   SFRSYM    DATA     BYTE      P0EXTIE
      000000A0H   SFRSYM    DATA     BYTE      P2
      000000B4H   SFRSYM    DATA     BYTE      P0EXTIF
      000000B0H   SFRSYM    DATA     BYTE      P3
      000000ADH   SFRSYM    DATA     BYTE      P1EXTIE
      000000D0H.6 SFRSYM    DATA     BIT       AC
      000000FFH   SFRSYM    DATA     BYTE      MCTRL
      000000C2H   SFRSYM    DATA     BYTE      CCL1
      000000B5H   SFRSYM    DATA     BYTE      P1EXTIF
      000000AEH   SFRSYM    DATA     BYTE      P2EXTIE
      000000C4H   SFRSYM    DATA     BYTE      CCL2
      000000B6H   SFRSYM    DATA     BYTE      P2EXTIF
      000000AFH   SFRSYM    DATA     BYTE      P3EXTIE
      000000A8H.7 SFRSYM    DATA     BIT       EA
      000000C6H   SFRSYM    DATA     BYTE      CCL3
      000000B7H   SFRSYM    DATA     BYTE      P3EXTIF
      000000AAH   SFRSYM    DATA     BYTE      EIE2
      000000B2H   SFRSYM    DATA     BYTE      EIF2
      000000C8H.3 SFRSYM    DATA     BIT       T2R0
      000000C8H.4 SFRSYM    DATA     BIT       T2R1
      00000083H   SFRSYM    DATA     BYTE      DPH0
      000000A8H   SFRSYM    DATA     BYTE      IE
      00000085H   SFRSYM    DATA     BYTE      DPH1
      000000B9H   SFRSYM    DATA     BYTE      EIP1
      000000BAH   SFRSYM    DATA     BYTE      EIP2
      00000082H   SFRSYM    DATA     BYTE      DPL0
      00000084H   SFRSYM    DATA     BYTE      DPL1
      000000C8H.6 SFRSYM    DATA     BIT       I3FR
      000000CFH   SFRSYM    DATA     BYTE      T2IE
      00000096H   SFRSYM    DATA     BYTE      TA
      000000C9H   SFRSYM    DATA     BYTE      T2IF
      000000C8H.2 SFRSYM    DATA     BIT       T2CM
      000000DFH   SFRSYM    DATA     BYTE      ADCON0
      000000DEH   SFRSYM    DATA     BYTE      ADCON1
      000000E9H   SFRSYM    DATA     BYTE      ADCON2
      000000B8H   SFRSYM    DATA     BYTE      IP
      000000CEH   SFRSYM    DATA     BYTE      CCEN
      000000D0H.7 SFRSYM    DATA     BIT       CY
      000000D2H   SFRSYM    DATA     BYTE      T34MOD
      00000093H   SFRSYM    DATA     BYTE      DPX0
      00000095H   SFRSYM    DATA     BYTE      DPX1
      000000F4H   SFRSYM    DATA     BYTE      I2CMSA
      000000F5H   SFRSYM    DATA     BYTE      I2CMCR
      00000081H   SFRSYM    DATA     BYTE      SP
      000000D0H.2 SFRSYM    DATA     BIT       OV
      000000F2H   SFRSYM    DATA     BYTE      I2CSCR
      000000C8H.7 SFRSYM    DATA     BIT       T2PS
      000000D1H   SFRSYM    DATA     BYTE      ADCMPC
      000000CBH   SFRSYM    DATA     BYTE      RLDH
      000000D5H   SFRSYM    DATA     BYTE      ADCMPH
      000000CAH   SFRSYM    DATA     BYTE      RLDL
      00000080H   SFRSYM    DATA     BIT       P00
      00000090H   SFRSYM    DATA     BIT       P10
      00000080H.1 SFRSYM    DATA     BIT       P01
      000000F7H   SFRSYM    DATA     BYTE      I2CMTP
      00000099H   SFRSYM    DATA     BYTE      SBUF
      00000087H   SFRSYM    DATA     BYTE      PCON
LX51 LINKER/LOCATER V4.66.1.0                                                         09/08/2023  16:42:41  PAGE 141


      000000A0H   SFRSYM    DATA     BIT       P20
      00000090H.1 SFRSYM    DATA     BIT       P11
      00000080H.2 SFRSYM    DATA     BIT       P02
      000000F5H   SFRSYM    DATA     BYTE      I2CMSR
      000000B0H   SFRSYM    DATA     BIT       P30
      000000A0H.1 SFRSYM    DATA     BIT       P21
      00000090H.2 SFRSYM    DATA     BIT       P12
      00000080H.3 SFRSYM    DATA     BIT       P03
      000000D4H   SFRSYM    DATA     BYTE      ADCMPL
      000000B0H.1 SFRSYM    DATA     BIT       P31
      000000A0H.2 SFRSYM    DATA     BIT       P22
      00000090H.3 SFRSYM    DATA     BIT       P13
      00000080H.4 SFRSYM    DATA     BIT       P04
      000000B0H.2 SFRSYM    DATA     BIT       P32
      000000A0H.3 SFRSYM    DATA     BIT       P23
      00000090H.4 SFRSYM    DATA     BIT       P14
      00000080H.5 SFRSYM    DATA     BIT       P05
      00000089H   SFRSYM    DATA     BYTE      TMOD
      00000088H   SFRSYM    DATA     BYTE      TCON
      000000B0H.3 SFRSYM    DATA     BIT       P33
      000000A0H.4 SFRSYM    DATA     BIT       P24
      00000090H.5 SFRSYM    DATA     BIT       P15
      00000080H.6 SFRSYM    DATA     BIT       P06
      000000B0H.4 SFRSYM    DATA     BIT       P34
      000000A0H.5 SFRSYM    DATA     BIT       P25
      00000090H.6 SFRSYM    DATA     BIT       P16
      00000080H.7 SFRSYM    DATA     BIT       P07
      000000B0H.5 SFRSYM    DATA     BIT       P35
      000000A0H.6 SFRSYM    DATA     BIT       P26
      00000090H.7 SFRSYM    DATA     BIT       P17
      000000F2H   SFRSYM    DATA     BYTE      I2CSSR
      000000B0H.6 SFRSYM    DATA     BIT       P36
      000000A0H.7 SFRSYM    DATA     BIT       P27
      000000ECH   SFRSYM    DATA     BYTE      SPCR
      000000DDH   SFRSYM    DATA     BYTE      ADRESH
      000000B0H.7 SFRSYM    DATA     BIT       P37
      000000EEH   SFRSYM    DATA     BYTE      SPDR
      000000EFH   SFRSYM    DATA     BYTE      SSCR
      000000D3H   SFRSYM    DATA     BYTE      ADDLYL
      000000DCH   SFRSYM    DATA     BYTE      ADRESL
      00000088H.1 SFRSYM    DATA     BIT       IE0
      00000088H.3 SFRSYM    DATA     BIT       IE1
      0000008FH   SFRSYM    DATA     BYTE      CLKDIV
      000000F0H   SFRSYM    DATA     BYTE      B
      00000091H   SFRSYM    DATA     BYTE      FUNCCR
      0000009AH   SFRSYM    DATA     BYTE      P0TRIS
      000000A1H   SFRSYM    DATA     BYTE      P1TRIS
      000000A2H   SFRSYM    DATA     BYTE      P2TRIS
      000000E0H   SFRSYM    DATA     BYTE      ACC
      000000A3H   SFRSYM    DATA     BYTE      P3TRIS
      000000A8H.4 SFRSYM    DATA     BIT       ES0
      000000A8H.6 SFRSYM    DATA     BIT       ES1
      000000A8H.1 SFRSYM    DATA     BIT       ET0
      000000EDH   SFRSYM    DATA     BYTE      SPSR
      000000A8H.3 SFRSYM    DATA     BIT       ET1
      00000088H.5 SFRSYM    DATA     BIT       TF0
      000000A8H.5 SFRSYM    DATA     BIT       ET2
      00000098H   SFRSYM    DATA     BIT       RI0
      00000088H.7 SFRSYM    DATA     BIT       TF1
      0000008CH   SFRSYM    DATA     BYTE      TH0
      000000A8H   SFRSYM    DATA     BIT       EX0
      00000098H.1 SFRSYM    DATA     BIT       TI0
      00000088H   SFRSYM    DATA     BIT       IT0
      0000008DH   SFRSYM    DATA     BYTE      TH1
      000000A8H.2 SFRSYM    DATA     BIT       EX1
LX51 LINKER/LOCATER V4.66.1.0                                                         09/08/2023  16:42:41  PAGE 142


      00000088H.2 SFRSYM    DATA     BIT       IT1
      000000CDH   SFRSYM    DATA     BYTE      TH2
      000000D0H   SFRSYM    DATA     BIT       P
      000000DBH   SFRSYM    DATA     BYTE      TH3
      000000E3H   SFRSYM    DATA     BYTE      TH4
      0000008AH   SFRSYM    DATA     BYTE      TL0
      0000008BH   SFRSYM    DATA     BYTE      TL1
      00000098H.2 SFRSYM    DATA     BIT       U0RB8
      000000CCH   SFRSYM    DATA     BYTE      TL2
      000000B8H.4 SFRSYM    DATA     BIT       PS0
      000000DAH   SFRSYM    DATA     BYTE      TL3
      000000BFH   SFRSYM    DATA     BYTE      BUZCON
      000000B8H.6 SFRSYM    DATA     BIT       PS1
      000000B8H.1 SFRSYM    DATA     BIT       PT0
      00000098H.3 SFRSYM    DATA     BIT       U0TB8
      000000E2H   SFRSYM    DATA     BYTE      TL4
      000000D0H.3 SFRSYM    DATA     BIT       RS0
      000000B8H.3 SFRSYM    DATA     BIT       PT1
      000000D0H.4 SFRSYM    DATA     BIT       RS1
      000000B8H.5 SFRSYM    DATA     BIT       PT2
      00000098H.7 SFRSYM    DATA     BIT       U0SM0
      00000088H.4 SFRSYM    DATA     BIT       TR0
      000000BEH   SFRSYM    DATA     BYTE      BUZDIV
      00000098H.6 SFRSYM    DATA     BIT       U0SM1
      00000088H.6 SFRSYM    DATA     BIT       TR1
      000000B8H   SFRSYM    DATA     BIT       PX0
      00000098H.5 SFRSYM    DATA     BIT       U0SM2
      000000B8H.2 SFRSYM    DATA     BIT       PX1
      000000BDH   SFRSYM    DATA     BYTE      WUTCRH
      00000099H   SFRSYM    DATA     BYTE      SBUF0
      000000EBH   SFRSYM    DATA     BYTE      SBUF1
      000000BCH   SFRSYM    DATA     BYTE      WUTCRL
      00000098H   SFRSYM    DATA     BYTE      SCON0
      000000EAH   SFRSYM    DATA     BYTE      SCON1
      000000C8H   SFRSYM    DATA     BYTE      T2CON
      00000086H   SFRSYM    DATA     BYTE      DPS
      000000FEH   SFRSYM    DATA     BYTE      MDATA
      000000F6H   SFRSYM    DATA     BYTE      I2CMBUF
      000000F1H   SFRSYM    DATA     BYTE      I2CSADR
      00000098H.4 SFRSYM    DATA     BIT       U0REN
      000000C8H.5 SFRSYM    DATA     BIT       CAPES
      000000FDH   SFRSYM    DATA     BYTE      MADRH
      0000008EH   SFRSYM    DATA     BYTE      CKCON
      000000F3H   SFRSYM    DATA     BYTE      I2CSBUF
      000000FCH   SFRSYM    DATA     BYTE      MADRL
      000000D0H.5 SFRSYM    DATA     BIT       F0
      000000FBH   SFRSYM    DATA     BYTE      MLOCK
      000000D0H   SFRSYM    DATA     BYTE      PSW
      00000097H   SFRSYM    DATA     BYTE      WDCON

      01001B9DH   BLOCK     CODE     ---       LVL=0
      01001B9DH   LINE      CODE     ---       #10
      01001B9DH   LINE      CODE     ---       #11
      01001B9DH   LINE      CODE     ---       #13
      01001BA2H   LINE      CODE     ---       #14
      01001BA4H   LINE      CODE     ---       #17
      01001BA7H   LINE      CODE     ---       #18
      01001BAAH   LINE      CODE     ---       #19
      ---         BLOCKEND  ---      ---       LVL=0

      0100138BH   BLOCK     CODE     ---       LVL=0
      0100138BH   LINE      CODE     ---       #27
      0100138BH   LINE      CODE     ---       #28
      0100138BH   LINE      CODE     ---       #30
      0100138EH   LINE      CODE     ---       #33
LX51 LINKER/LOCATER V4.66.1.0                                                         09/08/2023  16:42:41  PAGE 143


      01001397H   LINE      CODE     ---       #34
      01001397H   LINE      CODE     ---       #35
      01001397H   LINE      CODE     ---       #36
      01001399H   LINE      CODE     ---       #37
      0100139BH   LINE      CODE     ---       #38
      010013A2H   LINE      CODE     ---       #39
      010013A4H   LINE      CODE     ---       #40
      010013A6H   LINE      CODE     ---       #41
      010013ADH   LINE      CODE     ---       #42
      ---         BLOCKEND  ---      ---       LVL=0

      ---         MODULE    ---      ---       TEST_TIMER
      01001318H   PUBLIC    CODE     ---       Timer_Config
      000000C8H   SFRSYM    DATA     BIT       T2I0
      000000C3H   SFRSYM    DATA     BYTE      CCH1
      00000080H   SFRSYM    DATA     BYTE      P0
      000000C8H.1 SFRSYM    DATA     BIT       T2I1
      000000C5H   SFRSYM    DATA     BYTE      CCH2
      00000090H   SFRSYM    DATA     BYTE      P1
      000000C7H   SFRSYM    DATA     BYTE      CCH3
      000000ACH   SFRSYM    DATA     BYTE      P0EXTIE
      000000A0H   SFRSYM    DATA     BYTE      P2
      000000B4H   SFRSYM    DATA     BYTE      P0EXTIF
      000000B0H   SFRSYM    DATA     BYTE      P3
      000000ADH   SFRSYM    DATA     BYTE      P1EXTIE
      000000D0H.6 SFRSYM    DATA     BIT       AC
      000000FFH   SFRSYM    DATA     BYTE      MCTRL
      000000C2H   SFRSYM    DATA     BYTE      CCL1
      000000B5H   SFRSYM    DATA     BYTE      P1EXTIF
      000000AEH   SFRSYM    DATA     BYTE      P2EXTIE
      000000C4H   SFRSYM    DATA     BYTE      CCL2
      000000B6H   SFRSYM    DATA     BYTE      P2EXTIF
      000000AFH   SFRSYM    DATA     BYTE      P3EXTIE
      000000A8H.7 SFRSYM    DATA     BIT       EA
      000000C6H   SFRSYM    DATA     BYTE      CCL3
      000000B7H   SFRSYM    DATA     BYTE      P3EXTIF
      000000AAH   SFRSYM    DATA     BYTE      EIE2
      000000B2H   SFRSYM    DATA     BYTE      EIF2
      000000C8H.3 SFRSYM    DATA     BIT       T2R0
      000000C8H.4 SFRSYM    DATA     BIT       T2R1
      00000083H   SFRSYM    DATA     BYTE      DPH0
      000000A8H   SFRSYM    DATA     BYTE      IE
      00000085H   SFRSYM    DATA     BYTE      DPH1
      000000B9H   SFRSYM    DATA     BYTE      EIP1
      000000BAH   SFRSYM    DATA     BYTE      EIP2
      00000082H   SFRSYM    DATA     BYTE      DPL0
      00000084H   SFRSYM    DATA     BYTE      DPL1
      000000C8H.6 SFRSYM    DATA     BIT       I3FR
      000000CFH   SFRSYM    DATA     BYTE      T2IE
      00000096H   SFRSYM    DATA     BYTE      TA
      000000C9H   SFRSYM    DATA     BYTE      T2IF
      000000C8H.2 SFRSYM    DATA     BIT       T2CM
      000000DFH   SFRSYM    DATA     BYTE      ADCON0
      000000DEH   SFRSYM    DATA     BYTE      ADCON1
      000000E9H   SFRSYM    DATA     BYTE      ADCON2
      000000B8H   SFRSYM    DATA     BYTE      IP
      000000CEH   SFRSYM    DATA     BYTE      CCEN
      000000D0H.7 SFRSYM    DATA     BIT       CY
      000000D2H   SFRSYM    DATA     BYTE      T34MOD
      00000093H   SFRSYM    DATA     BYTE      DPX0
      00000095H   SFRSYM    DATA     BYTE      DPX1
      000000F4H   SFRSYM    DATA     BYTE      I2CMSA
      000000F5H   SFRSYM    DATA     BYTE      I2CMCR
      00000081H   SFRSYM    DATA     BYTE      SP
      000000D0H.2 SFRSYM    DATA     BIT       OV
LX51 LINKER/LOCATER V4.66.1.0                                                         09/08/2023  16:42:41  PAGE 144


      000000F2H   SFRSYM    DATA     BYTE      I2CSCR
      000000C8H.7 SFRSYM    DATA     BIT       T2PS
      000000D1H   SFRSYM    DATA     BYTE      ADCMPC
      000000CBH   SFRSYM    DATA     BYTE      RLDH
      000000D5H   SFRSYM    DATA     BYTE      ADCMPH
      000000CAH   SFRSYM    DATA     BYTE      RLDL
      00000080H   SFRSYM    DATA     BIT       P00
      00000090H   SFRSYM    DATA     BIT       P10
      00000080H.1 SFRSYM    DATA     BIT       P01
      000000F7H   SFRSYM    DATA     BYTE      I2CMTP
      00000099H   SFRSYM    DATA     BYTE      SBUF
      00000087H   SFRSYM    DATA     BYTE      PCON
      000000A0H   SFRSYM    DATA     BIT       P20
      00000090H.1 SFRSYM    DATA     BIT       P11
      00000080H.2 SFRSYM    DATA     BIT       P02
      000000F5H   SFRSYM    DATA     BYTE      I2CMSR
      000000B0H   SFRSYM    DATA     BIT       P30
      000000A0H.1 SFRSYM    DATA     BIT       P21
      00000090H.2 SFRSYM    DATA     BIT       P12
      00000080H.3 SFRSYM    DATA     BIT       P03
      000000D4H   SFRSYM    DATA     BYTE      ADCMPL
      000000B0H.1 SFRSYM    DATA     BIT       P31
      000000A0H.2 SFRSYM    DATA     BIT       P22
      00000090H.3 SFRSYM    DATA     BIT       P13
      00000080H.4 SFRSYM    DATA     BIT       P04
      000000B0H.2 SFRSYM    DATA     BIT       P32
      000000A0H.3 SFRSYM    DATA     BIT       P23
      00000090H.4 SFRSYM    DATA     BIT       P14
      00000080H.5 SFRSYM    DATA     BIT       P05
      00000089H   SFRSYM    DATA     BYTE      TMOD
      00000088H   SFRSYM    DATA     BYTE      TCON
      000000B0H.3 SFRSYM    DATA     BIT       P33
      000000A0H.4 SFRSYM    DATA     BIT       P24
      00000090H.5 SFRSYM    DATA     BIT       P15
      00000080H.6 SFRSYM    DATA     BIT       P06
      000000B0H.4 SFRSYM    DATA     BIT       P34
      000000A0H.5 SFRSYM    DATA     BIT       P25
      00000090H.6 SFRSYM    DATA     BIT       P16
      00000080H.7 SFRSYM    DATA     BIT       P07
      000000B0H.5 SFRSYM    DATA     BIT       P35
      000000A0H.6 SFRSYM    DATA     BIT       P26
      00000090H.7 SFRSYM    DATA     BIT       P17
      000000F2H   SFRSYM    DATA     BYTE      I2CSSR
      000000B0H.6 SFRSYM    DATA     BIT       P36
      000000A0H.7 SFRSYM    DATA     BIT       P27
      000000ECH   SFRSYM    DATA     BYTE      SPCR
      000000DDH   SFRSYM    DATA     BYTE      ADRESH
      000000B0H.7 SFRSYM    DATA     BIT       P37
      000000EEH   SFRSYM    DATA     BYTE      SPDR
      000000EFH   SFRSYM    DATA     BYTE      SSCR
      000000D3H   SFRSYM    DATA     BYTE      ADDLYL
      000000DCH   SFRSYM    DATA     BYTE      ADRESL
      00000088H.1 SFRSYM    DATA     BIT       IE0
      00000088H.3 SFRSYM    DATA     BIT       IE1
      0000008FH   SFRSYM    DATA     BYTE      CLKDIV
      000000F0H   SFRSYM    DATA     BYTE      B
      00000091H   SFRSYM    DATA     BYTE      FUNCCR
      0000009AH   SFRSYM    DATA     BYTE      P0TRIS
      000000A1H   SFRSYM    DATA     BYTE      P1TRIS
      000000A2H   SFRSYM    DATA     BYTE      P2TRIS
      000000E0H   SFRSYM    DATA     BYTE      ACC
      000000A3H   SFRSYM    DATA     BYTE      P3TRIS
      000000A8H.4 SFRSYM    DATA     BIT       ES0
      000000A8H.6 SFRSYM    DATA     BIT       ES1
      000000A8H.1 SFRSYM    DATA     BIT       ET0
LX51 LINKER/LOCATER V4.66.1.0                                                         09/08/2023  16:42:41  PAGE 145


      000000EDH   SFRSYM    DATA     BYTE      SPSR
      000000A8H.3 SFRSYM    DATA     BIT       ET1
      00000088H.5 SFRSYM    DATA     BIT       TF0
      000000A8H.5 SFRSYM    DATA     BIT       ET2
      00000098H   SFRSYM    DATA     BIT       RI0
      00000088H.7 SFRSYM    DATA     BIT       TF1
      0000008CH   SFRSYM    DATA     BYTE      TH0
      000000A8H   SFRSYM    DATA     BIT       EX0
      00000098H.1 SFRSYM    DATA     BIT       TI0
      00000088H   SFRSYM    DATA     BIT       IT0
      0000008DH   SFRSYM    DATA     BYTE      TH1
      000000A8H.2 SFRSYM    DATA     BIT       EX1
      00000088H.2 SFRSYM    DATA     BIT       IT1
      000000CDH   SFRSYM    DATA     BYTE      TH2
      000000D0H   SFRSYM    DATA     BIT       P
      000000DBH   SFRSYM    DATA     BYTE      TH3
      000000E3H   SFRSYM    DATA     BYTE      TH4
      0000008AH   SFRSYM    DATA     BYTE      TL0
      0000008BH   SFRSYM    DATA     BYTE      TL1
      00000098H.2 SFRSYM    DATA     BIT       U0RB8
      000000CCH   SFRSYM    DATA     BYTE      TL2
      000000B8H.4 SFRSYM    DATA     BIT       PS0
      000000DAH   SFRSYM    DATA     BYTE      TL3
      000000BFH   SFRSYM    DATA     BYTE      BUZCON
      000000B8H.6 SFRSYM    DATA     BIT       PS1
      000000B8H.1 SFRSYM    DATA     BIT       PT0
      00000098H.3 SFRSYM    DATA     BIT       U0TB8
      000000E2H   SFRSYM    DATA     BYTE      TL4
      000000D0H.3 SFRSYM    DATA     BIT       RS0
      000000B8H.3 SFRSYM    DATA     BIT       PT1
      000000D0H.4 SFRSYM    DATA     BIT       RS1
      000000B8H.5 SFRSYM    DATA     BIT       PT2
      00000098H.7 SFRSYM    DATA     BIT       U0SM0
      00000088H.4 SFRSYM    DATA     BIT       TR0
      000000BEH   SFRSYM    DATA     BYTE      BUZDIV
      00000098H.6 SFRSYM    DATA     BIT       U0SM1
      00000088H.6 SFRSYM    DATA     BIT       TR1
      000000B8H   SFRSYM    DATA     BIT       PX0
      00000098H.5 SFRSYM    DATA     BIT       U0SM2
      000000B8H.2 SFRSYM    DATA     BIT       PX1
      000000BDH   SFRSYM    DATA     BYTE      WUTCRH
      00000099H   SFRSYM    DATA     BYTE      SBUF0
      000000EBH   SFRSYM    DATA     BYTE      SBUF1
      000000BCH   SFRSYM    DATA     BYTE      WUTCRL
      00000098H   SFRSYM    DATA     BYTE      SCON0
      000000EAH   SFRSYM    DATA     BYTE      SCON1
      000000C8H   SFRSYM    DATA     BYTE      T2CON
      00000086H   SFRSYM    DATA     BYTE      DPS
      000000FEH   SFRSYM    DATA     BYTE      MDATA
      000000F6H   SFRSYM    DATA     BYTE      I2CMBUF
      000000F1H   SFRSYM    DATA     BYTE      I2CSADR
      00000098H.4 SFRSYM    DATA     BIT       U0REN
      000000C8H.5 SFRSYM    DATA     BIT       CAPES
      000000FDH   SFRSYM    DATA     BYTE      MADRH
      0000008EH   SFRSYM    DATA     BYTE      CKCON
      000000F3H   SFRSYM    DATA     BYTE      I2CSBUF
      000000FCH   SFRSYM    DATA     BYTE      MADRL
      000000D0H.5 SFRSYM    DATA     BIT       F0
      000000FBH   SFRSYM    DATA     BYTE      MLOCK
      000000D0H   SFRSYM    DATA     BYTE      PSW
      00000097H   SFRSYM    DATA     BYTE      WDCON

      01001318H   BLOCK     CODE     ---       LVL=0
      01001318H   LINE      CODE     ---       #7
      01001318H   LINE      CODE     ---       #8
LX51 LINKER/LOCATER V4.66.1.0                                                         09/08/2023  16:42:41  PAGE 146


      01001318H   LINE      CODE     ---       #10
      01001321H   LINE      CODE     ---       #12
      01001328H   LINE      CODE     ---       #14
      01001331H   LINE      CODE     ---       #17
      01001336H   LINE      CODE     ---       #19
      01001339H   LINE      CODE     ---       #21
      0100133CH   LINE      CODE     ---       #23
      ---         BLOCKEND  ---      ---       LVL=0

      ---         MODULE    ---      ---       DELAY
      01001215H   PUBLIC    CODE     ---       _delay_ms
      000000C8H   SFRSYM    DATA     BIT       T2I0
      000000C3H   SFRSYM    DATA     BYTE      CCH1
      00000080H   SFRSYM    DATA     BYTE      P0
      000000C8H.1 SFRSYM    DATA     BIT       T2I1
      000000C5H   SFRSYM    DATA     BYTE      CCH2
      00000090H   SFRSYM    DATA     BYTE      P1
      000000C7H   SFRSYM    DATA     BYTE      CCH3
      000000ACH   SFRSYM    DATA     BYTE      P0EXTIE
      000000A0H   SFRSYM    DATA     BYTE      P2
      000000B4H   SFRSYM    DATA     BYTE      P0EXTIF
      000000B0H   SFRSYM    DATA     BYTE      P3
      000000ADH   SFRSYM    DATA     BYTE      P1EXTIE
      000000D0H.6 SFRSYM    DATA     BIT       AC
      000000FFH   SFRSYM    DATA     BYTE      MCTRL
      000000C2H   SFRSYM    DATA     BYTE      CCL1
      000000B5H   SFRSYM    DATA     BYTE      P1EXTIF
      000000AEH   SFRSYM    DATA     BYTE      P2EXTIE
      000000C4H   SFRSYM    DATA     BYTE      CCL2
      000000B6H   SFRSYM    DATA     BYTE      P2EXTIF
      000000AFH   SFRSYM    DATA     BYTE      P3EXTIE
      000000A8H.7 SFRSYM    DATA     BIT       EA
      000000C6H   SFRSYM    DATA     BYTE      CCL3
      000000B7H   SFRSYM    DATA     BYTE      P3EXTIF
      000000AAH   SFRSYM    DATA     BYTE      EIE2
      000000B2H   SFRSYM    DATA     BYTE      EIF2
      000000C8H.3 SFRSYM    DATA     BIT       T2R0
      000000C8H.4 SFRSYM    DATA     BIT       T2R1
      00000083H   SFRSYM    DATA     BYTE      DPH0
      000000A8H   SFRSYM    DATA     BYTE      IE
      00000085H   SFRSYM    DATA     BYTE      DPH1
      000000B9H   SFRSYM    DATA     BYTE      EIP1
      000000BAH   SFRSYM    DATA     BYTE      EIP2
      00000082H   SFRSYM    DATA     BYTE      DPL0
      00000084H   SFRSYM    DATA     BYTE      DPL1
      000000C8H.6 SFRSYM    DATA     BIT       I3FR
      000000CFH   SFRSYM    DATA     BYTE      T2IE
      00000096H   SFRSYM    DATA     BYTE      TA
      000000C9H   SFRSYM    DATA     BYTE      T2IF
      000000C8H.2 SFRSYM    DATA     BIT       T2CM
      000000DFH   SFRSYM    DATA     BYTE      ADCON0
      000000DEH   SFRSYM    DATA     BYTE      ADCON1
      000000E9H   SFRSYM    DATA     BYTE      ADCON2
      000000B8H   SFRSYM    DATA     BYTE      IP
      000000CEH   SFRSYM    DATA     BYTE      CCEN
      000000D0H.7 SFRSYM    DATA     BIT       CY
      000000D2H   SFRSYM    DATA     BYTE      T34MOD
      00000093H   SFRSYM    DATA     BYTE      DPX0
      00000095H   SFRSYM    DATA     BYTE      DPX1
      000000F4H   SFRSYM    DATA     BYTE      I2CMSA
      000000F5H   SFRSYM    DATA     BYTE      I2CMCR
      00000081H   SFRSYM    DATA     BYTE      SP
      000000D0H.2 SFRSYM    DATA     BIT       OV
      000000F2H   SFRSYM    DATA     BYTE      I2CSCR
      000000C8H.7 SFRSYM    DATA     BIT       T2PS
LX51 LINKER/LOCATER V4.66.1.0                                                         09/08/2023  16:42:41  PAGE 147


      000000D1H   SFRSYM    DATA     BYTE      ADCMPC
      000000CBH   SFRSYM    DATA     BYTE      RLDH
      000000D5H   SFRSYM    DATA     BYTE      ADCMPH
      000000CAH   SFRSYM    DATA     BYTE      RLDL
      00000080H   SFRSYM    DATA     BIT       P00
      00000090H   SFRSYM    DATA     BIT       P10
      00000080H.1 SFRSYM    DATA     BIT       P01
      000000F7H   SFRSYM    DATA     BYTE      I2CMTP
      00000099H   SFRSYM    DATA     BYTE      SBUF
      00000087H   SFRSYM    DATA     BYTE      PCON
      000000A0H   SFRSYM    DATA     BIT       P20
      00000090H.1 SFRSYM    DATA     BIT       P11
      00000080H.2 SFRSYM    DATA     BIT       P02
      000000F5H   SFRSYM    DATA     BYTE      I2CMSR
      000000B0H   SFRSYM    DATA     BIT       P30
      000000A0H.1 SFRSYM    DATA     BIT       P21
      00000090H.2 SFRSYM    DATA     BIT       P12
      00000080H.3 SFRSYM    DATA     BIT       P03
      000000D4H   SFRSYM    DATA     BYTE      ADCMPL
      000000B0H.1 SFRSYM    DATA     BIT       P31
      000000A0H.2 SFRSYM    DATA     BIT       P22
      00000090H.3 SFRSYM    DATA     BIT       P13
      00000080H.4 SFRSYM    DATA     BIT       P04
      000000B0H.2 SFRSYM    DATA     BIT       P32
      000000A0H.3 SFRSYM    DATA     BIT       P23
      00000090H.4 SFRSYM    DATA     BIT       P14
      00000080H.5 SFRSYM    DATA     BIT       P05
      00000089H   SFRSYM    DATA     BYTE      TMOD
      00000088H   SFRSYM    DATA     BYTE      TCON
      000000B0H.3 SFRSYM    DATA     BIT       P33
      000000A0H.4 SFRSYM    DATA     BIT       P24
      00000090H.5 SFRSYM    DATA     BIT       P15
      00000080H.6 SFRSYM    DATA     BIT       P06
      000000B0H.4 SFRSYM    DATA     BIT       P34
      000000A0H.5 SFRSYM    DATA     BIT       P25
      00000090H.6 SFRSYM    DATA     BIT       P16
      00000080H.7 SFRSYM    DATA     BIT       P07
      000000B0H.5 SFRSYM    DATA     BIT       P35
      000000A0H.6 SFRSYM    DATA     BIT       P26
      00000090H.7 SFRSYM    DATA     BIT       P17
      000000F2H   SFRSYM    DATA     BYTE      I2CSSR
      000000B0H.6 SFRSYM    DATA     BIT       P36
      000000A0H.7 SFRSYM    DATA     BIT       P27
      000000ECH   SFRSYM    DATA     BYTE      SPCR
      000000DDH   SFRSYM    DATA     BYTE      ADRESH
      000000B0H.7 SFRSYM    DATA     BIT       P37
      000000EEH   SFRSYM    DATA     BYTE      SPDR
      000000EFH   SFRSYM    DATA     BYTE      SSCR
      000000D3H   SFRSYM    DATA     BYTE      ADDLYL
      000000DCH   SFRSYM    DATA     BYTE      ADRESL
      00000088H.1 SFRSYM    DATA     BIT       IE0
      00000088H.3 SFRSYM    DATA     BIT       IE1
      0000008FH   SFRSYM    DATA     BYTE      CLKDIV
      000000F0H   SFRSYM    DATA     BYTE      B
      00000091H   SFRSYM    DATA     BYTE      FUNCCR
      0000009AH   SFRSYM    DATA     BYTE      P0TRIS
      000000A1H   SFRSYM    DATA     BYTE      P1TRIS
      000000A2H   SFRSYM    DATA     BYTE      P2TRIS
      000000E0H   SFRSYM    DATA     BYTE      ACC
      000000A3H   SFRSYM    DATA     BYTE      P3TRIS
      000000A8H.4 SFRSYM    DATA     BIT       ES0
      000000A8H.6 SFRSYM    DATA     BIT       ES1
      000000A8H.1 SFRSYM    DATA     BIT       ET0
      000000EDH   SFRSYM    DATA     BYTE      SPSR
      000000A8H.3 SFRSYM    DATA     BIT       ET1
LX51 LINKER/LOCATER V4.66.1.0                                                         09/08/2023  16:42:41  PAGE 148


      00000088H.5 SFRSYM    DATA     BIT       TF0
      000000A8H.5 SFRSYM    DATA     BIT       ET2
      00000098H   SFRSYM    DATA     BIT       RI0
      00000088H.7 SFRSYM    DATA     BIT       TF1
      0000008CH   SFRSYM    DATA     BYTE      TH0
      000000A8H   SFRSYM    DATA     BIT       EX0
      00000098H.1 SFRSYM    DATA     BIT       TI0
      00000088H   SFRSYM    DATA     BIT       IT0
      0000008DH   SFRSYM    DATA     BYTE      TH1
      000000A8H.2 SFRSYM    DATA     BIT       EX1
      00000088H.2 SFRSYM    DATA     BIT       IT1
      000000CDH   SFRSYM    DATA     BYTE      TH2
      000000D0H   SFRSYM    DATA     BIT       P
      000000DBH   SFRSYM    DATA     BYTE      TH3
      000000E3H   SFRSYM    DATA     BYTE      TH4
      0000008AH   SFRSYM    DATA     BYTE      TL0
      0000008BH   SFRSYM    DATA     BYTE      TL1
      00000098H.2 SFRSYM    DATA     BIT       U0RB8
      000000CCH   SFRSYM    DATA     BYTE      TL2
      000000B8H.4 SFRSYM    DATA     BIT       PS0
      000000DAH   SFRSYM    DATA     BYTE      TL3
      000000BFH   SFRSYM    DATA     BYTE      BUZCON
      000000B8H.6 SFRSYM    DATA     BIT       PS1
      000000B8H.1 SFRSYM    DATA     BIT       PT0
      00000098H.3 SFRSYM    DATA     BIT       U0TB8
      000000E2H   SFRSYM    DATA     BYTE      TL4
      000000D0H.3 SFRSYM    DATA     BIT       RS0
      000000B8H.3 SFRSYM    DATA     BIT       PT1
      000000D0H.4 SFRSYM    DATA     BIT       RS1
      000000B8H.5 SFRSYM    DATA     BIT       PT2
      00000098H.7 SFRSYM    DATA     BIT       U0SM0
      00000088H.4 SFRSYM    DATA     BIT       TR0
      000000BEH   SFRSYM    DATA     BYTE      BUZDIV
      00000098H.6 SFRSYM    DATA     BIT       U0SM1
      00000088H.6 SFRSYM    DATA     BIT       TR1
      000000B8H   SFRSYM    DATA     BIT       PX0
      00000098H.5 SFRSYM    DATA     BIT       U0SM2
      000000B8H.2 SFRSYM    DATA     BIT       PX1
      000000BDH   SFRSYM    DATA     BYTE      WUTCRH
      00000099H   SFRSYM    DATA     BYTE      SBUF0
      000000EBH   SFRSYM    DATA     BYTE      SBUF1
      000000BCH   SFRSYM    DATA     BYTE      WUTCRL
      00000098H   SFRSYM    DATA     BYTE      SCON0
      000000EAH   SFRSYM    DATA     BYTE      SCON1
      000000C8H   SFRSYM    DATA     BYTE      T2CON
      00000086H   SFRSYM    DATA     BYTE      DPS
      000000FEH   SFRSYM    DATA     BYTE      MDATA
      000000F6H   SFRSYM    DATA     BYTE      I2CMBUF
      000000F1H   SFRSYM    DATA     BYTE      I2CSADR
      00000098H.4 SFRSYM    DATA     BIT       U0REN
      000000C8H.5 SFRSYM    DATA     BIT       CAPES
      000000FDH   SFRSYM    DATA     BYTE      MADRH
      0000008EH   SFRSYM    DATA     BYTE      CKCON
      000000F3H   SFRSYM    DATA     BYTE      I2CSBUF
      000000FCH   SFRSYM    DATA     BYTE      MADRL
      000000D0H.5 SFRSYM    DATA     BIT       F0
      000000FBH   SFRSYM    DATA     BYTE      MLOCK
      000000D0H   SFRSYM    DATA     BYTE      PSW
      00000097H   SFRSYM    DATA     BYTE      WDCON

      01001215H   BLOCK     CODE     ---       LVL=0
      00000006H   SYMBOL    DATA     WORD      ms
      01001215H   BLOCK     CODE     NEAR LAB  LVL=1
      00000004H   SYMBOL    DATA     WORD      i
      00000002H   SYMBOL    DATA     WORD      j
LX51 LINKER/LOCATER V4.66.1.0                                                         09/08/2023  16:42:41  PAGE 149


      ---         BLOCKEND  ---      ---       LVL=1
      01001215H   LINE      CODE     ---       #36
      01001215H   LINE      CODE     ---       #37
      01001215H   LINE      CODE     ---       #39
      0100121FH   LINE      CODE     ---       #40
      0100121FH   LINE      CODE     ---       #41
      01001222H   LINE      CODE     ---       #42
      01001222H   LINE      CODE     ---       #43
      01001225H   LINE      CODE     ---       #44
      01001228H   LINE      CODE     ---       #45
      0100122AH   LINE      CODE     ---       #46
      0100122DH   LINE      CODE     ---       #48
      0100122FH   LINE      CODE     ---       #49
      01001231H   LINE      CODE     ---       #50
      0100123CH   LINE      CODE     ---       #51
      01001243H   LINE      CODE     ---       #52
      ---         BLOCKEND  ---      ---       LVL=0

      ---         MODULE    ---      ---       BREATHING_LAMP
      01001F78H   PUBLIC    CODE     ---       Lamp_Run
      01001687H   PUBLIC    CODE     ---       IO_Config
      01000995H   PUBLIC    CODE     ---       EPWM_Config
      000000C8H   SFRSYM    DATA     BIT       T2I0
      000000C3H   SFRSYM    DATA     BYTE      CCH1
      00000080H   SFRSYM    DATA     BYTE      P0
      000000C8H.1 SFRSYM    DATA     BIT       T2I1
      000000C5H   SFRSYM    DATA     BYTE      CCH2
      00000090H   SFRSYM    DATA     BYTE      P1
      000000C7H   SFRSYM    DATA     BYTE      CCH3
      000000ACH   SFRSYM    DATA     BYTE      P0EXTIE
      000000A0H   SFRSYM    DATA     BYTE      P2
      000000B4H   SFRSYM    DATA     BYTE      P0EXTIF
      000000B0H   SFRSYM    DATA     BYTE      P3
      000000ADH   SFRSYM    DATA     BYTE      P1EXTIE
      000000D0H.6 SFRSYM    DATA     BIT       AC
      000000FFH   SFRSYM    DATA     BYTE      MCTRL
      000000C2H   SFRSYM    DATA     BYTE      CCL1
      000000B5H   SFRSYM    DATA     BYTE      P1EXTIF
      000000AEH   SFRSYM    DATA     BYTE      P2EXTIE
      000000C4H   SFRSYM    DATA     BYTE      CCL2
      000000B6H   SFRSYM    DATA     BYTE      P2EXTIF
      000000AFH   SFRSYM    DATA     BYTE      P3EXTIE
      000000A8H.7 SFRSYM    DATA     BIT       EA
      000000C6H   SFRSYM    DATA     BYTE      CCL3
      000000B7H   SFRSYM    DATA     BYTE      P3EXTIF
      000000AAH   SFRSYM    DATA     BYTE      EIE2
      000000B2H   SFRSYM    DATA     BYTE      EIF2
      000000C8H.3 SFRSYM    DATA     BIT       T2R0
      000000C8H.4 SFRSYM    DATA     BIT       T2R1
      00000083H   SFRSYM    DATA     BYTE      DPH0
      000000A8H   SFRSYM    DATA     BYTE      IE
      00000085H   SFRSYM    DATA     BYTE      DPH1
      000000B9H   SFRSYM    DATA     BYTE      EIP1
      000000BAH   SFRSYM    DATA     BYTE      EIP2
      00000082H   SFRSYM    DATA     BYTE      DPL0
      00000084H   SFRSYM    DATA     BYTE      DPL1
      000000C8H.6 SFRSYM    DATA     BIT       I3FR
      000000CFH   SFRSYM    DATA     BYTE      T2IE
      00000096H   SFRSYM    DATA     BYTE      TA
      000000C9H   SFRSYM    DATA     BYTE      T2IF
      000000C8H.2 SFRSYM    DATA     BIT       T2CM
      000000DFH   SFRSYM    DATA     BYTE      ADCON0
      000000DEH   SFRSYM    DATA     BYTE      ADCON1
      000000E9H   SFRSYM    DATA     BYTE      ADCON2
      000000B8H   SFRSYM    DATA     BYTE      IP
LX51 LINKER/LOCATER V4.66.1.0                                                         09/08/2023  16:42:41  PAGE 150


      000000CEH   SFRSYM    DATA     BYTE      CCEN
      000000D0H.7 SFRSYM    DATA     BIT       CY
      000000D2H   SFRSYM    DATA     BYTE      T34MOD
      00000093H   SFRSYM    DATA     BYTE      DPX0
      00000095H   SFRSYM    DATA     BYTE      DPX1
      000000F4H   SFRSYM    DATA     BYTE      I2CMSA
      000000F5H   SFRSYM    DATA     BYTE      I2CMCR
      00000081H   SFRSYM    DATA     BYTE      SP
      000000D0H.2 SFRSYM    DATA     BIT       OV
      000000F2H   SFRSYM    DATA     BYTE      I2CSCR
      000000C8H.7 SFRSYM    DATA     BIT       T2PS
      000000D1H   SFRSYM    DATA     BYTE      ADCMPC
      000000CBH   SFRSYM    DATA     BYTE      RLDH
      000000D5H   SFRSYM    DATA     BYTE      ADCMPH
      000000CAH   SFRSYM    DATA     BYTE      RLDL
      00000080H   SFRSYM    DATA     BIT       P00
      00000090H   SFRSYM    DATA     BIT       P10
      00000080H.1 SFRSYM    DATA     BIT       P01
      000000F7H   SFRSYM    DATA     BYTE      I2CMTP
      00000099H   SFRSYM    DATA     BYTE      SBUF
      00000087H   SFRSYM    DATA     BYTE      PCON
      000000A0H   SFRSYM    DATA     BIT       P20
      00000090H.1 SFRSYM    DATA     BIT       P11
      00000080H.2 SFRSYM    DATA     BIT       P02
      000000F5H   SFRSYM    DATA     BYTE      I2CMSR
      000000B0H   SFRSYM    DATA     BIT       P30
      000000A0H.1 SFRSYM    DATA     BIT       P21
      00000090H.2 SFRSYM    DATA     BIT       P12
      00000080H.3 SFRSYM    DATA     BIT       P03
      000000D4H   SFRSYM    DATA     BYTE      ADCMPL
      000000B0H.1 SFRSYM    DATA     BIT       P31
      000000A0H.2 SFRSYM    DATA     BIT       P22
      00000090H.3 SFRSYM    DATA     BIT       P13
      00000080H.4 SFRSYM    DATA     BIT       P04
      000000B0H.2 SFRSYM    DATA     BIT       P32
      000000A0H.3 SFRSYM    DATA     BIT       P23
      00000090H.4 SFRSYM    DATA     BIT       P14
      00000080H.5 SFRSYM    DATA     BIT       P05
      00000089H   SFRSYM    DATA     BYTE      TMOD
      00000088H   SFRSYM    DATA     BYTE      TCON
      000000B0H.3 SFRSYM    DATA     BIT       P33
      000000A0H.4 SFRSYM    DATA     BIT       P24
      00000090H.5 SFRSYM    DATA     BIT       P15
      00000080H.6 SFRSYM    DATA     BIT       P06
      000000B0H.4 SFRSYM    DATA     BIT       P34
      000000A0H.5 SFRSYM    DATA     BIT       P25
      00000090H.6 SFRSYM    DATA     BIT       P16
      00000080H.7 SFRSYM    DATA     BIT       P07
      000000B0H.5 SFRSYM    DATA     BIT       P35
      000000A0H.6 SFRSYM    DATA     BIT       P26
      00000090H.7 SFRSYM    DATA     BIT       P17
      000000F2H   SFRSYM    DATA     BYTE      I2CSSR
      000000B0H.6 SFRSYM    DATA     BIT       P36
      000000A0H.7 SFRSYM    DATA     BIT       P27
      000000ECH   SFRSYM    DATA     BYTE      SPCR
      000000DDH   SFRSYM    DATA     BYTE      ADRESH
      000000B0H.7 SFRSYM    DATA     BIT       P37
      000000EEH   SFRSYM    DATA     BYTE      SPDR
      000000EFH   SFRSYM    DATA     BYTE      SSCR
      000000D3H   SFRSYM    DATA     BYTE      ADDLYL
      000000DCH   SFRSYM    DATA     BYTE      ADRESL
      00000088H.1 SFRSYM    DATA     BIT       IE0
      00000088H.3 SFRSYM    DATA     BIT       IE1
      0000008FH   SFRSYM    DATA     BYTE      CLKDIV
      000000F0H   SFRSYM    DATA     BYTE      B
LX51 LINKER/LOCATER V4.66.1.0                                                         09/08/2023  16:42:41  PAGE 151


      00000091H   SFRSYM    DATA     BYTE      FUNCCR
      0000009AH   SFRSYM    DATA     BYTE      P0TRIS
      000000A1H   SFRSYM    DATA     BYTE      P1TRIS
      000000A2H   SFRSYM    DATA     BYTE      P2TRIS
      000000E0H   SFRSYM    DATA     BYTE      ACC
      000000A3H   SFRSYM    DATA     BYTE      P3TRIS
      000000A8H.4 SFRSYM    DATA     BIT       ES0
      000000A8H.6 SFRSYM    DATA     BIT       ES1
      000000A8H.1 SFRSYM    DATA     BIT       ET0
      000000EDH   SFRSYM    DATA     BYTE      SPSR
      000000A8H.3 SFRSYM    DATA     BIT       ET1
      00000088H.5 SFRSYM    DATA     BIT       TF0
      000000A8H.5 SFRSYM    DATA     BIT       ET2
      00000098H   SFRSYM    DATA     BIT       RI0
      00000088H.7 SFRSYM    DATA     BIT       TF1
      0000008CH   SFRSYM    DATA     BYTE      TH0
      000000A8H   SFRSYM    DATA     BIT       EX0
      00000098H.1 SFRSYM    DATA     BIT       TI0
      00000088H   SFRSYM    DATA     BIT       IT0
      0000008DH   SFRSYM    DATA     BYTE      TH1
      000000A8H.2 SFRSYM    DATA     BIT       EX1
      00000088H.2 SFRSYM    DATA     BIT       IT1
      000000CDH   SFRSYM    DATA     BYTE      TH2
      000000D0H   SFRSYM    DATA     BIT       P
      000000DBH   SFRSYM    DATA     BYTE      TH3
      000000E3H   SFRSYM    DATA     BYTE      TH4
      0000008AH   SFRSYM    DATA     BYTE      TL0
      0000008BH   SFRSYM    DATA     BYTE      TL1
      00000098H.2 SFRSYM    DATA     BIT       U0RB8
      000000CCH   SFRSYM    DATA     BYTE      TL2
      000000B8H.4 SFRSYM    DATA     BIT       PS0
      000000DAH   SFRSYM    DATA     BYTE      TL3
      000000BFH   SFRSYM    DATA     BYTE      BUZCON
      000000B8H.6 SFRSYM    DATA     BIT       PS1
      000000B8H.1 SFRSYM    DATA     BIT       PT0
      00000098H.3 SFRSYM    DATA     BIT       U0TB8
      000000E2H   SFRSYM    DATA     BYTE      TL4
      000000D0H.3 SFRSYM    DATA     BIT       RS0
      000000B8H.3 SFRSYM    DATA     BIT       PT1
      000000D0H.4 SFRSYM    DATA     BIT       RS1
      000000B8H.5 SFRSYM    DATA     BIT       PT2
      00000098H.7 SFRSYM    DATA     BIT       U0SM0
      00000088H.4 SFRSYM    DATA     BIT       TR0
      000000BEH   SFRSYM    DATA     BYTE      BUZDIV
      00000098H.6 SFRSYM    DATA     BIT       U0SM1
      00000088H.6 SFRSYM    DATA     BIT       TR1
      000000B8H   SFRSYM    DATA     BIT       PX0
      00000098H.5 SFRSYM    DATA     BIT       U0SM2
      000000B8H.2 SFRSYM    DATA     BIT       PX1
      000000BDH   SFRSYM    DATA     BYTE      WUTCRH
      00000099H   SFRSYM    DATA     BYTE      SBUF0
      000000EBH   SFRSYM    DATA     BYTE      SBUF1
      000000BCH   SFRSYM    DATA     BYTE      WUTCRL
      00000098H   SFRSYM    DATA     BYTE      SCON0
      000000EAH   SFRSYM    DATA     BYTE      SCON1
      000000C8H   SFRSYM    DATA     BYTE      T2CON
      00000086H   SFRSYM    DATA     BYTE      DPS
      000000FEH   SFRSYM    DATA     BYTE      MDATA
      000000F6H   SFRSYM    DATA     BYTE      I2CMBUF
      000000F1H   SFRSYM    DATA     BYTE      I2CSADR
      00000098H.4 SFRSYM    DATA     BIT       U0REN
      000000C8H.5 SFRSYM    DATA     BIT       CAPES
      000000FDH   SFRSYM    DATA     BYTE      MADRH
      0000008EH   SFRSYM    DATA     BYTE      CKCON
      000000F3H   SFRSYM    DATA     BYTE      I2CSBUF
LX51 LINKER/LOCATER V4.66.1.0                                                         09/08/2023  16:42:41  PAGE 152


      000000FCH   SFRSYM    DATA     BYTE      MADRL
      000000D0H.5 SFRSYM    DATA     BIT       F0
      000000FBH   SFRSYM    DATA     BYTE      MLOCK
      000000D0H   SFRSYM    DATA     BYTE      PSW
      00000097H   SFRSYM    DATA     BYTE      WDCON

      01000995H   BLOCK     CODE     ---       LVL=0
      01000995H   LINE      CODE     ---       #4
      01000995H   LINE      CODE     ---       #5
      01000995H   LINE      CODE     ---       #7
      0100099AH   LINE      CODE     ---       #10
      010009A1H   LINE      CODE     ---       #11
      010009A8H   LINE      CODE     ---       #12
      010009AFH   LINE      CODE     ---       #15
      010009B8H   LINE      CODE     ---       #16
      010009C1H   LINE      CODE     ---       #17
      010009CAH   LINE      CODE     ---       #20
      010009D3H   LINE      CODE     ---       #21
      010009DCH   LINE      CODE     ---       #22
      010009E5H   LINE      CODE     ---       #25
      010009EAH   LINE      CODE     ---       #28
      010009EFH   LINE      CODE     ---       #31
      010009F4H   LINE      CODE     ---       #34
      010009F9H   LINE      CODE     ---       #35
      010009FEH   LINE      CODE     ---       #36
      01000A03H   LINE      CODE     ---       #39
      01000A08H   LINE      CODE     ---       #41
      01000A0BH   LINE      CODE     ---       #43
      01000A11H   LINE      CODE     ---       #45
      01000A14H   LINE      CODE     ---       #48
      ---         BLOCKEND  ---      ---       LVL=0

      01001687H   BLOCK     CODE     ---       LVL=0
      01001687H   LINE      CODE     ---       #53
      01001687H   LINE      CODE     ---       #54
      01001687H   LINE      CODE     ---       #56
      0100168DH   LINE      CODE     ---       #57
      01001691H   LINE      CODE     ---       #58
      01001697H   LINE      CODE     ---       #59
      0100169BH   LINE      CODE     ---       #60
      0100169FH   LINE      CODE     ---       #61
      010016A3H   LINE      CODE     ---       #62
      ---         BLOCKEND  ---      ---       LVL=0

      01001F78H   BLOCK     CODE     ---       LVL=0
      01001F78H   LINE      CODE     ---       #66
      01001F78H   LINE      CODE     ---       #67
      01001F78H   LINE      CODE     ---       #68
      01001F7BH   LINE      CODE     ---       #69
      ---         BLOCKEND  ---      ---       LVL=0

      ---         MODULE    ---      ---       VOLTAGE_SAMPLING
      01000E5FH   PUBLIC    CODE     ---       ADC_Config
      000000C8H   SFRSYM    DATA     BIT       T2I0
      000000C3H   SFRSYM    DATA     BYTE      CCH1
      00000080H   SFRSYM    DATA     BYTE      P0
      000000C8H.1 SFRSYM    DATA     BIT       T2I1
      000000C5H   SFRSYM    DATA     BYTE      CCH2
      00000090H   SFRSYM    DATA     BYTE      P1
      000000C7H   SFRSYM    DATA     BYTE      CCH3
      000000ACH   SFRSYM    DATA     BYTE      P0EXTIE
      000000A0H   SFRSYM    DATA     BYTE      P2
      000000B4H   SFRSYM    DATA     BYTE      P0EXTIF
      000000B0H   SFRSYM    DATA     BYTE      P3
      000000ADH   SFRSYM    DATA     BYTE      P1EXTIE
LX51 LINKER/LOCATER V4.66.1.0                                                         09/08/2023  16:42:41  PAGE 153


      000000D0H.6 SFRSYM    DATA     BIT       AC
      000000FFH   SFRSYM    DATA     BYTE      MCTRL
      000000C2H   SFRSYM    DATA     BYTE      CCL1
      000000B5H   SFRSYM    DATA     BYTE      P1EXTIF
      000000AEH   SFRSYM    DATA     BYTE      P2EXTIE
      000000C4H   SFRSYM    DATA     BYTE      CCL2
      000000B6H   SFRSYM    DATA     BYTE      P2EXTIF
      000000AFH   SFRSYM    DATA     BYTE      P3EXTIE
      000000A8H.7 SFRSYM    DATA     BIT       EA
      000000C6H   SFRSYM    DATA     BYTE      CCL3
      000000B7H   SFRSYM    DATA     BYTE      P3EXTIF
      000000AAH   SFRSYM    DATA     BYTE      EIE2
      000000B2H   SFRSYM    DATA     BYTE      EIF2
      000000C8H.3 SFRSYM    DATA     BIT       T2R0
      000000C8H.4 SFRSYM    DATA     BIT       T2R1
      00000083H   SFRSYM    DATA     BYTE      DPH0
      000000A8H   SFRSYM    DATA     BYTE      IE
      00000085H   SFRSYM    DATA     BYTE      DPH1
      000000B9H   SFRSYM    DATA     BYTE      EIP1
      000000BAH   SFRSYM    DATA     BYTE      EIP2
      00000082H   SFRSYM    DATA     BYTE      DPL0
      00000084H   SFRSYM    DATA     BYTE      DPL1
      000000C8H.6 SFRSYM    DATA     BIT       I3FR
      000000CFH   SFRSYM    DATA     BYTE      T2IE
      00000096H   SFRSYM    DATA     BYTE      TA
      000000C9H   SFRSYM    DATA     BYTE      T2IF
      000000C8H.2 SFRSYM    DATA     BIT       T2CM
      000000DFH   SFRSYM    DATA     BYTE      ADCON0
      000000DEH   SFRSYM    DATA     BYTE      ADCON1
      000000E9H   SFRSYM    DATA     BYTE      ADCON2
      000000B8H   SFRSYM    DATA     BYTE      IP
      000000CEH   SFRSYM    DATA     BYTE      CCEN
      000000D0H.7 SFRSYM    DATA     BIT       CY
      000000D2H   SFRSYM    DATA     BYTE      T34MOD
      00000093H   SFRSYM    DATA     BYTE      DPX0
      00000095H   SFRSYM    DATA     BYTE      DPX1
      000000F4H   SFRSYM    DATA     BYTE      I2CMSA
      000000F5H   SFRSYM    DATA     BYTE      I2CMCR
      00000081H   SFRSYM    DATA     BYTE      SP
      000000D0H.2 SFRSYM    DATA     BIT       OV
      000000F2H   SFRSYM    DATA     BYTE      I2CSCR
      000000C8H.7 SFRSYM    DATA     BIT       T2PS
      000000D1H   SFRSYM    DATA     BYTE      ADCMPC
      000000CBH   SFRSYM    DATA     BYTE      RLDH
      000000D5H   SFRSYM    DATA     BYTE      ADCMPH
      000000CAH   SFRSYM    DATA     BYTE      RLDL
      00000080H   SFRSYM    DATA     BIT       P00
      00000090H   SFRSYM    DATA     BIT       P10
      00000080H.1 SFRSYM    DATA     BIT       P01
      000000F7H   SFRSYM    DATA     BYTE      I2CMTP
      00000099H   SFRSYM    DATA     BYTE      SBUF
      00000087H   SFRSYM    DATA     BYTE      PCON
      000000A0H   SFRSYM    DATA     BIT       P20
      00000090H.1 SFRSYM    DATA     BIT       P11
      00000080H.2 SFRSYM    DATA     BIT       P02
      000000F5H   SFRSYM    DATA     BYTE      I2CMSR
      000000B0H   SFRSYM    DATA     BIT       P30
      000000A0H.1 SFRSYM    DATA     BIT       P21
      00000090H.2 SFRSYM    DATA     BIT       P12
      00000080H.3 SFRSYM    DATA     BIT       P03
      000000D4H   SFRSYM    DATA     BYTE      ADCMPL
      000000B0H.1 SFRSYM    DATA     BIT       P31
      000000A0H.2 SFRSYM    DATA     BIT       P22
      00000090H.3 SFRSYM    DATA     BIT       P13
      00000080H.4 SFRSYM    DATA     BIT       P04
LX51 LINKER/LOCATER V4.66.1.0                                                         09/08/2023  16:42:41  PAGE 154


      000000B0H.2 SFRSYM    DATA     BIT       P32
      000000A0H.3 SFRSYM    DATA     BIT       P23
      00000090H.4 SFRSYM    DATA     BIT       P14
      00000080H.5 SFRSYM    DATA     BIT       P05
      00000089H   SFRSYM    DATA     BYTE      TMOD
      00000088H   SFRSYM    DATA     BYTE      TCON
      000000B0H.3 SFRSYM    DATA     BIT       P33
      000000A0H.4 SFRSYM    DATA     BIT       P24
      00000090H.5 SFRSYM    DATA     BIT       P15
      00000080H.6 SFRSYM    DATA     BIT       P06
      000000B0H.4 SFRSYM    DATA     BIT       P34
      000000A0H.5 SFRSYM    DATA     BIT       P25
      00000090H.6 SFRSYM    DATA     BIT       P16
      00000080H.7 SFRSYM    DATA     BIT       P07
      000000B0H.5 SFRSYM    DATA     BIT       P35
      000000A0H.6 SFRSYM    DATA     BIT       P26
      00000090H.7 SFRSYM    DATA     BIT       P17
      000000F2H   SFRSYM    DATA     BYTE      I2CSSR
      000000B0H.6 SFRSYM    DATA     BIT       P36
      000000A0H.7 SFRSYM    DATA     BIT       P27
      000000ECH   SFRSYM    DATA     BYTE      SPCR
      000000DDH   SFRSYM    DATA     BYTE      ADRESH
      000000B0H.7 SFRSYM    DATA     BIT       P37
      000000EEH   SFRSYM    DATA     BYTE      SPDR
      000000EFH   SFRSYM    DATA     BYTE      SSCR
      000000D3H   SFRSYM    DATA     BYTE      ADDLYL
      000000DCH   SFRSYM    DATA     BYTE      ADRESL
      00000088H.1 SFRSYM    DATA     BIT       IE0
      00000088H.3 SFRSYM    DATA     BIT       IE1
      0000008FH   SFRSYM    DATA     BYTE      CLKDIV
      000000F0H   SFRSYM    DATA     BYTE      B
      00000091H   SFRSYM    DATA     BYTE      FUNCCR
      0000009AH   SFRSYM    DATA     BYTE      P0TRIS
      000000A1H   SFRSYM    DATA     BYTE      P1TRIS
      000000A2H   SFRSYM    DATA     BYTE      P2TRIS
      000000E0H   SFRSYM    DATA     BYTE      ACC
      000000A3H   SFRSYM    DATA     BYTE      P3TRIS
      000000A8H.4 SFRSYM    DATA     BIT       ES0
      000000A8H.6 SFRSYM    DATA     BIT       ES1
      000000A8H.1 SFRSYM    DATA     BIT       ET0
      000000EDH   SFRSYM    DATA     BYTE      SPSR
      000000A8H.3 SFRSYM    DATA     BIT       ET1
      00000088H.5 SFRSYM    DATA     BIT       TF0
      000000A8H.5 SFRSYM    DATA     BIT       ET2
      00000098H   SFRSYM    DATA     BIT       RI0
      00000088H.7 SFRSYM    DATA     BIT       TF1
      0000008CH   SFRSYM    DATA     BYTE      TH0
      000000A8H   SFRSYM    DATA     BIT       EX0
      00000098H.1 SFRSYM    DATA     BIT       TI0
      00000088H   SFRSYM    DATA     BIT       IT0
      0000008DH   SFRSYM    DATA     BYTE      TH1
      000000A8H.2 SFRSYM    DATA     BIT       EX1
      00000088H.2 SFRSYM    DATA     BIT       IT1
      000000CDH   SFRSYM    DATA     BYTE      TH2
      000000D0H   SFRSYM    DATA     BIT       P
      000000DBH   SFRSYM    DATA     BYTE      TH3
      000000E3H   SFRSYM    DATA     BYTE      TH4
      0000008AH   SFRSYM    DATA     BYTE      TL0
      0000008BH   SFRSYM    DATA     BYTE      TL1
      00000098H.2 SFRSYM    DATA     BIT       U0RB8
      000000CCH   SFRSYM    DATA     BYTE      TL2
      000000B8H.4 SFRSYM    DATA     BIT       PS0
      000000DAH   SFRSYM    DATA     BYTE      TL3
      000000BFH   SFRSYM    DATA     BYTE      BUZCON
      000000B8H.6 SFRSYM    DATA     BIT       PS1
LX51 LINKER/LOCATER V4.66.1.0                                                         09/08/2023  16:42:41  PAGE 155


      000000B8H.1 SFRSYM    DATA     BIT       PT0
      00000098H.3 SFRSYM    DATA     BIT       U0TB8
      000000E2H   SFRSYM    DATA     BYTE      TL4
      000000D0H.3 SFRSYM    DATA     BIT       RS0
      000000B8H.3 SFRSYM    DATA     BIT       PT1
      000000D0H.4 SFRSYM    DATA     BIT       RS1
      000000B8H.5 SFRSYM    DATA     BIT       PT2
      00000098H.7 SFRSYM    DATA     BIT       U0SM0
      00000088H.4 SFRSYM    DATA     BIT       TR0
      000000BEH   SFRSYM    DATA     BYTE      BUZDIV
      00000098H.6 SFRSYM    DATA     BIT       U0SM1
      00000088H.6 SFRSYM    DATA     BIT       TR1
      000000B8H   SFRSYM    DATA     BIT       PX0
      00000098H.5 SFRSYM    DATA     BIT       U0SM2
      000000B8H.2 SFRSYM    DATA     BIT       PX1
      000000BDH   SFRSYM    DATA     BYTE      WUTCRH
      00000099H   SFRSYM    DATA     BYTE      SBUF0
      000000EBH   SFRSYM    DATA     BYTE      SBUF1
      000000BCH   SFRSYM    DATA     BYTE      WUTCRL
      00000098H   SFRSYM    DATA     BYTE      SCON0
      000000EAH   SFRSYM    DATA     BYTE      SCON1
      000000C8H   SFRSYM    DATA     BYTE      T2CON
      00000086H   SFRSYM    DATA     BYTE      DPS
      000000FEH   SFRSYM    DATA     BYTE      MDATA
      000000F6H   SFRSYM    DATA     BYTE      I2CMBUF
      000000F1H   SFRSYM    DATA     BYTE      I2CSADR
      00000098H.4 SFRSYM    DATA     BIT       U0REN
      000000C8H.5 SFRSYM    DATA     BIT       CAPES
      000000FDH   SFRSYM    DATA     BYTE      MADRH
      0000008EH   SFRSYM    DATA     BYTE      CKCON
      000000F3H   SFRSYM    DATA     BYTE      I2CSBUF
      000000FCH   SFRSYM    DATA     BYTE      MADRL
      000000D0H.5 SFRSYM    DATA     BIT       F0
      000000FBH   SFRSYM    DATA     BYTE      MLOCK
      000000D0H   SFRSYM    DATA     BYTE      PSW
      00000097H   SFRSYM    DATA     BYTE      WDCON

      01000E5FH   BLOCK     CODE     ---       LVL=0
      01000E5FH   LINE      CODE     ---       #7
      01000E5FH   LINE      CODE     ---       #8
      01000E5FH   LINE      CODE     ---       #11
      01000E66H   LINE      CODE     ---       #14
      01000E6BH   LINE      CODE     ---       #16
      01000E71H   LINE      CODE     ---       #19
      01000E74H   LINE      CODE     ---       #21
      01000E79H   LINE      CODE     ---       #24
      01000E7CH   LINE      CODE     ---       #26
      01000E83H   LINE      CODE     ---       #29
      01000E88H   LINE      CODE     ---       #31
      01000E8FH   LINE      CODE     ---       #33
      01000E95H   LINE      CODE     ---       #34
      01000EA5H   LINE      CODE     ---       #37
      01000EA8H   LINE      CODE     ---       #39
      01000EAEH   LINE      CODE     ---       #41
      01000EB1H   LINE      CODE     ---       #44
      ---         BLOCKEND  ---      ---       LVL=0

      ---         MODULE    ---      ---       ?C_INIT
      010008C2H   PUBLIC    CODE     ---       ?C_START

      ---         MODULE    ---      ---       ?C?CLDPTR
      01000907H   PUBLIC    CODE     ---       ?C?CLDPTR

      ---         MODULE    ---      ---       PRINTF
      0000000AH   PUBLIC    DATA     ---       ?_PRINTF517?BYTE
LX51 LINKER/LOCATER V4.66.1.0                                                         09/08/2023  16:42:41  PAGE 156


      0000000AH   PUBLIC    DATA     ---       ?_PRINTF?BYTE
      0000000AH   PUBLIC    DATA     ---       ?_SPRINTF517?BYTE
      0000000AH   PUBLIC    DATA     ---       ?_SPRINTF?BYTE
      01000118H   PUBLIC    CODE     ---       _PRINTF
      01000118H   PUBLIC    CODE     ---       _PRINTF517
      01000112H   PUBLIC    CODE     ---       _SPRINTF
      01000112H   PUBLIC    CODE     ---       _SPRINTF517

      ---         MODULE    ---      ---       ?C?CLDOPTR
      01000920H   PUBLIC    CODE     ---       ?C?CLDOPTR

      ---         MODULE    ---      ---       ?C?CSTPTR
      0100094DH   PUBLIC    CODE     ---       ?C?CSTPTR

      ---         MODULE    ---      ---       ?C?PLDIIDATA
      0100095FH   PUBLIC    CODE     ---       ?C?PLDIIDATA

      ---         MODULE    ---      ---       ?C?CCASE
      0100096FH   PUBLIC    CODE     ---       ?C?CCASE



*** WARNING L16: UNCALLED FUNCTION, IGNORED FOR OVERLAY PROCESS
    NAME:    _UART_DISABLEDOUBLEFREQUENCY/UART

*** WARNING L16: UNCALLED FUNCTION, IGNORED FOR OVERLAY PROCESS
    NAME:    _UART_CONFIGBAUDRATE/UART

*** WARNING L16: UNCALLED FUNCTION, IGNORED FOR OVERLAY PROCESS
    NAME:    _UART_DISABLERECEIVE/UART

*** WARNING L16: UNCALLED FUNCTION, IGNORED FOR OVERLAY PROCESS
    NAME:    _UART_DISABLEINT/UART

*** WARNING L16: UNCALLED FUNCTION, IGNORED FOR OVERLAY PROCESS
    NAME:    _UART_SENDNINTHBIT/UART

*** WARNING L16: UNCALLED FUNCTION, IGNORED FOR OVERLAY PROCESS
    NAME:    _UART_GETNINTHBIT/UART

*** WARNING L16: UNCALLED FUNCTION, IGNORED FOR OVERLAY PROCESS
    NAME:    UART_DISABLEBRT/UART

*** WARNING L16: UNCALLED FUNCTION, IGNORED FOR OVERLAY PROCESS
    NAME:    _ACMP_CONFIGPOSITIVE/ACMP

*** WARNING L16: UNCALLED FUNCTION, IGNORED FOR OVERLAY PROCESS
    NAME:    _ACMP_ENABLEREVERSEOUTPUT/ACMP

*** WARNING L16: UNCALLED FUNCTION, IGNORED FOR OVERLAY PROCESS
    NAME:    _ACMP_DISABLEREVERSEOUTPUT/ACMP

*** WARNING L16: UNCALLED FUNCTION, IGNORED FOR OVERLAY PROCESS
    NAME:    _ACMP_ENABLEFILTER/ACMP

*** WARNING L16: UNCALLED FUNCTION, IGNORED FOR OVERLAY PROCESS
    NAME:    _ACMP_DISABLEFILTER/ACMP

*** WARNING L16: UNCALLED FUNCTION, IGNORED FOR OVERLAY PROCESS
    NAME:    _ACMP_ENABLEACMPBRAKE/ACMP

*** WARNING L16: UNCALLED FUNCTION, IGNORED FOR OVERLAY PROCESS
    NAME:    _ACMP_ENABLEINT/ACMP

*** WARNING L16: UNCALLED FUNCTION, IGNORED FOR OVERLAY PROCESS
LX51 LINKER/LOCATER V4.66.1.0                                                         09/08/2023  16:42:41  PAGE 157


    NAME:    _ACMP_DISABLEINT/ACMP

*** WARNING L16: UNCALLED FUNCTION, IGNORED FOR OVERLAY PROCESS
    NAME:    _ACMP_GETINTFLAG/ACMP

*** WARNING L16: UNCALLED FUNCTION, IGNORED FOR OVERLAY PROCESS
    NAME:    _ACMP_CLEARINTFLAG/ACMP

*** WARNING L16: UNCALLED FUNCTION, IGNORED FOR OVERLAY PROCESS
    NAME:    _ACMP_ENABLEHYS/ACMP

*** WARNING L16: UNCALLED FUNCTION, IGNORED FOR OVERLAY PROCESS
    NAME:    _ACMP_DISABLEHYS/ACMP

*** WARNING L16: UNCALLED FUNCTION, IGNORED FOR OVERLAY PROCESS
    NAME:    _ACMP_CONFIGOFFSETADJ/ACMP

*** WARNING L16: UNCALLED FUNCTION, IGNORED FOR OVERLAY PROCESS
    NAME:    _ACMP_GETOFFSETADJVALUE/ACMP

*** WARNING L16: UNCALLED FUNCTION, IGNORED FOR OVERLAY PROCESS
    NAME:    ADC_STOP/ADC

*** WARNING L16: UNCALLED FUNCTION, IGNORED FOR OVERLAY PROCESS
    NAME:    ADC_DISABLEHARDWARETRIG/ADC

*** WARNING L16: UNCALLED FUNCTION, IGNORED FOR OVERLAY PROCESS
    NAME:    _ADC_CONFIGAN31/ADC

*** WARNING L16: UNCALLED FUNCTION, IGNORED FOR OVERLAY PROCESS
    NAME:    _ADC_SETTRIGDELAYTIME/ADC

*** WARNING L16: UNCALLED FUNCTION, IGNORED FOR OVERLAY PROCESS
    NAME:    _ADC_CONFIGADCBRAKE/ADC

*** WARNING L16: UNCALLED FUNCTION, IGNORED FOR OVERLAY PROCESS
    NAME:    _ADC_CONFIGCOMPAREVALUE/ADC

*** WARNING L16: UNCALLED FUNCTION, IGNORED FOR OVERLAY PROCESS
    NAME:    ADC_GETCMPRESULT/ADC

*** WARNING L16: UNCALLED FUNCTION, IGNORED FOR OVERLAY PROCESS
    NAME:    ADC_DISABLEINT/ADC

*** WARNING L16: UNCALLED FUNCTION, IGNORED FOR OVERLAY PROCESS
    NAME:    ADC_GETINTFLAG/ADC

*** WARNING L16: UNCALLED FUNCTION, IGNORED FOR OVERLAY PROCESS
    NAME:    ADC_CLEARINTFLAG/ADC

*** WARNING L16: UNCALLED FUNCTION, IGNORED FOR OVERLAY PROCESS
    NAME:    ADC_DISABLELDO/ADC

*** WARNING L16: UNCALLED FUNCTION, IGNORED FOR OVERLAY PROCESS
    NAME:    BUZ_ENABLEBUZZER/BUZZER

*** WARNING L16: UNCALLED FUNCTION, IGNORED FOR OVERLAY PROCESS
    NAME:    BUZ_DISABLEBUZZER/BUZZER

*** WARNING L16: UNCALLED FUNCTION, IGNORED FOR OVERLAY PROCESS
    NAME:    _BUZ_CONFIGBUZZER/BUZZER

*** WARNING L16: UNCALLED FUNCTION, IGNORED FOR OVERLAY PROCESS
    NAME:    _EPWM_CONFIGCHANNELASYMDUTY/EPWM

LX51 LINKER/LOCATER V4.66.1.0                                                         09/08/2023  16:42:41  PAGE 158


*** WARNING L16: UNCALLED FUNCTION, IGNORED FOR OVERLAY PROCESS
    NAME:    _EPWM_ENABLEONESHOTMODE/EPWM

*** WARNING L16: UNCALLED FUNCTION, IGNORED FOR OVERLAY PROCESS
    NAME:    _EPWM_STOP/EPWM

*** WARNING L16: UNCALLED FUNCTION, IGNORED FOR OVERLAY PROCESS
    NAME:    _EPWM_DISABLEOUTPUT/EPWM

*** WARNING L16: UNCALLED FUNCTION, IGNORED FOR OVERLAY PROCESS
    NAME:    _EPWM_ENABLEFAULTBRAKE/EPWM

*** WARNING L16: UNCALLED FUNCTION, IGNORED FOR OVERLAY PROCESS
    NAME:    _EPWM_DISABLEFAULTBRAKE/EPWM

*** WARNING L16: UNCALLED FUNCTION, IGNORED FOR OVERLAY PROCESS
    NAME:    _EPWM_CONFIGCHANNELBRAKELEVEL/EPWM

*** WARNING L16: UNCALLED FUNCTION, IGNORED FOR OVERLAY PROCESS
    NAME:    _EPWM_ENABLEDEADZONE/EPWM

*** WARNING L16: UNCALLED FUNCTION, IGNORED FOR OVERLAY PROCESS
    NAME:    _EPWM_ENABLEMASKCONTROL/EPWM

*** WARNING L16: UNCALLED FUNCTION, IGNORED FOR OVERLAY PROCESS
    NAME:    _EPWM_DISABLEMASKCONTROL/EPWM

*** WARNING L16: UNCALLED FUNCTION, IGNORED FOR OVERLAY PROCESS
    NAME:    _EPWM_ENABLEUPCMPINT/EPWM

*** WARNING L16: UNCALLED FUNCTION, IGNORED FOR OVERLAY PROCESS
    NAME:    _EPWM_DISABLEUPCMPINT/EPWM

*** WARNING L16: UNCALLED FUNCTION, IGNORED FOR OVERLAY PROCESS
    NAME:    _EPWM_GETUPCMPINTFLAG/EPWM

*** WARNING L16: UNCALLED FUNCTION, IGNORED FOR OVERLAY PROCESS
    NAME:    _EPWM_CLEARUPCMPINTFLAG/EPWM

*** WARNING L16: UNCALLED FUNCTION, IGNORED FOR OVERLAY PROCESS
    NAME:    _EPWM_ENABLEDOWNCMPINT/EPWM

*** WARNING L16: UNCALLED FUNCTION, IGNORED FOR OVERLAY PROCESS
    NAME:    _EPWM_DISABLEDOWNCMPINT/EPWM

*** WARNING L16: UNCALLED FUNCTION, IGNORED FOR OVERLAY PROCESS
    NAME:    _EPWM_GETDOWNCMPINTFLAG/EPWM

*** WARNING L16: UNCALLED FUNCTION, IGNORED FOR OVERLAY PROCESS
    NAME:    _EPWM_CLEARDOWNCMPINTFLAG/EPWM

*** WARNING L16: UNCALLED FUNCTION, IGNORED FOR OVERLAY PROCESS
    NAME:    _EPWM_ENABLEPERIODINT/EPWM

*** WARNING L16: UNCALLED FUNCTION, IGNORED FOR OVERLAY PROCESS
    NAME:    _EPWM_DISABLEPERIODINT/EPWM

*** WARNING L16: UNCALLED FUNCTION, IGNORED FOR OVERLAY PROCESS
    NAME:    _EPWM_CLEARPERIODINTFLAG/EPWM

*** WARNING L16: UNCALLED FUNCTION, IGNORED FOR OVERLAY PROCESS
    NAME:    _EPWM_GETPERIODINTFLAG/EPWM

*** WARNING L16: UNCALLED FUNCTION, IGNORED FOR OVERLAY PROCESS
    NAME:    _EPWM_DISABLEZEROINT/EPWM
LX51 LINKER/LOCATER V4.66.1.0                                                         09/08/2023  16:42:41  PAGE 159



*** WARNING L16: UNCALLED FUNCTION, IGNORED FOR OVERLAY PROCESS
    NAME:    _EPWM_CLEARZEROINTFLAG/EPWM

*** WARNING L16: UNCALLED FUNCTION, IGNORED FOR OVERLAY PROCESS
    NAME:    _EPWM_GETZEROINTFLAG/EPWM

*** WARNING L16: UNCALLED FUNCTION, IGNORED FOR OVERLAY PROCESS
    NAME:    EPWM_ENABLEFAULTBRAKEINT/EPWM

*** WARNING L16: UNCALLED FUNCTION, IGNORED FOR OVERLAY PROCESS
    NAME:    EPWM_DISABLEFAULTBRAKEINT/EPWM

*** WARNING L16: UNCALLED FUNCTION, IGNORED FOR OVERLAY PROCESS
    NAME:    EPWM_GETFAULTBRAKEINTFLAG/EPWM

*** WARNING L16: UNCALLED FUNCTION, IGNORED FOR OVERLAY PROCESS
    NAME:    EPWM_CLEARFAULTBRAKEINTFLAG/EPWM

*** WARNING L16: UNCALLED FUNCTION, IGNORED FOR OVERLAY PROCESS
    NAME:    _EPWM_ENABLEREVERSEOUTPUT/EPWM

*** WARNING L16: UNCALLED FUNCTION, IGNORED FOR OVERLAY PROCESS
    NAME:    EPWM_TRIGSOFTWAREBRAKE/EPWM

*** WARNING L16: UNCALLED FUNCTION, IGNORED FOR OVERLAY PROCESS
    NAME:    EPWM_DISABLESOFTWAREBRAKE/EPWM

*** WARNING L16: UNCALLED FUNCTION, IGNORED FOR OVERLAY PROCESS
    NAME:    _EPWM_CONFIGFBBRAKE/EPWM

*** WARNING L16: UNCALLED FUNCTION, IGNORED FOR OVERLAY PROCESS
    NAME:    EPWM_ALLINTDISABLE/EPWM

*** WARNING L16: UNCALLED FUNCTION, IGNORED FOR OVERLAY PROCESS
    NAME:    _EXTINT_CONFIGINT/EXTINT

*** WARNING L16: UNCALLED FUNCTION, IGNORED FOR OVERLAY PROCESS
    NAME:    _EXTINT_ENABLEINT/EXTINT

*** WARNING L16: UNCALLED FUNCTION, IGNORED FOR OVERLAY PROCESS
    NAME:    _EXTINT_DISABLEINT/EXTINT

*** WARNING L16: UNCALLED FUNCTION, IGNORED FOR OVERLAY PROCESS
    NAME:    _EXTINT_GETINTFLAG/EXTINT

*** WARNING L16: UNCALLED FUNCTION, IGNORED FOR OVERLAY PROCESS
    NAME:    _EXTINT_CLEARINTFLAG/EXTINT

*** WARNING L16: UNCALLED FUNCTION, IGNORED FOR OVERLAY PROCESS
    NAME:    FLASH_UNLOCK/FLASH

*** WARNING L16: UNCALLED FUNCTION, IGNORED FOR OVERLAY PROCESS
    NAME:    FLASH_LOCK/FLASH

*** WARNING L16: UNCALLED FUNCTION, IGNORED FOR OVERLAY PROCESS
    NAME:    _FLASH_WRITE/FLASH

*** WARNING L16: UNCALLED FUNCTION, IGNORED FOR OVERLAY PROCESS
    NAME:    _FLASH_READ/FLASH

*** WARNING L16: UNCALLED FUNCTION, IGNORED FOR OVERLAY PROCESS
    NAME:    _FLASH_ERASE/FLASH

*** WARNING L16: UNCALLED FUNCTION, IGNORED FOR OVERLAY PROCESS
LX51 LINKER/LOCATER V4.66.1.0                                                         09/08/2023  16:42:41  PAGE 160


    NAME:    _GPIO_CONFIGGPIOMODE/GPIO

*** WARNING L16: UNCALLED FUNCTION, IGNORED FOR OVERLAY PROCESS
    NAME:    _GPIO_ENABLEINT/GPIO

*** WARNING L16: UNCALLED FUNCTION, IGNORED FOR OVERLAY PROCESS
    NAME:    _GPIO_DISABLEINT/GPIO

*** WARNING L16: UNCALLED FUNCTION, IGNORED FOR OVERLAY PROCESS
    NAME:    _GPIO_GETINTFLAG/GPIO

*** WARNING L16: UNCALLED FUNCTION, IGNORED FOR OVERLAY PROCESS
    NAME:    _GPIO_CLEARINTFLAG/GPIO

*** WARNING L16: UNCALLED FUNCTION, IGNORED FOR OVERLAY PROCESS
    NAME:    _I2C_CONFIGCLK/I2C

*** WARNING L16: UNCALLED FUNCTION, IGNORED FOR OVERLAY PROCESS
    NAME:    I2C_ENABLEMASTERMODE/I2C

*** WARNING L16: UNCALLED FUNCTION, IGNORED FOR OVERLAY PROCESS
    NAME:    I2C_DISABLEMASTERMODE/I2C

*** WARNING L16: UNCALLED FUNCTION, IGNORED FOR OVERLAY PROCESS
    NAME:    I2C_GETMASTERSENDADDRFLAG/I2C

*** WARNING L16: UNCALLED FUNCTION, IGNORED FOR OVERLAY PROCESS
    NAME:    I2C_GETBUSARBITRATIONFLAG/I2C

*** WARNING L16: UNCALLED FUNCTION, IGNORED FOR OVERLAY PROCESS
    NAME:    I2C_GETMASTERERRORFLAG/I2C

*** WARNING L16: UNCALLED FUNCTION, IGNORED FOR OVERLAY PROCESS
    NAME:    I2C_GETMASTERBUSYFLAG/I2C

*** WARNING L16: UNCALLED FUNCTION, IGNORED FOR OVERLAY PROCESS
    NAME:    I2C_GETI2CBUSBUSYFLAG/I2C

*** WARNING L16: UNCALLED FUNCTION, IGNORED FOR OVERLAY PROCESS
    NAME:    I2C_GETMASTERIDLEFLAG/I2C

*** WARNING L16: UNCALLED FUNCTION, IGNORED FOR OVERLAY PROCESS
    NAME:    I2C_ENABLEINT/I2C

*** WARNING L16: UNCALLED FUNCTION, IGNORED FOR OVERLAY PROCESS
    NAME:    I2C_DISABLEINT/I2C

*** WARNING L16: UNCALLED FUNCTION, IGNORED FOR OVERLAY PROCESS
    NAME:    I2C_GETMASTERINTFLAG/I2C

*** WARNING L16: UNCALLED FUNCTION, IGNORED FOR OVERLAY PROCESS
    NAME:    I2C_CLEARMASTERINTFLAG/I2C

*** WARNING L16: UNCALLED FUNCTION, IGNORED FOR OVERLAY PROCESS
    NAME:    LSE_ENABLELSE/LSE

*** WARNING L16: UNCALLED FUNCTION, IGNORED FOR OVERLAY PROCESS
    NAME:    LSE_DISABLELSE/LSE

*** WARNING L16: UNCALLED FUNCTION, IGNORED FOR OVERLAY PROCESS
    NAME:    LSE_START/LSE

*** WARNING L16: UNCALLED FUNCTION, IGNORED FOR OVERLAY PROCESS
    NAME:    LSE_STOP/LSE

LX51 LINKER/LOCATER V4.66.1.0                                                         09/08/2023  16:42:41  PAGE 161


*** WARNING L16: UNCALLED FUNCTION, IGNORED FOR OVERLAY PROCESS
    NAME:    _LSE_CONFIGLSE/LSE

*** WARNING L16: UNCALLED FUNCTION, IGNORED FOR OVERLAY PROCESS
    NAME:    LSE_ENABLELSEWAKEUP/LSE

*** WARNING L16: UNCALLED FUNCTION, IGNORED FOR OVERLAY PROCESS
    NAME:    LSE_DISABLELSEWAKEUP/LSE

*** WARNING L16: UNCALLED FUNCTION, IGNORED FOR OVERLAY PROCESS
    NAME:    LSE_ENABLELSEINT/LSE

*** WARNING L16: UNCALLED FUNCTION, IGNORED FOR OVERLAY PROCESS
    NAME:    LSE_DISABLELSEINT/LSE

*** WARNING L16: UNCALLED FUNCTION, IGNORED FOR OVERLAY PROCESS
    NAME:    LSE_GETLSEINTFLAG/LSE

*** WARNING L16: UNCALLED FUNCTION, IGNORED FOR OVERLAY PROCESS
    NAME:    LSE_CLEARLSEINTFLAG/LSE

*** WARNING L16: UNCALLED FUNCTION, IGNORED FOR OVERLAY PROCESS
    NAME:    LSE_GETLSESTATE/LSE

*** WARNING L16: UNCALLED FUNCTION, IGNORED FOR OVERLAY PROCESS
    NAME:    _OPA_CONFIGPOSITIVE/OPA

*** WARNING L16: UNCALLED FUNCTION, IGNORED FOR OVERLAY PROCESS
    NAME:    _OPA_CONFIGNEGATIVE/OPA

*** WARNING L16: UNCALLED FUNCTION, IGNORED FOR OVERLAY PROCESS
    NAME:    _OPA_ENABLEOUTPUT/OPA

*** WARNING L16: UNCALLED FUNCTION, IGNORED FOR OVERLAY PROCESS
    NAME:    _OPA_DISABLEOUTPUT/OPA

*** WARNING L16: UNCALLED FUNCTION, IGNORED FOR OVERLAY PROCESS
    NAME:    _OPA_CONFIGOFFSETADJ/OPA

*** WARNING L16: UNCALLED FUNCTION, IGNORED FOR OVERLAY PROCESS
    NAME:    _OPA_GETOFFSETADJVALUE/OPA

*** WARNING L16: UNCALLED FUNCTION, IGNORED FOR OVERLAY PROCESS
    NAME:    _PGA_ENABLENORMALMODE/PGA

*** WARNING L16: UNCALLED FUNCTION, IGNORED FOR OVERLAY PROCESS
    NAME:    _PGA_CONFIGINPUT/PGA

*** WARNING L16: UNCALLED FUNCTION, IGNORED FOR OVERLAY PROCESS
    NAME:    PGA_ENABLEOUTPUT/PGA

*** WARNING L16: UNCALLED FUNCTION, IGNORED FOR OVERLAY PROCESS
    NAME:    PGA_DISABLEOUTPUT/PGA

*** WARNING L16: UNCALLED FUNCTION, IGNORED FOR OVERLAY PROCESS
    NAME:    _PGA_CONFIGGAIN/PGA

*** WARNING L16: UNCALLED FUNCTION, IGNORED FOR OVERLAY PROCESS
    NAME:    _PGA_CONFIGOFFSETADJ/PGA

*** WARNING L16: UNCALLED FUNCTION, IGNORED FOR OVERLAY PROCESS
    NAME:    PGA_ENABLESHA/PGA

*** WARNING L16: UNCALLED FUNCTION, IGNORED FOR OVERLAY PROCESS
    NAME:    _PGA_CONFIGSAMPLETIME/PGA
LX51 LINKER/LOCATER V4.66.1.0                                                         09/08/2023  16:42:41  PAGE 162



*** WARNING L16: UNCALLED FUNCTION, IGNORED FOR OVERLAY PROCESS
    NAME:    _PGA_GETOFFSETADJVALUE/PGA

*** WARNING L16: UNCALLED FUNCTION, IGNORED FOR OVERLAY PROCESS
    NAME:    SPI_START/SPI

*** WARNING L16: UNCALLED FUNCTION, IGNORED FOR OVERLAY PROCESS
    NAME:    SPI_STOP/SPI

*** WARNING L16: UNCALLED FUNCTION, IGNORED FOR OVERLAY PROCESS
    NAME:    _SPI_CONFIGCLK/SPI

*** WARNING L16: UNCALLED FUNCTION, IGNORED FOR OVERLAY PROCESS
    NAME:    _SPI_CONFIGRUNMODE/SPI

*** WARNING L16: UNCALLED FUNCTION, IGNORED FOR OVERLAY PROCESS
    NAME:    SPI_ENABLEMASTERMODE/SPI

*** WARNING L16: UNCALLED FUNCTION, IGNORED FOR OVERLAY PROCESS
    NAME:    SPI_DISABLEMASTERMODE/SPI

*** WARNING L16: UNCALLED FUNCTION, IGNORED FOR OVERLAY PROCESS
    NAME:    SPI_ENABLESLAVEMODE/SPI

*** WARNING L16: UNCALLED FUNCTION, IGNORED FOR OVERLAY PROCESS
    NAME:    SPI_DISABLESLAVEMODE/SPI

*** WARNING L16: UNCALLED FUNCTION, IGNORED FOR OVERLAY PROCESS
    NAME:    SPI_GETTRANSFERINTFLAG/SPI

*** WARNING L16: UNCALLED FUNCTION, IGNORED FOR OVERLAY PROCESS
    NAME:    SPI_CLEARTRANSFERINTFLAG/SPI

*** WARNING L16: UNCALLED FUNCTION, IGNORED FOR OVERLAY PROCESS
    NAME:    SPI_GETWRITEERRORINTFLAG/SPI

*** WARNING L16: UNCALLED FUNCTION, IGNORED FOR OVERLAY PROCESS
    NAME:    SPI_CLEARWRITEERRORINTFLAG/SPI

*** WARNING L16: UNCALLED FUNCTION, IGNORED FOR OVERLAY PROCESS
    NAME:    SPI_ENABLEINTFLAG/SPI

*** WARNING L16: UNCALLED FUNCTION, IGNORED FOR OVERLAY PROCESS
    NAME:    SPI_DISABLEINTFLAG/SPI

*** WARNING L16: UNCALLED FUNCTION, IGNORED FOR OVERLAY PROCESS
    NAME:    SYS_ENABLELVD/SYSTEM

*** WARNING L16: UNCALLED FUNCTION, IGNORED FOR OVERLAY PROCESS
    NAME:    SYS_DISABLELVD/SYSTEM

*** WARNING L16: UNCALLED FUNCTION, IGNORED FOR OVERLAY PROCESS
    NAME:    _SYS_CONFIGLVD/SYSTEM

*** WARNING L16: UNCALLED FUNCTION, IGNORED FOR OVERLAY PROCESS
    NAME:    SYS_ENABLELVDINT/SYSTEM

*** WARNING L16: UNCALLED FUNCTION, IGNORED FOR OVERLAY PROCESS
    NAME:    SYS_DISABLELVDINT/SYSTEM

*** WARNING L16: UNCALLED FUNCTION, IGNORED FOR OVERLAY PROCESS
    NAME:    SYS_GETLVDINTFLAG/SYSTEM

*** WARNING L16: UNCALLED FUNCTION, IGNORED FOR OVERLAY PROCESS
LX51 LINKER/LOCATER V4.66.1.0                                                         09/08/2023  16:42:41  PAGE 163


    NAME:    SYS_CLEARLVDINTFLAG/SYSTEM

*** WARNING L16: UNCALLED FUNCTION, IGNORED FOR OVERLAY PROCESS
    NAME:    SYS_ENABLEWDTRESET/SYSTEM

*** WARNING L16: UNCALLED FUNCTION, IGNORED FOR OVERLAY PROCESS
    NAME:    SYS_DISABLEWDTRESET/SYSTEM

*** WARNING L16: UNCALLED FUNCTION, IGNORED FOR OVERLAY PROCESS
    NAME:    SYS_GETWDTRESETFLAG/SYSTEM

*** WARNING L16: UNCALLED FUNCTION, IGNORED FOR OVERLAY PROCESS
    NAME:    SYS_CLEARWDTRESETFLAG/SYSTEM

*** WARNING L16: UNCALLED FUNCTION, IGNORED FOR OVERLAY PROCESS
    NAME:    SYS_ENABLESOFTWARERESET/SYSTEM

*** WARNING L16: UNCALLED FUNCTION, IGNORED FOR OVERLAY PROCESS
    NAME:    SYS_DISABLESOFTWARERESET/SYSTEM

*** WARNING L16: UNCALLED FUNCTION, IGNORED FOR OVERLAY PROCESS
    NAME:    SYS_GETPOWERONRESETFLAG/SYSTEM

*** WARNING L16: UNCALLED FUNCTION, IGNORED FOR OVERLAY PROCESS
    NAME:    SYS_CLEARPOWERONRESETFLAG/SYSTEM

*** WARNING L16: UNCALLED FUNCTION, IGNORED FOR OVERLAY PROCESS
    NAME:    SYS_ENABLEWAKEUP/SYSTEM

*** WARNING L16: UNCALLED FUNCTION, IGNORED FOR OVERLAY PROCESS
    NAME:    SYS_DISABLEWAKEUP/SYSTEM

*** WARNING L16: UNCALLED FUNCTION, IGNORED FOR OVERLAY PROCESS
    NAME:    SYS_ENTERSTOP/SYSTEM

*** WARNING L16: UNCALLED FUNCTION, IGNORED FOR OVERLAY PROCESS
    NAME:    SYS_ENTERIDLE/SYSTEM

*** WARNING L16: UNCALLED FUNCTION, IGNORED FOR OVERLAY PROCESS
    NAME:    SYS_ENABLEWAKEUPTRIG/SYSTEM

*** WARNING L16: UNCALLED FUNCTION, IGNORED FOR OVERLAY PROCESS
    NAME:    SYS_DISABLEWAKEUPTRIG/SYSTEM

*** WARNING L16: UNCALLED FUNCTION, IGNORED FOR OVERLAY PROCESS
    NAME:    _SYS_CONFIGWUTCLK/SYSTEM

*** WARNING L16: UNCALLED FUNCTION, IGNORED FOR OVERLAY PROCESS
    NAME:    _SYS_CONFIGWUTTIME/SYSTEM

*** WARNING L16: UNCALLED FUNCTION, IGNORED FOR OVERLAY PROCESS
    NAME:    _TMR_ENABLEGATE/TIMER

*** WARNING L16: UNCALLED FUNCTION, IGNORED FOR OVERLAY PROCESS
    NAME:    _TMR_DISABLEGATE/TIMER

*** WARNING L16: UNCALLED FUNCTION, IGNORED FOR OVERLAY PROCESS
    NAME:    _TMR_GETCOUNTVALUE/TIMER

*** WARNING L16: UNCALLED FUNCTION, IGNORED FOR OVERLAY PROCESS
    NAME:    _TMR_DISABLEOVERFLOWINT/TIMER

*** WARNING L16: UNCALLED FUNCTION, IGNORED FOR OVERLAY PROCESS
    NAME:    _TMR_GETOVERFLOWINTFLAG/TIMER

LX51 LINKER/LOCATER V4.66.1.0                                                         09/08/2023  16:42:41  PAGE 164


*** WARNING L16: UNCALLED FUNCTION, IGNORED FOR OVERLAY PROCESS
    NAME:    _TMR_CLEAROVERFLOWINTFLAG/TIMER

*** WARNING L16: UNCALLED FUNCTION, IGNORED FOR OVERLAY PROCESS
    NAME:    _TMR_STOP/TIMER

*** WARNING L16: UNCALLED FUNCTION, IGNORED FOR OVERLAY PROCESS
    NAME:    _TMR2_CONFIGRUNMODE/TIMER

*** WARNING L16: UNCALLED FUNCTION, IGNORED FOR OVERLAY PROCESS
    NAME:    _TMR2_CONFIGTIMERCLK/TIMER

*** WARNING L16: UNCALLED FUNCTION, IGNORED FOR OVERLAY PROCESS
    NAME:    _TMR2_CONFIGTIMERPERIOD/TIMER

*** WARNING L16: UNCALLED FUNCTION, IGNORED FOR OVERLAY PROCESS
    NAME:    TMR2_ENABLEGATE/TIMER

*** WARNING L16: UNCALLED FUNCTION, IGNORED FOR OVERLAY PROCESS
    NAME:    TMR2_DISABLEGATE/TIMER

*** WARNING L16: UNCALLED FUNCTION, IGNORED FOR OVERLAY PROCESS
    NAME:    _TMR2_ENABLECOMPARE/TIMER

*** WARNING L16: UNCALLED FUNCTION, IGNORED FOR OVERLAY PROCESS
    NAME:    _TMR2_DISABLECOMPARE/TIMER

*** WARNING L16: UNCALLED FUNCTION, IGNORED FOR OVERLAY PROCESS
    NAME:    _TMR2_CONFIGCOMPAREVALUE/TIMER

*** WARNING L16: UNCALLED FUNCTION, IGNORED FOR OVERLAY PROCESS
    NAME:    _TMR2_CONFIGCOMPAREINTMODE/TIMER

*** WARNING L16: UNCALLED FUNCTION, IGNORED FOR OVERLAY PROCESS
    NAME:    _TMR2_ENABLECAPTURE/TIMER

*** WARNING L16: UNCALLED FUNCTION, IGNORED FOR OVERLAY PROCESS
    NAME:    _TMR2_DISABLECAPTURE/TIMER

*** WARNING L16: UNCALLED FUNCTION, IGNORED FOR OVERLAY PROCESS
    NAME:    _TMR2_GETCAPTUREVALUE/TIMER

*** WARNING L16: UNCALLED FUNCTION, IGNORED FOR OVERLAY PROCESS
    NAME:    TMR2_ENABLEOVERFLOWINT/TIMER

*** WARNING L16: UNCALLED FUNCTION, IGNORED FOR OVERLAY PROCESS
    NAME:    TMR2_DISABLEOVERFLOWINT/TIMER

*** WARNING L16: UNCALLED FUNCTION, IGNORED FOR OVERLAY PROCESS
    NAME:    TMR2_GETOVERFLOWINTFLAG/TIMER

*** WARNING L16: UNCALLED FUNCTION, IGNORED FOR OVERLAY PROCESS
    NAME:    TMR2_CLEAROVERFLOWINTFLAG/TIMER

*** WARNING L16: UNCALLED FUNCTION, IGNORED FOR OVERLAY PROCESS
    NAME:    TMR2_ENABLET2EXINT/TIMER

*** WARNING L16: UNCALLED FUNCTION, IGNORED FOR OVERLAY PROCESS
    NAME:    TMR2_DISABLET2EXINT/TIMER

*** WARNING L16: UNCALLED FUNCTION, IGNORED FOR OVERLAY PROCESS
    NAME:    TMR2_GETT2EXINTFLAG/TIMER

*** WARNING L16: UNCALLED FUNCTION, IGNORED FOR OVERLAY PROCESS
    NAME:    TMR2_CLEART2EXINTFLAG/TIMER
LX51 LINKER/LOCATER V4.66.1.0                                                         09/08/2023  16:42:41  PAGE 165



*** WARNING L16: UNCALLED FUNCTION, IGNORED FOR OVERLAY PROCESS
    NAME:    _TMR2_ENABLECOMPAREINT/TIMER

*** WARNING L16: UNCALLED FUNCTION, IGNORED FOR OVERLAY PROCESS
    NAME:    _TMR2_DISABLECOMPAREINT/TIMER

*** WARNING L16: UNCALLED FUNCTION, IGNORED FOR OVERLAY PROCESS
    NAME:    _TMR2_GETCOMPAREINTFLAG/TIMER

*** WARNING L16: UNCALLED FUNCTION, IGNORED FOR OVERLAY PROCESS
    NAME:    _TMR2_CLEARCOMPAREINTFLAG/TIMER

*** WARNING L16: UNCALLED FUNCTION, IGNORED FOR OVERLAY PROCESS
    NAME:    _TMR2_ENABLECAPTUREINT/TIMER

*** WARNING L16: UNCALLED FUNCTION, IGNORED FOR OVERLAY PROCESS
    NAME:    _TMR2_DISABLECAPTUREINT/TIMER

*** WARNING L16: UNCALLED FUNCTION, IGNORED FOR OVERLAY PROCESS
    NAME:    _TMR2_GETCAPTUREINTFLAG/TIMER

*** WARNING L16: UNCALLED FUNCTION, IGNORED FOR OVERLAY PROCESS
    NAME:    _TMR2_CLEARCAPTUREINTFLAG/TIMER

*** WARNING L16: UNCALLED FUNCTION, IGNORED FOR OVERLAY PROCESS
    NAME:    TMR2_ALLINTENABLE/TIMER

*** WARNING L16: UNCALLED FUNCTION, IGNORED FOR OVERLAY PROCESS
    NAME:    TMR2_ALLINTDISABLE/TIMER

*** WARNING L16: UNCALLED FUNCTION, IGNORED FOR OVERLAY PROCESS
    NAME:    TMR2_START/TIMER

*** WARNING L16: UNCALLED FUNCTION, IGNORED FOR OVERLAY PROCESS
    NAME:    TMR2_STOP/TIMER

*** WARNING L16: UNCALLED FUNCTION, IGNORED FOR OVERLAY PROCESS
    NAME:    _WDT_CONFIGOVERFLOWTIME/WDT

*** WARNING L16: UNCALLED FUNCTION, IGNORED FOR OVERLAY PROCESS
    NAME:    WDT_CLEARWDT/WDT

*** WARNING L16: UNCALLED FUNCTION, IGNORED FOR OVERLAY PROCESS
    NAME:    WDT_ENABLEOVERFLOWINT/WDT

*** WARNING L16: UNCALLED FUNCTION, IGNORED FOR OVERLAY PROCESS
    NAME:    WDT_DISABLEOVERFLOWINT/WDT

*** WARNING L16: UNCALLED FUNCTION, IGNORED FOR OVERLAY PROCESS
    NAME:    WDT_GETOVERFLOWINTFLAG/WDT

*** WARNING L16: UNCALLED FUNCTION, IGNORED FOR OVERLAY PROCESS
    NAME:    WDT_CLEAROVERFLOWINTFLAG/WDT

*** WARNING L16: UNCALLED FUNCTION, IGNORED FOR OVERLAY PROCESS
    NAME:    _UART_ISR_CONFIG/TEST_UART

*** WARNING L16: UNCALLED FUNCTION, IGNORED FOR OVERLAY PROCESS
    NAME:    GETCHAR/TEST_UART

*** WARNING L16: UNCALLED FUNCTION, IGNORED FOR OVERLAY PROCESS
    NAME:    _PUTS/TEST_UART

*** WARNING L16: UNCALLED FUNCTION, IGNORED FOR OVERLAY PROCESS
LX51 LINKER/LOCATER V4.66.1.0                                                         09/08/2023  16:42:41  PAGE 166


    NAME:    LED_RUN/TEST_LED

*** WARNING L16: UNCALLED FUNCTION, IGNORED FOR OVERLAY PROCESS
    NAME:    TIMER_CONFIG/TEST_TIMER

*** WARNING L16: UNCALLED FUNCTION, IGNORED FOR OVERLAY PROCESS
    NAME:    LAMP_RUN/BREATHING_LAMP

Program Size: data=52.1 xdata=0 const=0 code=8175
LX51 RUN COMPLETE.  212 WARNING(S),  0 ERROR(S)
